
SpaceCenter.elf:     file format elf32-littlearm

Sections:
Idx Name          Size      VMA       LMA       File off  Algn
  0 .isr_vector   000000c0  08000000  08000000  00010000  2**0
                  CONTENTS, ALLOC, LOAD, READONLY, DATA
  1 .text         0000566c  080000c0  080000c0  000100c0  2**2
                  CONTENTS, ALLOC, LOAD, READONLY, CODE
  2 .rodata       000004a4  0800572c  0800572c  0001572c  2**2
                  CONTENTS, ALLOC, LOAD, READONLY, DATA
  3 .ARM.extab    00000000  08005bd0  08005bd0  00020088  2**0
                  CONTENTS
  4 .ARM          00000000  08005bd0  08005bd0  00020088  2**0
                  CONTENTS
  5 .preinit_array 00000000  08005bd0  08005bd0  00020088  2**0
                  CONTENTS, ALLOC, LOAD, DATA
  6 .init_array   00000008  08005bd0  08005bd0  00015bd0  2**2
                  CONTENTS, ALLOC, LOAD, DATA
  7 .fini_array   00000008  08005bd8  08005bd8  00015bd8  2**2
                  CONTENTS, ALLOC, LOAD, DATA
  8 .data         00000088  20000000  08005be0  00020000  2**2
                  CONTENTS, ALLOC, LOAD, DATA
  9 .bss          00000c64  20000088  08005c68  00020088  2**2
                  ALLOC
 10 ._user_heap_stack 00000604  20000cec  08005c68  00020cec  2**0
                  ALLOC
 11 .ARM.attributes 00000028  00000000  00000000  00020088  2**0
                  CONTENTS, READONLY
 12 .debug_info   0002b1fa  00000000  00000000  000200b0  2**0
                  CONTENTS, READONLY, DEBUGGING, OCTETS
 13 .debug_abbrev 00005f0d  00000000  00000000  0004b2aa  2**0
                  CONTENTS, READONLY, DEBUGGING, OCTETS
 14 .debug_aranges 000013c0  00000000  00000000  000511b8  2**3
                  CONTENTS, READONLY, DEBUGGING, OCTETS
 15 .debug_ranges 00001a18  00000000  00000000  00052578  2**3
                  CONTENTS, READONLY, DEBUGGING, OCTETS
 16 .debug_macro  0001b243  00000000  00000000  00053f90  2**0
                  CONTENTS, READONLY, DEBUGGING, OCTETS
 17 .debug_line   0001e6ee  00000000  00000000  0006f1d3  2**0
                  CONTENTS, READONLY, DEBUGGING, OCTETS
 18 .debug_str    0009380b  00000000  00000000  0008d8c1  2**0
                  CONTENTS, READONLY, DEBUGGING, OCTETS
 19 .comment      00000053  00000000  00000000  001210cc  2**0
                  CONTENTS, READONLY
 20 .debug_frame  0000439c  00000000  00000000  00121120  2**2
                  CONTENTS, READONLY, DEBUGGING, OCTETS
 21 .debug_loc    0000d62b  00000000  00000000  001254bc  2**0
                  CONTENTS, READONLY, DEBUGGING, OCTETS

Disassembly of section .text:

080000c0 <__do_global_dtors_aux>:
 80000c0:	b510      	push	{r4, lr}
 80000c2:	4c06      	ldr	r4, [pc, #24]	; (80000dc <__do_global_dtors_aux+0x1c>)
 80000c4:	7823      	ldrb	r3, [r4, #0]
 80000c6:	2b00      	cmp	r3, #0
 80000c8:	d107      	bne.n	80000da <__do_global_dtors_aux+0x1a>
 80000ca:	4b05      	ldr	r3, [pc, #20]	; (80000e0 <__do_global_dtors_aux+0x20>)
 80000cc:	2b00      	cmp	r3, #0
 80000ce:	d002      	beq.n	80000d6 <__do_global_dtors_aux+0x16>
 80000d0:	4804      	ldr	r0, [pc, #16]	; (80000e4 <__do_global_dtors_aux+0x24>)
 80000d2:	e000      	b.n	80000d6 <__do_global_dtors_aux+0x16>
 80000d4:	bf00      	nop
 80000d6:	2301      	movs	r3, #1
 80000d8:	7023      	strb	r3, [r4, #0]
 80000da:	bd10      	pop	{r4, pc}
 80000dc:	20000088 	.word	0x20000088
 80000e0:	00000000 	.word	0x00000000
 80000e4:	08005714 	.word	0x08005714

080000e8 <frame_dummy>:
 80000e8:	4b04      	ldr	r3, [pc, #16]	; (80000fc <frame_dummy+0x14>)
 80000ea:	b510      	push	{r4, lr}
 80000ec:	2b00      	cmp	r3, #0
 80000ee:	d003      	beq.n	80000f8 <frame_dummy+0x10>
 80000f0:	4903      	ldr	r1, [pc, #12]	; (8000100 <frame_dummy+0x18>)
 80000f2:	4804      	ldr	r0, [pc, #16]	; (8000104 <frame_dummy+0x1c>)
 80000f4:	e000      	b.n	80000f8 <frame_dummy+0x10>
 80000f6:	bf00      	nop
 80000f8:	bd10      	pop	{r4, pc}
 80000fa:	46c0      	nop			; (mov r8, r8)
 80000fc:	00000000 	.word	0x00000000
 8000100:	2000008c 	.word	0x2000008c
 8000104:	08005714 	.word	0x08005714

08000108 <__gnu_thumb1_case_uqi>:
 8000108:	b402      	push	{r1}
 800010a:	4671      	mov	r1, lr
 800010c:	0849      	lsrs	r1, r1, #1
 800010e:	0049      	lsls	r1, r1, #1
 8000110:	5c09      	ldrb	r1, [r1, r0]
 8000112:	0049      	lsls	r1, r1, #1
 8000114:	448e      	add	lr, r1
 8000116:	bc02      	pop	{r1}
 8000118:	4770      	bx	lr
 800011a:	46c0      	nop			; (mov r8, r8)

0800011c <__udivsi3>:
 800011c:	2200      	movs	r2, #0
 800011e:	0843      	lsrs	r3, r0, #1
 8000120:	428b      	cmp	r3, r1
 8000122:	d374      	bcc.n	800020e <__udivsi3+0xf2>
 8000124:	0903      	lsrs	r3, r0, #4
 8000126:	428b      	cmp	r3, r1
 8000128:	d35f      	bcc.n	80001ea <__udivsi3+0xce>
 800012a:	0a03      	lsrs	r3, r0, #8
 800012c:	428b      	cmp	r3, r1
 800012e:	d344      	bcc.n	80001ba <__udivsi3+0x9e>
 8000130:	0b03      	lsrs	r3, r0, #12
 8000132:	428b      	cmp	r3, r1
 8000134:	d328      	bcc.n	8000188 <__udivsi3+0x6c>
 8000136:	0c03      	lsrs	r3, r0, #16
 8000138:	428b      	cmp	r3, r1
 800013a:	d30d      	bcc.n	8000158 <__udivsi3+0x3c>
 800013c:	22ff      	movs	r2, #255	; 0xff
 800013e:	0209      	lsls	r1, r1, #8
 8000140:	ba12      	rev	r2, r2
 8000142:	0c03      	lsrs	r3, r0, #16
 8000144:	428b      	cmp	r3, r1
 8000146:	d302      	bcc.n	800014e <__udivsi3+0x32>
 8000148:	1212      	asrs	r2, r2, #8
 800014a:	0209      	lsls	r1, r1, #8
 800014c:	d065      	beq.n	800021a <__udivsi3+0xfe>
 800014e:	0b03      	lsrs	r3, r0, #12
 8000150:	428b      	cmp	r3, r1
 8000152:	d319      	bcc.n	8000188 <__udivsi3+0x6c>
 8000154:	e000      	b.n	8000158 <__udivsi3+0x3c>
 8000156:	0a09      	lsrs	r1, r1, #8
 8000158:	0bc3      	lsrs	r3, r0, #15
 800015a:	428b      	cmp	r3, r1
 800015c:	d301      	bcc.n	8000162 <__udivsi3+0x46>
 800015e:	03cb      	lsls	r3, r1, #15
 8000160:	1ac0      	subs	r0, r0, r3
 8000162:	4152      	adcs	r2, r2
 8000164:	0b83      	lsrs	r3, r0, #14
 8000166:	428b      	cmp	r3, r1
 8000168:	d301      	bcc.n	800016e <__udivsi3+0x52>
 800016a:	038b      	lsls	r3, r1, #14
 800016c:	1ac0      	subs	r0, r0, r3
 800016e:	4152      	adcs	r2, r2
 8000170:	0b43      	lsrs	r3, r0, #13
 8000172:	428b      	cmp	r3, r1
 8000174:	d301      	bcc.n	800017a <__udivsi3+0x5e>
 8000176:	034b      	lsls	r3, r1, #13
 8000178:	1ac0      	subs	r0, r0, r3
 800017a:	4152      	adcs	r2, r2
 800017c:	0b03      	lsrs	r3, r0, #12
 800017e:	428b      	cmp	r3, r1
 8000180:	d301      	bcc.n	8000186 <__udivsi3+0x6a>
 8000182:	030b      	lsls	r3, r1, #12
 8000184:	1ac0      	subs	r0, r0, r3
 8000186:	4152      	adcs	r2, r2
 8000188:	0ac3      	lsrs	r3, r0, #11
 800018a:	428b      	cmp	r3, r1
 800018c:	d301      	bcc.n	8000192 <__udivsi3+0x76>
 800018e:	02cb      	lsls	r3, r1, #11
 8000190:	1ac0      	subs	r0, r0, r3
 8000192:	4152      	adcs	r2, r2
 8000194:	0a83      	lsrs	r3, r0, #10
 8000196:	428b      	cmp	r3, r1
 8000198:	d301      	bcc.n	800019e <__udivsi3+0x82>
 800019a:	028b      	lsls	r3, r1, #10
 800019c:	1ac0      	subs	r0, r0, r3
 800019e:	4152      	adcs	r2, r2
 80001a0:	0a43      	lsrs	r3, r0, #9
 80001a2:	428b      	cmp	r3, r1
 80001a4:	d301      	bcc.n	80001aa <__udivsi3+0x8e>
 80001a6:	024b      	lsls	r3, r1, #9
 80001a8:	1ac0      	subs	r0, r0, r3
 80001aa:	4152      	adcs	r2, r2
 80001ac:	0a03      	lsrs	r3, r0, #8
 80001ae:	428b      	cmp	r3, r1
 80001b0:	d301      	bcc.n	80001b6 <__udivsi3+0x9a>
 80001b2:	020b      	lsls	r3, r1, #8
 80001b4:	1ac0      	subs	r0, r0, r3
 80001b6:	4152      	adcs	r2, r2
 80001b8:	d2cd      	bcs.n	8000156 <__udivsi3+0x3a>
 80001ba:	09c3      	lsrs	r3, r0, #7
 80001bc:	428b      	cmp	r3, r1
 80001be:	d301      	bcc.n	80001c4 <__udivsi3+0xa8>
 80001c0:	01cb      	lsls	r3, r1, #7
 80001c2:	1ac0      	subs	r0, r0, r3
 80001c4:	4152      	adcs	r2, r2
 80001c6:	0983      	lsrs	r3, r0, #6
 80001c8:	428b      	cmp	r3, r1
 80001ca:	d301      	bcc.n	80001d0 <__udivsi3+0xb4>
 80001cc:	018b      	lsls	r3, r1, #6
 80001ce:	1ac0      	subs	r0, r0, r3
 80001d0:	4152      	adcs	r2, r2
 80001d2:	0943      	lsrs	r3, r0, #5
 80001d4:	428b      	cmp	r3, r1
 80001d6:	d301      	bcc.n	80001dc <__udivsi3+0xc0>
 80001d8:	014b      	lsls	r3, r1, #5
 80001da:	1ac0      	subs	r0, r0, r3
 80001dc:	4152      	adcs	r2, r2
 80001de:	0903      	lsrs	r3, r0, #4
 80001e0:	428b      	cmp	r3, r1
 80001e2:	d301      	bcc.n	80001e8 <__udivsi3+0xcc>
 80001e4:	010b      	lsls	r3, r1, #4
 80001e6:	1ac0      	subs	r0, r0, r3
 80001e8:	4152      	adcs	r2, r2
 80001ea:	08c3      	lsrs	r3, r0, #3
 80001ec:	428b      	cmp	r3, r1
 80001ee:	d301      	bcc.n	80001f4 <__udivsi3+0xd8>
 80001f0:	00cb      	lsls	r3, r1, #3
 80001f2:	1ac0      	subs	r0, r0, r3
 80001f4:	4152      	adcs	r2, r2
 80001f6:	0883      	lsrs	r3, r0, #2
 80001f8:	428b      	cmp	r3, r1
 80001fa:	d301      	bcc.n	8000200 <__udivsi3+0xe4>
 80001fc:	008b      	lsls	r3, r1, #2
 80001fe:	1ac0      	subs	r0, r0, r3
 8000200:	4152      	adcs	r2, r2
 8000202:	0843      	lsrs	r3, r0, #1
 8000204:	428b      	cmp	r3, r1
 8000206:	d301      	bcc.n	800020c <__udivsi3+0xf0>
 8000208:	004b      	lsls	r3, r1, #1
 800020a:	1ac0      	subs	r0, r0, r3
 800020c:	4152      	adcs	r2, r2
 800020e:	1a41      	subs	r1, r0, r1
 8000210:	d200      	bcs.n	8000214 <__udivsi3+0xf8>
 8000212:	4601      	mov	r1, r0
 8000214:	4152      	adcs	r2, r2
 8000216:	4610      	mov	r0, r2
 8000218:	4770      	bx	lr
 800021a:	e7ff      	b.n	800021c <__udivsi3+0x100>
 800021c:	b501      	push	{r0, lr}
 800021e:	2000      	movs	r0, #0
 8000220:	f000 f806 	bl	8000230 <__aeabi_idiv0>
 8000224:	bd02      	pop	{r1, pc}
 8000226:	46c0      	nop			; (mov r8, r8)

08000228 <__aeabi_uidivmod>:
 8000228:	2900      	cmp	r1, #0
 800022a:	d0f7      	beq.n	800021c <__udivsi3+0x100>
 800022c:	e776      	b.n	800011c <__udivsi3>
 800022e:	4770      	bx	lr

08000230 <__aeabi_idiv0>:
 8000230:	4770      	bx	lr
 8000232:	46c0      	nop			; (mov r8, r8)

08000234 <_ZN8NeoPixelC1EtR17TIM_HandleTypeDefmR19__DMA_HandleTypeDef>:
// Peripheral usage
#include "NeoPixel.hpp"
#include <stdlib.h>

NeoPixel::NeoPixel(uint16_t n, TIM_HandleTypeDef &timHandle, uint32_t timChannel, DMA_HandleTypeDef &dmaHandle) 
 8000234:	b580      	push	{r7, lr}
 8000236:	b084      	sub	sp, #16
 8000238:	af00      	add	r7, sp, #0
 800023a:	60f8      	str	r0, [r7, #12]
 800023c:	607a      	str	r2, [r7, #4]
 800023e:	603b      	str	r3, [r7, #0]
 8000240:	200a      	movs	r0, #10
 8000242:	183b      	adds	r3, r7, r0
 8000244:	1c0a      	adds	r2, r1, #0
 8000246:	801a      	strh	r2, [r3, #0]
        : htim(timHandle), hdma(dmaHandle), timCh{timChannel} {
 8000248:	68fb      	ldr	r3, [r7, #12]
 800024a:	490c      	ldr	r1, [pc, #48]	; (800027c <_ZN8NeoPixelC1EtR17TIM_HandleTypeDefmR19__DMA_HandleTypeDef+0x48>)
 800024c:	687a      	ldr	r2, [r7, #4]
 800024e:	505a      	str	r2, [r3, r1]
 8000250:	68fa      	ldr	r2, [r7, #12]
 8000252:	2393      	movs	r3, #147	; 0x93
 8000254:	00db      	lsls	r3, r3, #3
 8000256:	69b9      	ldr	r1, [r7, #24]
 8000258:	50d1      	str	r1, [r2, r3]
 800025a:	68fb      	ldr	r3, [r7, #12]
 800025c:	4908      	ldr	r1, [pc, #32]	; (8000280 <_ZN8NeoPixelC1EtR17TIM_HandleTypeDefmR19__DMA_HandleTypeDef+0x4c>)
 800025e:	683a      	ldr	r2, [r7, #0]
 8000260:	505a      	str	r2, [r3, r1]
  updateLength(n);
 8000262:	183b      	adds	r3, r7, r0
 8000264:	881a      	ldrh	r2, [r3, #0]
 8000266:	68fb      	ldr	r3, [r7, #12]
 8000268:	0011      	movs	r1, r2
 800026a:	0018      	movs	r0, r3
 800026c:	f000 f813 	bl	8000296 <_ZN8NeoPixel12updateLengthEt>
}
 8000270:	68fb      	ldr	r3, [r7, #12]
 8000272:	0018      	movs	r0, r3
 8000274:	46bd      	mov	sp, r7
 8000276:	b004      	add	sp, #16
 8000278:	bd80      	pop	{r7, pc}
 800027a:	46c0      	nop			; (mov r8, r8)
 800027c:	00000494 	.word	0x00000494
 8000280:	0000049c 	.word	0x0000049c

08000284 <_ZN8NeoPixelD1Ev>:

NeoPixel::~NeoPixel() {
 8000284:	b580      	push	{r7, lr}
 8000286:	b082      	sub	sp, #8
 8000288:	af00      	add	r7, sp, #0
 800028a:	6078      	str	r0, [r7, #4]
}
 800028c:	687b      	ldr	r3, [r7, #4]
 800028e:	0018      	movs	r0, r3
 8000290:	46bd      	mov	sp, r7
 8000292:	b002      	add	sp, #8
 8000294:	bd80      	pop	{r7, pc}

08000296 <_ZN8NeoPixel12updateLengthEt>:

void NeoPixel::updateLength(uint16_t n) {
 8000296:	b580      	push	{r7, lr}
 8000298:	b082      	sub	sp, #8
 800029a:	af00      	add	r7, sp, #0
 800029c:	6078      	str	r0, [r7, #4]
 800029e:	000a      	movs	r2, r1
 80002a0:	1cbb      	adds	r3, r7, #2
 80002a2:	801a      	strh	r2, [r3, #0]

  // Allocate new data -- note: ALL PIXELS ARE CLEARED
  numBytes = n * 3;
 80002a4:	1cbb      	adds	r3, r7, #2
 80002a6:	881b      	ldrh	r3, [r3, #0]
 80002a8:	1c1a      	adds	r2, r3, #0
 80002aa:	1892      	adds	r2, r2, r2
 80002ac:	18d3      	adds	r3, r2, r3
 80002ae:	b29a      	uxth	r2, r3
 80002b0:	687b      	ldr	r3, [r7, #4]
 80002b2:	805a      	strh	r2, [r3, #2]
  pixels = (uint8_t *)malloc(numBytes);
 80002b4:	687b      	ldr	r3, [r7, #4]
 80002b6:	885b      	ldrh	r3, [r3, #2]
 80002b8:	0018      	movs	r0, r3
 80002ba:	f005 f8dd 	bl	8005478 <malloc>
 80002be:	0003      	movs	r3, r0
 80002c0:	001a      	movs	r2, r3
 80002c2:	687b      	ldr	r3, [r7, #4]
 80002c4:	605a      	str	r2, [r3, #4]
  numLEDs = n;
 80002c6:	687b      	ldr	r3, [r7, #4]
 80002c8:	1cba      	adds	r2, r7, #2
 80002ca:	8812      	ldrh	r2, [r2, #0]
 80002cc:	801a      	strh	r2, [r3, #0]
}
 80002ce:	46c0      	nop			; (mov r8, r8)
 80002d0:	46bd      	mov	sp, r7
 80002d2:	b002      	add	sp, #8
 80002d4:	bd80      	pop	{r7, pc}

080002d6 <_ZN8NeoPixel13setPixelColorEthhh>:

void NeoPixel::setPixelColor(uint16_t n, uint8_t r, uint8_t g, uint8_t b) {
 80002d6:	b590      	push	{r4, r7, lr}
 80002d8:	b083      	sub	sp, #12
 80002da:	af00      	add	r7, sp, #0
 80002dc:	6078      	str	r0, [r7, #4]
 80002de:	000c      	movs	r4, r1
 80002e0:	0010      	movs	r0, r2
 80002e2:	0019      	movs	r1, r3
 80002e4:	1cbb      	adds	r3, r7, #2
 80002e6:	1c22      	adds	r2, r4, #0
 80002e8:	801a      	strh	r2, [r3, #0]
 80002ea:	1c7b      	adds	r3, r7, #1
 80002ec:	1c02      	adds	r2, r0, #0
 80002ee:	701a      	strb	r2, [r3, #0]
 80002f0:	003b      	movs	r3, r7
 80002f2:	1c0a      	adds	r2, r1, #0
 80002f4:	701a      	strb	r2, [r3, #0]
  pixels[n * 3] = g;
 80002f6:	687b      	ldr	r3, [r7, #4]
 80002f8:	6859      	ldr	r1, [r3, #4]
 80002fa:	1cbb      	adds	r3, r7, #2
 80002fc:	881a      	ldrh	r2, [r3, #0]
 80002fe:	0013      	movs	r3, r2
 8000300:	005b      	lsls	r3, r3, #1
 8000302:	189b      	adds	r3, r3, r2
 8000304:	18cb      	adds	r3, r1, r3
 8000306:	003a      	movs	r2, r7
 8000308:	7812      	ldrb	r2, [r2, #0]
 800030a:	701a      	strb	r2, [r3, #0]
  pixels[n * 3 + 1] = r;
 800030c:	687b      	ldr	r3, [r7, #4]
 800030e:	6859      	ldr	r1, [r3, #4]
 8000310:	1cbb      	adds	r3, r7, #2
 8000312:	881a      	ldrh	r2, [r3, #0]
 8000314:	0013      	movs	r3, r2
 8000316:	005b      	lsls	r3, r3, #1
 8000318:	189b      	adds	r3, r3, r2
 800031a:	3301      	adds	r3, #1
 800031c:	18cb      	adds	r3, r1, r3
 800031e:	1c7a      	adds	r2, r7, #1
 8000320:	7812      	ldrb	r2, [r2, #0]
 8000322:	701a      	strb	r2, [r3, #0]
  pixels[n * 3 + 2] = b;
 8000324:	687b      	ldr	r3, [r7, #4]
 8000326:	6859      	ldr	r1, [r3, #4]
 8000328:	1cbb      	adds	r3, r7, #2
 800032a:	881a      	ldrh	r2, [r3, #0]
 800032c:	0013      	movs	r3, r2
 800032e:	005b      	lsls	r3, r3, #1
 8000330:	189b      	adds	r3, r3, r2
 8000332:	3302      	adds	r3, #2
 8000334:	18ca      	adds	r2, r1, r3
 8000336:	2318      	movs	r3, #24
 8000338:	18fb      	adds	r3, r7, r3
 800033a:	781b      	ldrb	r3, [r3, #0]
 800033c:	7013      	strb	r3, [r2, #0]
}
 800033e:	46c0      	nop			; (mov r8, r8)
 8000340:	46bd      	mov	sp, r7
 8000342:	b003      	add	sp, #12
 8000344:	bd90      	pop	{r4, r7, pc}
	...

08000348 <_ZN8NeoPixel4showEv>:

void NeoPixel::show(void) {
 8000348:	b580      	push	{r7, lr}
 800034a:	b086      	sub	sp, #24
 800034c:	af00      	add	r7, sp, #0
 800034e:	6078      	str	r0, [r7, #4]

  for(uint16_t j = 0; j < numBytes; j++) {
 8000350:	2316      	movs	r3, #22
 8000352:	18fb      	adds	r3, r7, r3
 8000354:	2200      	movs	r2, #0
 8000356:	801a      	strh	r2, [r3, #0]
 8000358:	687b      	ldr	r3, [r7, #4]
 800035a:	885b      	ldrh	r3, [r3, #2]
 800035c:	2216      	movs	r2, #22
 800035e:	18ba      	adds	r2, r7, r2
 8000360:	8812      	ldrh	r2, [r2, #0]
 8000362:	429a      	cmp	r2, r3
 8000364:	d22c      	bcs.n	80003c0 <_ZN8NeoPixel4showEv+0x78>
	  for(uint_fast8_t i = 0; i < 8; i++) {
 8000366:	2300      	movs	r3, #0
 8000368:	613b      	str	r3, [r7, #16]
 800036a:	693b      	ldr	r3, [r7, #16]
 800036c:	2b07      	cmp	r3, #7
 800036e:	d820      	bhi.n	80003b2 <_ZN8NeoPixel4showEv+0x6a>
		  wr_buf[i+8*j   ] = PWM_LO << (((pixels[j]  << i) & 0x80) > 0);
 8000370:	687b      	ldr	r3, [r7, #4]
 8000372:	685a      	ldr	r2, [r3, #4]
 8000374:	2316      	movs	r3, #22
 8000376:	18fb      	adds	r3, r7, r3
 8000378:	881b      	ldrh	r3, [r3, #0]
 800037a:	18d3      	adds	r3, r2, r3
 800037c:	781b      	ldrb	r3, [r3, #0]
 800037e:	001a      	movs	r2, r3
 8000380:	693b      	ldr	r3, [r7, #16]
 8000382:	409a      	lsls	r2, r3
 8000384:	0013      	movs	r3, r2
 8000386:	2280      	movs	r2, #128	; 0x80
 8000388:	4013      	ands	r3, r2
 800038a:	2b00      	cmp	r3, #0
 800038c:	dd01      	ble.n	8000392 <_ZN8NeoPixel4showEv+0x4a>
 800038e:	2118      	movs	r1, #24
 8000390:	e000      	b.n	8000394 <_ZN8NeoPixel4showEv+0x4c>
 8000392:	210c      	movs	r1, #12
 8000394:	2316      	movs	r3, #22
 8000396:	18fb      	adds	r3, r7, r3
 8000398:	881b      	ldrh	r3, [r3, #0]
 800039a:	00db      	lsls	r3, r3, #3
 800039c:	001a      	movs	r2, r3
 800039e:	693b      	ldr	r3, [r7, #16]
 80003a0:	18d3      	adds	r3, r2, r3
 80003a2:	687a      	ldr	r2, [r7, #4]
 80003a4:	18d3      	adds	r3, r2, r3
 80003a6:	1c0a      	adds	r2, r1, #0
 80003a8:	721a      	strb	r2, [r3, #8]
	  for(uint_fast8_t i = 0; i < 8; i++) {
 80003aa:	693b      	ldr	r3, [r7, #16]
 80003ac:	3301      	adds	r3, #1
 80003ae:	613b      	str	r3, [r7, #16]
 80003b0:	e7db      	b.n	800036a <_ZN8NeoPixel4showEv+0x22>
  for(uint16_t j = 0; j < numBytes; j++) {
 80003b2:	2116      	movs	r1, #22
 80003b4:	187b      	adds	r3, r7, r1
 80003b6:	881a      	ldrh	r2, [r3, #0]
 80003b8:	187b      	adds	r3, r7, r1
 80003ba:	3201      	adds	r2, #1
 80003bc:	801a      	strh	r2, [r3, #0]
 80003be:	e7cb      	b.n	8000358 <_ZN8NeoPixel4showEv+0x10>
	  }
  }
  for(uint_fast8_t i = 0; i < 8; i++) {
 80003c0:	2300      	movs	r3, #0
 80003c2:	60fb      	str	r3, [r7, #12]
 80003c4:	68fb      	ldr	r3, [r7, #12]
 80003c6:	2b07      	cmp	r3, #7
 80003c8:	d80d      	bhi.n	80003e6 <_ZN8NeoPixel4showEv+0x9e>
	  wr_buf[i+8*numBytes   ] = 0;
 80003ca:	687b      	ldr	r3, [r7, #4]
 80003cc:	885b      	ldrh	r3, [r3, #2]
 80003ce:	00db      	lsls	r3, r3, #3
 80003d0:	001a      	movs	r2, r3
 80003d2:	68fb      	ldr	r3, [r7, #12]
 80003d4:	18d3      	adds	r3, r2, r3
 80003d6:	687a      	ldr	r2, [r7, #4]
 80003d8:	18d3      	adds	r3, r2, r3
 80003da:	2200      	movs	r2, #0
 80003dc:	721a      	strb	r2, [r3, #8]
  for(uint_fast8_t i = 0; i < 8; i++) {
 80003de:	68fb      	ldr	r3, [r7, #12]
 80003e0:	3301      	adds	r3, #1
 80003e2:	60fb      	str	r3, [r7, #12]
 80003e4:	e7ee      	b.n	80003c4 <_ZN8NeoPixel4showEv+0x7c>
  }
  HAL_TIM_PWM_Start_DMA(&htim, timCh, (uint32_t *)wr_buf, WR_BUF_LEN);
 80003e6:	687b      	ldr	r3, [r7, #4]
 80003e8:	4a07      	ldr	r2, [pc, #28]	; (8000408 <_ZN8NeoPixel4showEv+0xc0>)
 80003ea:	5898      	ldr	r0, [r3, r2]
 80003ec:	687b      	ldr	r3, [r7, #4]
 80003ee:	4a07      	ldr	r2, [pc, #28]	; (800040c <_ZN8NeoPixel4showEv+0xc4>)
 80003f0:	5899      	ldr	r1, [r3, r2]
 80003f2:	687b      	ldr	r3, [r7, #4]
 80003f4:	3308      	adds	r3, #8
 80003f6:	001a      	movs	r2, r3
 80003f8:	2391      	movs	r3, #145	; 0x91
 80003fa:	00db      	lsls	r3, r3, #3
 80003fc:	f003 fbea 	bl	8003bd4 <HAL_TIM_PWM_Start_DMA>
}
 8000400:	46c0      	nop			; (mov r8, r8)
 8000402:	46bd      	mov	sp, r7
 8000404:	b006      	add	sp, #24
 8000406:	bd80      	pop	{r7, pc}
 8000408:	00000494 	.word	0x00000494
 800040c:	0000049c 	.word	0x0000049c

08000410 <_ZN10TouchBoardC1Ev>:
#include "TouchBoard.hpp"
#include "touchsensing.h"

TouchBoard::TouchBoard() {
 8000410:	b580      	push	{r7, lr}
 8000412:	b084      	sub	sp, #16
 8000414:	af00      	add	r7, sp, #0
 8000416:	6078      	str	r0, [r7, #4]
  myTouchState = NOT_TOUCHED;
 8000418:	687b      	ldr	r3, [r7, #4]
 800041a:	2201      	movs	r2, #1
 800041c:	71da      	strb	r2, [r3, #7]
  myTouchKeyOffset = 0;
 800041e:	687b      	ldr	r3, [r7, #4]
 8000420:	2200      	movs	r2, #0
 8000422:	719a      	strb	r2, [r3, #6]
  for (int i=0; i<NUM_PIXELS_PER_BOARD; i++) {
 8000424:	2300      	movs	r3, #0
 8000426:	60fb      	str	r3, [r7, #12]
 8000428:	68fb      	ldr	r3, [r7, #12]
 800042a:	2b01      	cmp	r3, #1
 800042c:	dc1c      	bgt.n	8000468 <_ZN10TouchBoardC1Ev+0x58>
    pixelColors[i].r = 0;
 800042e:	6879      	ldr	r1, [r7, #4]
 8000430:	68fa      	ldr	r2, [r7, #12]
 8000432:	0013      	movs	r3, r2
 8000434:	005b      	lsls	r3, r3, #1
 8000436:	189b      	adds	r3, r3, r2
 8000438:	2200      	movs	r2, #0
 800043a:	545a      	strb	r2, [r3, r1]
    pixelColors[i].g = 0;
 800043c:	6879      	ldr	r1, [r7, #4]
 800043e:	68fa      	ldr	r2, [r7, #12]
 8000440:	0013      	movs	r3, r2
 8000442:	005b      	lsls	r3, r3, #1
 8000444:	189b      	adds	r3, r3, r2
 8000446:	18cb      	adds	r3, r1, r3
 8000448:	3301      	adds	r3, #1
 800044a:	2200      	movs	r2, #0
 800044c:	701a      	strb	r2, [r3, #0]
    pixelColors[i].b = 0;
 800044e:	6879      	ldr	r1, [r7, #4]
 8000450:	68fa      	ldr	r2, [r7, #12]
 8000452:	0013      	movs	r3, r2
 8000454:	005b      	lsls	r3, r3, #1
 8000456:	189b      	adds	r3, r3, r2
 8000458:	18cb      	adds	r3, r1, r3
 800045a:	3302      	adds	r3, #2
 800045c:	2200      	movs	r2, #0
 800045e:	701a      	strb	r2, [r3, #0]
  for (int i=0; i<NUM_PIXELS_PER_BOARD; i++) {
 8000460:	68fb      	ldr	r3, [r7, #12]
 8000462:	3301      	adds	r3, #1
 8000464:	60fb      	str	r3, [r7, #12]
 8000466:	e7df      	b.n	8000428 <_ZN10TouchBoardC1Ev+0x18>
  }
}
 8000468:	687b      	ldr	r3, [r7, #4]
 800046a:	0018      	movs	r0, r3
 800046c:	46bd      	mov	sp, r7
 800046e:	b004      	add	sp, #16
 8000470:	bd80      	pop	{r7, pc}

08000472 <_ZN10TouchBoardD1Ev>:

TouchBoard::~TouchBoard() {
 8000472:	b580      	push	{r7, lr}
 8000474:	b082      	sub	sp, #8
 8000476:	af00      	add	r7, sp, #0
 8000478:	6078      	str	r0, [r7, #4]
}
 800047a:	687b      	ldr	r3, [r7, #4]
 800047c:	0018      	movs	r0, r3
 800047e:	46bd      	mov	sp, r7
 8000480:	b002      	add	sp, #8
 8000482:	bd80      	pop	{r7, pc}

08000484 <_ZN10TouchBoard16setAllPixelColorEhhh>:
  pixelColors[pixel_num].r = r;
  pixelColors[pixel_num].g = g;
  pixelColors[pixel_num].b = b;
}

void TouchBoard::setAllPixelColor(uint8_t r, uint8_t g, uint8_t b) {
 8000484:	b590      	push	{r4, r7, lr}
 8000486:	b085      	sub	sp, #20
 8000488:	af00      	add	r7, sp, #0
 800048a:	6078      	str	r0, [r7, #4]
 800048c:	000c      	movs	r4, r1
 800048e:	0010      	movs	r0, r2
 8000490:	0019      	movs	r1, r3
 8000492:	1cfb      	adds	r3, r7, #3
 8000494:	1c22      	adds	r2, r4, #0
 8000496:	701a      	strb	r2, [r3, #0]
 8000498:	1cbb      	adds	r3, r7, #2
 800049a:	1c02      	adds	r2, r0, #0
 800049c:	701a      	strb	r2, [r3, #0]
 800049e:	1c7b      	adds	r3, r7, #1
 80004a0:	1c0a      	adds	r2, r1, #0
 80004a2:	701a      	strb	r2, [r3, #0]
  for (int i=0; i<NUM_PIXELS_PER_BOARD; i++) {
 80004a4:	2300      	movs	r3, #0
 80004a6:	60fb      	str	r3, [r7, #12]
 80004a8:	68fb      	ldr	r3, [r7, #12]
 80004aa:	2b01      	cmp	r3, #1
 80004ac:	dc1f      	bgt.n	80004ee <_ZN10TouchBoard16setAllPixelColorEhhh+0x6a>
    pixelColors[i].r = r;
 80004ae:	6879      	ldr	r1, [r7, #4]
 80004b0:	68fa      	ldr	r2, [r7, #12]
 80004b2:	0013      	movs	r3, r2
 80004b4:	005b      	lsls	r3, r3, #1
 80004b6:	189b      	adds	r3, r3, r2
 80004b8:	1cfa      	adds	r2, r7, #3
 80004ba:	7812      	ldrb	r2, [r2, #0]
 80004bc:	545a      	strb	r2, [r3, r1]
    pixelColors[i].g = g;
 80004be:	6879      	ldr	r1, [r7, #4]
 80004c0:	68fa      	ldr	r2, [r7, #12]
 80004c2:	0013      	movs	r3, r2
 80004c4:	005b      	lsls	r3, r3, #1
 80004c6:	189b      	adds	r3, r3, r2
 80004c8:	18cb      	adds	r3, r1, r3
 80004ca:	3301      	adds	r3, #1
 80004cc:	1cba      	adds	r2, r7, #2
 80004ce:	7812      	ldrb	r2, [r2, #0]
 80004d0:	701a      	strb	r2, [r3, #0]
    pixelColors[i].b = b;
 80004d2:	6879      	ldr	r1, [r7, #4]
 80004d4:	68fa      	ldr	r2, [r7, #12]
 80004d6:	0013      	movs	r3, r2
 80004d8:	005b      	lsls	r3, r3, #1
 80004da:	189b      	adds	r3, r3, r2
 80004dc:	18cb      	adds	r3, r1, r3
 80004de:	3302      	adds	r3, #2
 80004e0:	1c7a      	adds	r2, r7, #1
 80004e2:	7812      	ldrb	r2, [r2, #0]
 80004e4:	701a      	strb	r2, [r3, #0]
  for (int i=0; i<NUM_PIXELS_PER_BOARD; i++) {
 80004e6:	68fb      	ldr	r3, [r7, #12]
 80004e8:	3301      	adds	r3, #1
 80004ea:	60fb      	str	r3, [r7, #12]
 80004ec:	e7dc      	b.n	80004a8 <_ZN10TouchBoard16setAllPixelColorEhhh+0x24>
  }
}
 80004ee:	46c0      	nop			; (mov r8, r8)
 80004f0:	46bd      	mov	sp, r7
 80004f2:	b005      	add	sp, #20
 80004f4:	bd90      	pop	{r4, r7, pc}
	...

080004f8 <_ZN10TouchBoard13getPixelColorEh>:

PixelColor_s TouchBoard::getPixelColor(uint8_t pixel_ind) {
 80004f8:	b590      	push	{r4, r7, lr}
 80004fa:	b085      	sub	sp, #20
 80004fc:	af00      	add	r7, sp, #0
 80004fe:	6078      	str	r0, [r7, #4]
 8000500:	000a      	movs	r2, r1
 8000502:	1cfb      	adds	r3, r7, #3
 8000504:	701a      	strb	r2, [r3, #0]
  return pixelColors[pixel_ind];
 8000506:	1cfb      	adds	r3, r7, #3
 8000508:	781a      	ldrb	r2, [r3, #0]
 800050a:	240c      	movs	r4, #12
 800050c:	1938      	adds	r0, r7, r4
 800050e:	6879      	ldr	r1, [r7, #4]
 8000510:	0013      	movs	r3, r2
 8000512:	005b      	lsls	r3, r3, #1
 8000514:	189b      	adds	r3, r3, r2
 8000516:	18cb      	adds	r3, r1, r3
 8000518:	2203      	movs	r2, #3
 800051a:	0019      	movs	r1, r3
 800051c:	f004 ffc0 	bl	80054a0 <memcpy>
 8000520:	193a      	adds	r2, r7, r4
 8000522:	2300      	movs	r3, #0
 8000524:	7811      	ldrb	r1, [r2, #0]
 8000526:	20ff      	movs	r0, #255	; 0xff
 8000528:	4001      	ands	r1, r0
 800052a:	20ff      	movs	r0, #255	; 0xff
 800052c:	4383      	bics	r3, r0
 800052e:	430b      	orrs	r3, r1
 8000530:	7851      	ldrb	r1, [r2, #1]
 8000532:	20ff      	movs	r0, #255	; 0xff
 8000534:	4001      	ands	r1, r0
 8000536:	0209      	lsls	r1, r1, #8
 8000538:	4806      	ldr	r0, [pc, #24]	; (8000554 <_ZN10TouchBoard13getPixelColorEh+0x5c>)
 800053a:	4003      	ands	r3, r0
 800053c:	430b      	orrs	r3, r1
 800053e:	7892      	ldrb	r2, [r2, #2]
 8000540:	21ff      	movs	r1, #255	; 0xff
 8000542:	400a      	ands	r2, r1
 8000544:	0412      	lsls	r2, r2, #16
 8000546:	4904      	ldr	r1, [pc, #16]	; (8000558 <_ZN10TouchBoard13getPixelColorEh+0x60>)
 8000548:	400b      	ands	r3, r1
 800054a:	4313      	orrs	r3, r2
}
 800054c:	0018      	movs	r0, r3
 800054e:	46bd      	mov	sp, r7
 8000550:	b005      	add	sp, #20
 8000552:	bd90      	pop	{r4, r7, pc}
 8000554:	ffff00ff 	.word	0xffff00ff
 8000558:	ff00ffff 	.word	0xff00ffff

0800055c <_ZN10TouchBoard17setTouchKeyOffsetEh>:

void TouchBoard::setTouchKeyOffset(uint8_t touchKeyOffset) {
 800055c:	b580      	push	{r7, lr}
 800055e:	b082      	sub	sp, #8
 8000560:	af00      	add	r7, sp, #0
 8000562:	6078      	str	r0, [r7, #4]
 8000564:	000a      	movs	r2, r1
 8000566:	1cfb      	adds	r3, r7, #3
 8000568:	701a      	strb	r2, [r3, #0]
  myTouchKeyOffset = touchKeyOffset;
 800056a:	687b      	ldr	r3, [r7, #4]
 800056c:	1cfa      	adds	r2, r7, #3
 800056e:	7812      	ldrb	r2, [r2, #0]
 8000570:	719a      	strb	r2, [r3, #6]
}
 8000572:	46c0      	nop			; (mov r8, r8)
 8000574:	46bd      	mov	sp, r7
 8000576:	b002      	add	sp, #8
 8000578:	bd80      	pop	{r7, pc}
	...

0800057c <_ZN10TouchBoard16updateTouchStateEv>:

void TouchBoard::updateTouchState() {
 800057c:	b580      	push	{r7, lr}
 800057e:	b082      	sub	sp, #8
 8000580:	af00      	add	r7, sp, #0
 8000582:	6078      	str	r0, [r7, #4]
  if (MyTKeysB[myTouchKeyOffset].p_Data->StateId == TSL_STATEID_DETECT) {
 8000584:	687b      	ldr	r3, [r7, #4]
 8000586:	799b      	ldrb	r3, [r3, #6]
 8000588:	0019      	movs	r1, r3
 800058a:	4a10      	ldr	r2, [pc, #64]	; (80005cc <_ZN10TouchBoard16updateTouchStateEv+0x50>)
 800058c:	000b      	movs	r3, r1
 800058e:	005b      	lsls	r3, r3, #1
 8000590:	185b      	adds	r3, r3, r1
 8000592:	009b      	lsls	r3, r3, #2
 8000594:	589b      	ldr	r3, [r3, r2]
 8000596:	781b      	ldrb	r3, [r3, #0]
 8000598:	2b0a      	cmp	r3, #10
 800059a:	d103      	bne.n	80005a4 <_ZN10TouchBoard16updateTouchStateEv+0x28>
    myTouchState = TOUCHED;
 800059c:	687b      	ldr	r3, [r7, #4]
 800059e:	2200      	movs	r2, #0
 80005a0:	71da      	strb	r2, [r3, #7]
  } else if (MyTKeysB[myTouchKeyOffset].p_Data->StateId == TSL_STATEID_RELEASE) {
    myTouchState = NOT_TOUCHED;
  }
}
 80005a2:	e00e      	b.n	80005c2 <_ZN10TouchBoard16updateTouchStateEv+0x46>
  } else if (MyTKeysB[myTouchKeyOffset].p_Data->StateId == TSL_STATEID_RELEASE) {
 80005a4:	687b      	ldr	r3, [r7, #4]
 80005a6:	799b      	ldrb	r3, [r3, #6]
 80005a8:	0019      	movs	r1, r3
 80005aa:	4a08      	ldr	r2, [pc, #32]	; (80005cc <_ZN10TouchBoard16updateTouchStateEv+0x50>)
 80005ac:	000b      	movs	r3, r1
 80005ae:	005b      	lsls	r3, r3, #1
 80005b0:	185b      	adds	r3, r3, r1
 80005b2:	009b      	lsls	r3, r3, #2
 80005b4:	589b      	ldr	r3, [r3, r2]
 80005b6:	781b      	ldrb	r3, [r3, #0]
 80005b8:	2b02      	cmp	r3, #2
 80005ba:	d102      	bne.n	80005c2 <_ZN10TouchBoard16updateTouchStateEv+0x46>
    myTouchState = NOT_TOUCHED;
 80005bc:	687b      	ldr	r3, [r7, #4]
 80005be:	2201      	movs	r2, #1
 80005c0:	71da      	strb	r2, [r3, #7]
}
 80005c2:	46c0      	nop			; (mov r8, r8)
 80005c4:	46bd      	mov	sp, r7
 80005c6:	b002      	add	sp, #8
 80005c8:	bd80      	pop	{r7, pc}
 80005ca:	46c0      	nop			; (mov r8, r8)
 80005cc:	08005a08 	.word	0x08005a08

080005d0 <_ZN10TouchBoard13getTouchStateEv>:

TouchState_enum TouchBoard::getTouchState() {
 80005d0:	b580      	push	{r7, lr}
 80005d2:	b082      	sub	sp, #8
 80005d4:	af00      	add	r7, sp, #0
 80005d6:	6078      	str	r0, [r7, #4]
  return myTouchState;
 80005d8:	687b      	ldr	r3, [r7, #4]
 80005da:	79db      	ldrb	r3, [r3, #7]
 80005dc:	0018      	movs	r0, r3
 80005de:	46bd      	mov	sp, r7
 80005e0:	b002      	add	sp, #8
 80005e2:	bd80      	pop	{r7, pc}

080005e4 <_ZnwjPv>:
#endif // __cpp_sized_deallocation
#endif // __cpp_aligned_new

// Default placement versions of operator new.
_GLIBCXX_NODISCARD inline void* operator new(std::size_t, void* __p) _GLIBCXX_USE_NOEXCEPT
{ return __p; }
 80005e4:	b580      	push	{r7, lr}
 80005e6:	b082      	sub	sp, #8
 80005e8:	af00      	add	r7, sp, #0
 80005ea:	6078      	str	r0, [r7, #4]
 80005ec:	6039      	str	r1, [r7, #0]
 80005ee:	683b      	ldr	r3, [r7, #0]
 80005f0:	0018      	movs	r0, r3
 80005f2:	46bd      	mov	sp, r7
 80005f4:	b002      	add	sp, #8
 80005f6:	bd80      	pop	{r7, pc}

080005f8 <_ZN15TouchBoardGroupC1EhhR17TIM_HandleTypeDefmR19__DMA_HandleTypeDef>:
#include "TouchBoardGroup.hpp"
#include "stm32l0xx_hal.h"

TouchBoardGroup::TouchBoardGroup(uint8_t n, uint8_t touchKeyOffset, TIM_HandleTypeDef &timHandle,
 80005f8:	b5f0      	push	{r4, r5, r6, r7, lr}
 80005fa:	b08b      	sub	sp, #44	; 0x2c
 80005fc:	af02      	add	r7, sp, #8
 80005fe:	60f8      	str	r0, [r7, #12]
 8000600:	0008      	movs	r0, r1
 8000602:	0011      	movs	r1, r2
 8000604:	607b      	str	r3, [r7, #4]
 8000606:	260b      	movs	r6, #11
 8000608:	19bb      	adds	r3, r7, r6
 800060a:	1c02      	adds	r2, r0, #0
 800060c:	701a      	strb	r2, [r3, #0]
 800060e:	230a      	movs	r3, #10
 8000610:	18fb      	adds	r3, r7, r3
 8000612:	1c0a      	adds	r2, r1, #0
 8000614:	701a      	strb	r2, [r3, #0]
                                  uint32_t timChannel, DMA_HandleTypeDef &dmaHandle) 
                : ledArray((uint16_t)(n*NUM_PIXELS_PER_BOARD), timHandle, timChannel, dmaHandle),
                  touchStates(n), touchBoards(n) {
 8000616:	68fb      	ldr	r3, [r7, #12]
 8000618:	1d18      	adds	r0, r3, #4
 800061a:	19bb      	adds	r3, r7, r6
 800061c:	781b      	ldrb	r3, [r3, #0]
 800061e:	b29b      	uxth	r3, r3
 8000620:	18db      	adds	r3, r3, r3
 8000622:	b299      	uxth	r1, r3
 8000624:	6bbc      	ldr	r4, [r7, #56]	; 0x38
 8000626:	687a      	ldr	r2, [r7, #4]
 8000628:	6bfb      	ldr	r3, [r7, #60]	; 0x3c
 800062a:	9300      	str	r3, [sp, #0]
 800062c:	0023      	movs	r3, r4
 800062e:	f7ff fe01 	bl	8000234 <_ZN8NeoPixelC1EtR17TIM_HandleTypeDefmR19__DMA_HandleTypeDef>
 8000632:	68fb      	ldr	r3, [r7, #12]
 8000634:	2195      	movs	r1, #149	; 0x95
 8000636:	00c9      	lsls	r1, r1, #3
 8000638:	185c      	adds	r4, r3, r1
 800063a:	19bb      	adds	r3, r7, r6
 800063c:	781d      	ldrb	r5, [r3, #0]
 800063e:	2314      	movs	r3, #20
 8000640:	18fb      	adds	r3, r7, r3
 8000642:	0018      	movs	r0, r3
 8000644:	f000 f998 	bl	8000978 <_ZNSaI10TouchBoardEC1Ev>
 8000648:	2314      	movs	r3, #20
 800064a:	18fb      	adds	r3, r7, r3
 800064c:	001a      	movs	r2, r3
 800064e:	0029      	movs	r1, r5
 8000650:	0020      	movs	r0, r4
 8000652:	f000 f9ab 	bl	80009ac <_ZNSt6vectorI10TouchBoardSaIS0_EEC1EjRKS1_>
 8000656:	2314      	movs	r3, #20
 8000658:	18fb      	adds	r3, r7, r3
 800065a:	0018      	movs	r0, r3
 800065c:	f000 f999 	bl	8000992 <_ZNSaI10TouchBoardED1Ev>
 8000660:	68fb      	ldr	r3, [r7, #12]
 8000662:	492b      	ldr	r1, [pc, #172]	; (8000710 <_ZN15TouchBoardGroupC1EhhR17TIM_HandleTypeDefmR19__DMA_HandleTypeDef+0x118>)
 8000664:	185c      	adds	r4, r3, r1
 8000666:	19bb      	adds	r3, r7, r6
 8000668:	781d      	ldrb	r5, [r3, #0]
 800066a:	2318      	movs	r3, #24
 800066c:	18fb      	adds	r3, r7, r3
 800066e:	0018      	movs	r0, r3
 8000670:	f000 f9d5 	bl	8000a1e <_ZNSaI15TouchState_enumEC1Ev>
 8000674:	2318      	movs	r3, #24
 8000676:	18fb      	adds	r3, r7, r3
 8000678:	001a      	movs	r2, r3
 800067a:	0029      	movs	r1, r5
 800067c:	0020      	movs	r0, r4
 800067e:	f000 f9e8 	bl	8000a52 <_ZNSt6vectorI15TouchState_enumSaIS0_EEC1EjRKS1_>
 8000682:	2318      	movs	r3, #24
 8000684:	18fb      	adds	r3, r7, r3
 8000686:	0018      	movs	r0, r3
 8000688:	f000 f9d6 	bl	8000a38 <_ZNSaI15TouchState_enumED1Ev>
  numBoards = n;
 800068c:	68fb      	ldr	r3, [r7, #12]
 800068e:	19ba      	adds	r2, r7, r6
 8000690:	7812      	ldrb	r2, [r2, #0]
 8000692:	701a      	strb	r2, [r3, #0]
  numPixels = n*NUM_PIXELS_PER_BOARD;
 8000694:	19bb      	adds	r3, r7, r6
 8000696:	781b      	ldrb	r3, [r3, #0]
 8000698:	18db      	adds	r3, r3, r3
 800069a:	b2da      	uxtb	r2, r3
 800069c:	68fb      	ldr	r3, [r7, #12]
 800069e:	705a      	strb	r2, [r3, #1]
  myTouchKeyOffset = touchKeyOffset;
 80006a0:	68fb      	ldr	r3, [r7, #12]
 80006a2:	220a      	movs	r2, #10
 80006a4:	18ba      	adds	r2, r7, r2
 80006a6:	491b      	ldr	r1, [pc, #108]	; (8000714 <_ZN15TouchBoardGroupC1EhhR17TIM_HandleTypeDefmR19__DMA_HandleTypeDef+0x11c>)
 80006a8:	7812      	ldrb	r2, [r2, #0]
 80006aa:	545a      	strb	r2, [r3, r1]
  for (int i=0; i<numBoards; i++) {
 80006ac:	2300      	movs	r3, #0
 80006ae:	61fb      	str	r3, [r7, #28]
 80006b0:	68fb      	ldr	r3, [r7, #12]
 80006b2:	781b      	ldrb	r3, [r3, #0]
 80006b4:	001a      	movs	r2, r3
 80006b6:	69fb      	ldr	r3, [r7, #28]
 80006b8:	4293      	cmp	r3, r2
 80006ba:	da23      	bge.n	8000704 <_ZN15TouchBoardGroupC1EhhR17TIM_HandleTypeDefmR19__DMA_HandleTypeDef+0x10c>
    touchBoards[i].setTouchKeyOffset(myTouchKeyOffset + i);
 80006bc:	68fb      	ldr	r3, [r7, #12]
 80006be:	2295      	movs	r2, #149	; 0x95
 80006c0:	00d2      	lsls	r2, r2, #3
 80006c2:	4694      	mov	ip, r2
 80006c4:	4463      	add	r3, ip
 80006c6:	69fa      	ldr	r2, [r7, #28]
 80006c8:	0011      	movs	r1, r2
 80006ca:	0018      	movs	r0, r3
 80006cc:	f000 f9fa 	bl	8000ac4 <_ZNSt6vectorI10TouchBoardSaIS0_EEixEj>
 80006d0:	68fb      	ldr	r3, [r7, #12]
 80006d2:	4a10      	ldr	r2, [pc, #64]	; (8000714 <_ZN15TouchBoardGroupC1EhhR17TIM_HandleTypeDefmR19__DMA_HandleTypeDef+0x11c>)
 80006d4:	5c9a      	ldrb	r2, [r3, r2]
 80006d6:	69fb      	ldr	r3, [r7, #28]
 80006d8:	b2db      	uxtb	r3, r3
 80006da:	18d3      	adds	r3, r2, r3
 80006dc:	b2db      	uxtb	r3, r3
 80006de:	0019      	movs	r1, r3
 80006e0:	f7ff ff3c 	bl	800055c <_ZN10TouchBoard17setTouchKeyOffsetEh>
    touchStates[i] = NOT_TOUCHED;
 80006e4:	68fb      	ldr	r3, [r7, #12]
 80006e6:	4a0a      	ldr	r2, [pc, #40]	; (8000710 <_ZN15TouchBoardGroupC1EhhR17TIM_HandleTypeDefmR19__DMA_HandleTypeDef+0x118>)
 80006e8:	4694      	mov	ip, r2
 80006ea:	4463      	add	r3, ip
 80006ec:	69fa      	ldr	r2, [r7, #28]
 80006ee:	0011      	movs	r1, r2
 80006f0:	0018      	movs	r0, r3
 80006f2:	f000 f9f5 	bl	8000ae0 <_ZNSt6vectorI15TouchState_enumSaIS0_EEixEj>
 80006f6:	0003      	movs	r3, r0
 80006f8:	2201      	movs	r2, #1
 80006fa:	701a      	strb	r2, [r3, #0]
  for (int i=0; i<numBoards; i++) {
 80006fc:	69fb      	ldr	r3, [r7, #28]
 80006fe:	3301      	adds	r3, #1
 8000700:	61fb      	str	r3, [r7, #28]
 8000702:	e7d5      	b.n	80006b0 <_ZN15TouchBoardGroupC1EhhR17TIM_HandleTypeDefmR19__DMA_HandleTypeDef+0xb8>
  }
}
 8000704:	68fb      	ldr	r3, [r7, #12]
 8000706:	0018      	movs	r0, r3
 8000708:	46bd      	mov	sp, r7
 800070a:	b009      	add	sp, #36	; 0x24
 800070c:	bdf0      	pop	{r4, r5, r6, r7, pc}
 800070e:	46c0      	nop			; (mov r8, r8)
 8000710:	000004b4 	.word	0x000004b4
 8000714:	000004a5 	.word	0x000004a5

08000718 <_ZN15TouchBoardGroupD1Ev>:

TouchBoardGroup::~TouchBoardGroup() {
 8000718:	b580      	push	{r7, lr}
 800071a:	b082      	sub	sp, #8
 800071c:	af00      	add	r7, sp, #0
 800071e:	6078      	str	r0, [r7, #4]
 8000720:	687b      	ldr	r3, [r7, #4]
 8000722:	4a0c      	ldr	r2, [pc, #48]	; (8000754 <_ZN15TouchBoardGroupD1Ev+0x3c>)
 8000724:	4694      	mov	ip, r2
 8000726:	4463      	add	r3, ip
 8000728:	0018      	movs	r0, r3
 800072a:	f000 f9b0 	bl	8000a8e <_ZNSt6vectorI15TouchState_enumSaIS0_EED1Ev>
 800072e:	687b      	ldr	r3, [r7, #4]
 8000730:	2295      	movs	r2, #149	; 0x95
 8000732:	00d2      	lsls	r2, r2, #3
 8000734:	4694      	mov	ip, r2
 8000736:	4463      	add	r3, ip
 8000738:	0018      	movs	r0, r3
 800073a:	f000 f955 	bl	80009e8 <_ZNSt6vectorI10TouchBoardSaIS0_EED1Ev>
 800073e:	687b      	ldr	r3, [r7, #4]
 8000740:	3304      	adds	r3, #4
 8000742:	0018      	movs	r0, r3
 8000744:	f7ff fd9e 	bl	8000284 <_ZN8NeoPixelD1Ev>
}
 8000748:	687b      	ldr	r3, [r7, #4]
 800074a:	0018      	movs	r0, r3
 800074c:	46bd      	mov	sp, r7
 800074e:	b002      	add	sp, #8
 8000750:	bd80      	pop	{r7, pc}
 8000752:	46c0      	nop			; (mov r8, r8)
 8000754:	000004b4 	.word	0x000004b4

08000758 <_ZN15TouchBoardGroup16setAllPixelColorEhhh>:

void TouchBoardGroup::setPixelColor(uint8_t board_num, uint8_t pixel_ind, uint8_t r, uint8_t g, uint8_t b) {
  touchBoards[board_num].setPixelColor(pixel_ind, r, g, b);
}

void TouchBoardGroup::setAllPixelColor(uint8_t r, uint8_t g, uint8_t b) {
 8000758:	b590      	push	{r4, r7, lr}
 800075a:	b085      	sub	sp, #20
 800075c:	af00      	add	r7, sp, #0
 800075e:	6078      	str	r0, [r7, #4]
 8000760:	000c      	movs	r4, r1
 8000762:	0010      	movs	r0, r2
 8000764:	0019      	movs	r1, r3
 8000766:	1cfb      	adds	r3, r7, #3
 8000768:	1c22      	adds	r2, r4, #0
 800076a:	701a      	strb	r2, [r3, #0]
 800076c:	1cbb      	adds	r3, r7, #2
 800076e:	1c02      	adds	r2, r0, #0
 8000770:	701a      	strb	r2, [r3, #0]
 8000772:	1c7b      	adds	r3, r7, #1
 8000774:	1c0a      	adds	r2, r1, #0
 8000776:	701a      	strb	r2, [r3, #0]
  for (int i=0; i<numBoards; i++) {
 8000778:	2300      	movs	r3, #0
 800077a:	60fb      	str	r3, [r7, #12]
 800077c:	687b      	ldr	r3, [r7, #4]
 800077e:	781b      	ldrb	r3, [r3, #0]
 8000780:	001a      	movs	r2, r3
 8000782:	68fb      	ldr	r3, [r7, #12]
 8000784:	4293      	cmp	r3, r2
 8000786:	da18      	bge.n	80007ba <_ZN15TouchBoardGroup16setAllPixelColorEhhh+0x62>
    touchBoards[i].setAllPixelColor(r, g, b);
 8000788:	687b      	ldr	r3, [r7, #4]
 800078a:	2295      	movs	r2, #149	; 0x95
 800078c:	00d2      	lsls	r2, r2, #3
 800078e:	4694      	mov	ip, r2
 8000790:	4463      	add	r3, ip
 8000792:	68fa      	ldr	r2, [r7, #12]
 8000794:	0011      	movs	r1, r2
 8000796:	0018      	movs	r0, r3
 8000798:	f000 f994 	bl	8000ac4 <_ZNSt6vectorI10TouchBoardSaIS0_EEixEj>
 800079c:	0004      	movs	r4, r0
 800079e:	1c7b      	adds	r3, r7, #1
 80007a0:	7818      	ldrb	r0, [r3, #0]
 80007a2:	1cbb      	adds	r3, r7, #2
 80007a4:	781a      	ldrb	r2, [r3, #0]
 80007a6:	1cfb      	adds	r3, r7, #3
 80007a8:	7819      	ldrb	r1, [r3, #0]
 80007aa:	0003      	movs	r3, r0
 80007ac:	0020      	movs	r0, r4
 80007ae:	f7ff fe69 	bl	8000484 <_ZN10TouchBoard16setAllPixelColorEhhh>
  for (int i=0; i<numBoards; i++) {
 80007b2:	68fb      	ldr	r3, [r7, #12]
 80007b4:	3301      	adds	r3, #1
 80007b6:	60fb      	str	r3, [r7, #12]
 80007b8:	e7e0      	b.n	800077c <_ZN15TouchBoardGroup16setAllPixelColorEhhh+0x24>
  }
}
 80007ba:	46c0      	nop			; (mov r8, r8)
 80007bc:	46bd      	mov	sp, r7
 80007be:	b005      	add	sp, #20
 80007c0:	bd90      	pop	{r4, r7, pc}

080007c2 <_ZN15TouchBoardGroup13setBoardColorEhhhh>:

void TouchBoardGroup::setBoardColor(uint8_t board_num, uint8_t r, uint8_t g, uint8_t b) {
 80007c2:	b590      	push	{r4, r7, lr}
 80007c4:	b083      	sub	sp, #12
 80007c6:	af00      	add	r7, sp, #0
 80007c8:	6078      	str	r0, [r7, #4]
 80007ca:	000c      	movs	r4, r1
 80007cc:	0010      	movs	r0, r2
 80007ce:	0019      	movs	r1, r3
 80007d0:	1cfb      	adds	r3, r7, #3
 80007d2:	1c22      	adds	r2, r4, #0
 80007d4:	701a      	strb	r2, [r3, #0]
 80007d6:	1cbb      	adds	r3, r7, #2
 80007d8:	1c02      	adds	r2, r0, #0
 80007da:	701a      	strb	r2, [r3, #0]
 80007dc:	1c7b      	adds	r3, r7, #1
 80007de:	1c0a      	adds	r2, r1, #0
 80007e0:	701a      	strb	r2, [r3, #0]
  touchBoards[board_num].setAllPixelColor(r, g, b);
 80007e2:	687b      	ldr	r3, [r7, #4]
 80007e4:	2295      	movs	r2, #149	; 0x95
 80007e6:	00d2      	lsls	r2, r2, #3
 80007e8:	189a      	adds	r2, r3, r2
 80007ea:	1cfb      	adds	r3, r7, #3
 80007ec:	781b      	ldrb	r3, [r3, #0]
 80007ee:	0019      	movs	r1, r3
 80007f0:	0010      	movs	r0, r2
 80007f2:	f000 f967 	bl	8000ac4 <_ZNSt6vectorI10TouchBoardSaIS0_EEixEj>
 80007f6:	0004      	movs	r4, r0
 80007f8:	2318      	movs	r3, #24
 80007fa:	18fb      	adds	r3, r7, r3
 80007fc:	7818      	ldrb	r0, [r3, #0]
 80007fe:	1c7b      	adds	r3, r7, #1
 8000800:	781a      	ldrb	r2, [r3, #0]
 8000802:	1cbb      	adds	r3, r7, #2
 8000804:	7819      	ldrb	r1, [r3, #0]
 8000806:	0003      	movs	r3, r0
 8000808:	0020      	movs	r0, r4
 800080a:	f7ff fe3b 	bl	8000484 <_ZN10TouchBoard16setAllPixelColorEhhh>
}
 800080e:	46c0      	nop			; (mov r8, r8)
 8000810:	46bd      	mov	sp, r7
 8000812:	b003      	add	sp, #12
 8000814:	bd90      	pop	{r4, r7, pc}

08000816 <_ZN15TouchBoardGroup10showPixelsEv>:
  touchBoards[board_num].setAllPixelColor(255, 0, 0);
  showPixels();
  HAL_Delay(40);
}

void TouchBoardGroup::showPixels() {
 8000816:	b5b0      	push	{r4, r5, r7, lr}
 8000818:	b088      	sub	sp, #32
 800081a:	af02      	add	r7, sp, #8
 800081c:	6078      	str	r0, [r7, #4]
  for (int i=0; i<numBoards; i++) {
 800081e:	2300      	movs	r3, #0
 8000820:	617b      	str	r3, [r7, #20]
 8000822:	687b      	ldr	r3, [r7, #4]
 8000824:	781b      	ldrb	r3, [r3, #0]
 8000826:	001a      	movs	r2, r3
 8000828:	697b      	ldr	r3, [r7, #20]
 800082a:	4293      	cmp	r3, r2
 800082c:	da3e      	bge.n	80008ac <_ZN15TouchBoardGroup10showPixelsEv+0x96>
    for (int j=0; j<NUM_PIXELS_PER_BOARD; j++) {
 800082e:	2300      	movs	r3, #0
 8000830:	613b      	str	r3, [r7, #16]
 8000832:	693b      	ldr	r3, [r7, #16]
 8000834:	2b01      	cmp	r3, #1
 8000836:	dc35      	bgt.n	80008a4 <_ZN15TouchBoardGroup10showPixelsEv+0x8e>
      PixelColor_s tempColor = touchBoards[i].getPixelColor(j);
 8000838:	687b      	ldr	r3, [r7, #4]
 800083a:	2295      	movs	r2, #149	; 0x95
 800083c:	00d2      	lsls	r2, r2, #3
 800083e:	4694      	mov	ip, r2
 8000840:	4463      	add	r3, ip
 8000842:	697a      	ldr	r2, [r7, #20]
 8000844:	0011      	movs	r1, r2
 8000846:	0018      	movs	r0, r3
 8000848:	f000 f93c 	bl	8000ac4 <_ZNSt6vectorI10TouchBoardSaIS0_EEixEj>
 800084c:	0002      	movs	r2, r0
 800084e:	693b      	ldr	r3, [r7, #16]
 8000850:	b2db      	uxtb	r3, r3
 8000852:	0019      	movs	r1, r3
 8000854:	0010      	movs	r0, r2
 8000856:	f7ff fe4f 	bl	80004f8 <_ZN10TouchBoard13getPixelColorEh>
 800085a:	0003      	movs	r3, r0
 800085c:	001a      	movs	r2, r3
 800085e:	240c      	movs	r4, #12
 8000860:	193b      	adds	r3, r7, r4
 8000862:	1c11      	adds	r1, r2, #0
 8000864:	7019      	strb	r1, [r3, #0]
 8000866:	0411      	lsls	r1, r2, #16
 8000868:	0e09      	lsrs	r1, r1, #24
 800086a:	7059      	strb	r1, [r3, #1]
 800086c:	0212      	lsls	r2, r2, #8
 800086e:	0e12      	lsrs	r2, r2, #24
 8000870:	709a      	strb	r2, [r3, #2]
      ledArray.setPixelColor(i*NUM_PIXELS_PER_BOARD+j, tempColor.r, tempColor.g, tempColor.b);
 8000872:	687b      	ldr	r3, [r7, #4]
 8000874:	1d18      	adds	r0, r3, #4
 8000876:	697b      	ldr	r3, [r7, #20]
 8000878:	b29b      	uxth	r3, r3
 800087a:	18db      	adds	r3, r3, r3
 800087c:	b29a      	uxth	r2, r3
 800087e:	693b      	ldr	r3, [r7, #16]
 8000880:	b29b      	uxth	r3, r3
 8000882:	18d3      	adds	r3, r2, r3
 8000884:	b299      	uxth	r1, r3
 8000886:	193b      	adds	r3, r7, r4
 8000888:	781a      	ldrb	r2, [r3, #0]
 800088a:	0025      	movs	r5, r4
 800088c:	193b      	adds	r3, r7, r4
 800088e:	785c      	ldrb	r4, [r3, #1]
 8000890:	197b      	adds	r3, r7, r5
 8000892:	789b      	ldrb	r3, [r3, #2]
 8000894:	9300      	str	r3, [sp, #0]
 8000896:	0023      	movs	r3, r4
 8000898:	f7ff fd1d 	bl	80002d6 <_ZN8NeoPixel13setPixelColorEthhh>
    for (int j=0; j<NUM_PIXELS_PER_BOARD; j++) {
 800089c:	693b      	ldr	r3, [r7, #16]
 800089e:	3301      	adds	r3, #1
 80008a0:	613b      	str	r3, [r7, #16]
 80008a2:	e7c6      	b.n	8000832 <_ZN15TouchBoardGroup10showPixelsEv+0x1c>
  for (int i=0; i<numBoards; i++) {
 80008a4:	697b      	ldr	r3, [r7, #20]
 80008a6:	3301      	adds	r3, #1
 80008a8:	617b      	str	r3, [r7, #20]
 80008aa:	e7ba      	b.n	8000822 <_ZN15TouchBoardGroup10showPixelsEv+0xc>
    }
  }
  ledArray.show();
 80008ac:	687b      	ldr	r3, [r7, #4]
 80008ae:	3304      	adds	r3, #4
 80008b0:	0018      	movs	r0, r3
 80008b2:	f7ff fd49 	bl	8000348 <_ZN8NeoPixel4showEv>
}
 80008b6:	46c0      	nop			; (mov r8, r8)
 80008b8:	46bd      	mov	sp, r7
 80008ba:	b006      	add	sp, #24
 80008bc:	bdb0      	pop	{r4, r5, r7, pc}

080008be <_ZN15TouchBoardGroup17updateTouchStatesEv>:

PixelColor_s TouchBoardGroup::getPixelColor(uint8_t board_num, uint8_t pixel_ind) {
  return touchBoards[board_num].getPixelColor(pixel_ind);
}

void TouchBoardGroup::updateTouchStates() {
 80008be:	b580      	push	{r7, lr}
 80008c0:	b084      	sub	sp, #16
 80008c2:	af00      	add	r7, sp, #0
 80008c4:	6078      	str	r0, [r7, #4]
  for (int i=0; i<numBoards; i++) {
 80008c6:	2300      	movs	r3, #0
 80008c8:	60fb      	str	r3, [r7, #12]
 80008ca:	687b      	ldr	r3, [r7, #4]
 80008cc:	781b      	ldrb	r3, [r3, #0]
 80008ce:	001a      	movs	r2, r3
 80008d0:	68fb      	ldr	r3, [r7, #12]
 80008d2:	4293      	cmp	r3, r2
 80008d4:	da11      	bge.n	80008fa <_ZN15TouchBoardGroup17updateTouchStatesEv+0x3c>
    touchBoards[i].updateTouchState();
 80008d6:	687b      	ldr	r3, [r7, #4]
 80008d8:	2295      	movs	r2, #149	; 0x95
 80008da:	00d2      	lsls	r2, r2, #3
 80008dc:	4694      	mov	ip, r2
 80008de:	4463      	add	r3, ip
 80008e0:	68fa      	ldr	r2, [r7, #12]
 80008e2:	0011      	movs	r1, r2
 80008e4:	0018      	movs	r0, r3
 80008e6:	f000 f8ed 	bl	8000ac4 <_ZNSt6vectorI10TouchBoardSaIS0_EEixEj>
 80008ea:	0003      	movs	r3, r0
 80008ec:	0018      	movs	r0, r3
 80008ee:	f7ff fe45 	bl	800057c <_ZN10TouchBoard16updateTouchStateEv>
  for (int i=0; i<numBoards; i++) {
 80008f2:	68fb      	ldr	r3, [r7, #12]
 80008f4:	3301      	adds	r3, #1
 80008f6:	60fb      	str	r3, [r7, #12]
 80008f8:	e7e7      	b.n	80008ca <_ZN15TouchBoardGroup17updateTouchStatesEv+0xc>
  }
}
 80008fa:	46c0      	nop			; (mov r8, r8)
 80008fc:	46bd      	mov	sp, r7
 80008fe:	b004      	add	sp, #16
 8000900:	bd80      	pop	{r7, pc}
	...

08000904 <_ZN15TouchBoardGroup14getTouchStatesEv>:

std::vector<TouchState_enum> TouchBoardGroup::getTouchStates() {
 8000904:	b5b0      	push	{r4, r5, r7, lr}
 8000906:	b084      	sub	sp, #16
 8000908:	af00      	add	r7, sp, #0
 800090a:	6078      	str	r0, [r7, #4]
 800090c:	6039      	str	r1, [r7, #0]
  for (int i=0; i<numBoards; i++) {
 800090e:	2300      	movs	r3, #0
 8000910:	60fb      	str	r3, [r7, #12]
 8000912:	683b      	ldr	r3, [r7, #0]
 8000914:	781b      	ldrb	r3, [r3, #0]
 8000916:	001a      	movs	r2, r3
 8000918:	68fb      	ldr	r3, [r7, #12]
 800091a:	4293      	cmp	r3, r2
 800091c:	da1d      	bge.n	800095a <_ZN15TouchBoardGroup14getTouchStatesEv+0x56>
    touchStates[i] = touchBoards[i].getTouchState();
 800091e:	683b      	ldr	r3, [r7, #0]
 8000920:	2295      	movs	r2, #149	; 0x95
 8000922:	00d2      	lsls	r2, r2, #3
 8000924:	4694      	mov	ip, r2
 8000926:	4463      	add	r3, ip
 8000928:	68fa      	ldr	r2, [r7, #12]
 800092a:	0011      	movs	r1, r2
 800092c:	0018      	movs	r0, r3
 800092e:	f000 f8c9 	bl	8000ac4 <_ZNSt6vectorI10TouchBoardSaIS0_EEixEj>
 8000932:	0005      	movs	r5, r0
 8000934:	683b      	ldr	r3, [r7, #0]
 8000936:	4a0f      	ldr	r2, [pc, #60]	; (8000974 <_ZN15TouchBoardGroup14getTouchStatesEv+0x70>)
 8000938:	4694      	mov	ip, r2
 800093a:	4463      	add	r3, ip
 800093c:	68fa      	ldr	r2, [r7, #12]
 800093e:	0011      	movs	r1, r2
 8000940:	0018      	movs	r0, r3
 8000942:	f000 f8cd 	bl	8000ae0 <_ZNSt6vectorI15TouchState_enumSaIS0_EEixEj>
 8000946:	0004      	movs	r4, r0
 8000948:	0028      	movs	r0, r5
 800094a:	f7ff fe41 	bl	80005d0 <_ZN10TouchBoard13getTouchStateEv>
 800094e:	0003      	movs	r3, r0
 8000950:	7023      	strb	r3, [r4, #0]
  for (int i=0; i<numBoards; i++) {
 8000952:	68fb      	ldr	r3, [r7, #12]
 8000954:	3301      	adds	r3, #1
 8000956:	60fb      	str	r3, [r7, #12]
 8000958:	e7db      	b.n	8000912 <_ZN15TouchBoardGroup14getTouchStatesEv+0xe>
  }
  return touchStates;
 800095a:	683b      	ldr	r3, [r7, #0]
 800095c:	4a05      	ldr	r2, [pc, #20]	; (8000974 <_ZN15TouchBoardGroup14getTouchStatesEv+0x70>)
 800095e:	189a      	adds	r2, r3, r2
 8000960:	687b      	ldr	r3, [r7, #4]
 8000962:	0011      	movs	r1, r2
 8000964:	0018      	movs	r0, r3
 8000966:	f000 f8c8 	bl	8000afa <_ZNSt6vectorI15TouchState_enumSaIS0_EEC1ERKS2_>
}
 800096a:	6878      	ldr	r0, [r7, #4]
 800096c:	46bd      	mov	sp, r7
 800096e:	b004      	add	sp, #16
 8000970:	bdb0      	pop	{r4, r5, r7, pc}
 8000972:	46c0      	nop			; (mov r8, r8)
 8000974:	000004b4 	.word	0x000004b4

08000978 <_ZNSaI10TouchBoardEC1Ev>:
#endif

      // _GLIBCXX_RESOLVE_LIB_DEFECTS
      // 3035. std::allocator's constructors should be constexpr
      _GLIBCXX20_CONSTEXPR
      allocator() _GLIBCXX_NOTHROW { }
 8000978:	b580      	push	{r7, lr}
 800097a:	b082      	sub	sp, #8
 800097c:	af00      	add	r7, sp, #0
 800097e:	6078      	str	r0, [r7, #4]
 8000980:	687b      	ldr	r3, [r7, #4]
 8000982:	0018      	movs	r0, r3
 8000984:	f000 f8f7 	bl	8000b76 <_ZN9__gnu_cxx13new_allocatorI10TouchBoardEC1Ev>
 8000988:	687b      	ldr	r3, [r7, #4]
 800098a:	0018      	movs	r0, r3
 800098c:	46bd      	mov	sp, r7
 800098e:	b002      	add	sp, #8
 8000990:	bd80      	pop	{r7, pc}

08000992 <_ZNSaI10TouchBoardED1Ev>:

      template<typename _Tp1>
	_GLIBCXX20_CONSTEXPR
	allocator(const allocator<_Tp1>&) _GLIBCXX_NOTHROW { }

      ~allocator() _GLIBCXX_NOTHROW { }
 8000992:	b580      	push	{r7, lr}
 8000994:	b082      	sub	sp, #8
 8000996:	af00      	add	r7, sp, #0
 8000998:	6078      	str	r0, [r7, #4]
 800099a:	687b      	ldr	r3, [r7, #4]
 800099c:	0018      	movs	r0, r3
 800099e:	f000 f8f3 	bl	8000b88 <_ZN9__gnu_cxx13new_allocatorI10TouchBoardED1Ev>
 80009a2:	687b      	ldr	r3, [r7, #4]
 80009a4:	0018      	movs	r0, r3
 80009a6:	46bd      	mov	sp, r7
 80009a8:	b002      	add	sp, #8
 80009aa:	bd80      	pop	{r7, pc}

080009ac <_ZNSt6vectorI10TouchBoardSaIS0_EEC1EjRKS1_>:
       *
       *  This constructor fills the %vector with @a __n default
       *  constructed elements.
       */
      explicit
      vector(size_type __n, const allocator_type& __a = allocator_type())
 80009ac:	b590      	push	{r4, r7, lr}
 80009ae:	b085      	sub	sp, #20
 80009b0:	af00      	add	r7, sp, #0
 80009b2:	60f8      	str	r0, [r7, #12]
 80009b4:	60b9      	str	r1, [r7, #8]
 80009b6:	607a      	str	r2, [r7, #4]
      : _Base(_S_check_init_len(__n, __a), __a)
 80009b8:	68fc      	ldr	r4, [r7, #12]
 80009ba:	687a      	ldr	r2, [r7, #4]
 80009bc:	68bb      	ldr	r3, [r7, #8]
 80009be:	0011      	movs	r1, r2
 80009c0:	0018      	movs	r0, r3
 80009c2:	f000 f8eb 	bl	8000b9c <_ZNSt6vectorI10TouchBoardSaIS0_EE17_S_check_init_lenEjRKS1_>
 80009c6:	0001      	movs	r1, r0
 80009c8:	687b      	ldr	r3, [r7, #4]
 80009ca:	001a      	movs	r2, r3
 80009cc:	0020      	movs	r0, r4
 80009ce:	f000 f91a 	bl	8000c06 <_ZNSt12_Vector_baseI10TouchBoardSaIS0_EEC1EjRKS1_>
      { _M_default_initialize(__n); }
 80009d2:	68ba      	ldr	r2, [r7, #8]
 80009d4:	68fb      	ldr	r3, [r7, #12]
 80009d6:	0011      	movs	r1, r2
 80009d8:	0018      	movs	r0, r3
 80009da:	f000 f945 	bl	8000c68 <_ZNSt6vectorI10TouchBoardSaIS0_EE21_M_default_initializeEj>
 80009de:	68fb      	ldr	r3, [r7, #12]
 80009e0:	0018      	movs	r0, r3
 80009e2:	46bd      	mov	sp, r7
 80009e4:	b005      	add	sp, #20
 80009e6:	bd90      	pop	{r4, r7, pc}

080009e8 <_ZNSt6vectorI10TouchBoardSaIS0_EED1Ev>:
       *  The dtor only erases the elements, and note that if the
       *  elements themselves are pointers, the pointed-to memory is
       *  not touched in any way.  Managing the pointer is the user's
       *  responsibility.
       */
      ~vector() _GLIBCXX_NOEXCEPT
 80009e8:	b5b0      	push	{r4, r5, r7, lr}
 80009ea:	b082      	sub	sp, #8
 80009ec:	af00      	add	r7, sp, #0
 80009ee:	6078      	str	r0, [r7, #4]
      {
	std::_Destroy(this->_M_impl._M_start, this->_M_impl._M_finish,
 80009f0:	687b      	ldr	r3, [r7, #4]
 80009f2:	681c      	ldr	r4, [r3, #0]
 80009f4:	687b      	ldr	r3, [r7, #4]
 80009f6:	685d      	ldr	r5, [r3, #4]
		      _M_get_Tp_allocator());
 80009f8:	687b      	ldr	r3, [r7, #4]
 80009fa:	0018      	movs	r0, r3
 80009fc:	f000 f94c 	bl	8000c98 <_ZNSt12_Vector_baseI10TouchBoardSaIS0_EE19_M_get_Tp_allocatorEv>
 8000a00:	0003      	movs	r3, r0
	std::_Destroy(this->_M_impl._M_start, this->_M_impl._M_finish,
 8000a02:	001a      	movs	r2, r3
 8000a04:	0029      	movs	r1, r5
 8000a06:	0020      	movs	r0, r4
 8000a08:	f000 f94f 	bl	8000caa <_ZSt8_DestroyIP10TouchBoardS0_EvT_S2_RSaIT0_E>
	_GLIBCXX_ASAN_ANNOTATE_BEFORE_DEALLOC;
      }
 8000a0c:	687b      	ldr	r3, [r7, #4]
 8000a0e:	0018      	movs	r0, r3
 8000a10:	f000 f910 	bl	8000c34 <_ZNSt12_Vector_baseI10TouchBoardSaIS0_EED1Ev>
 8000a14:	687b      	ldr	r3, [r7, #4]
 8000a16:	0018      	movs	r0, r3
 8000a18:	46bd      	mov	sp, r7
 8000a1a:	b002      	add	sp, #8
 8000a1c:	bdb0      	pop	{r4, r5, r7, pc}

08000a1e <_ZNSaI15TouchState_enumEC1Ev>:
      allocator() _GLIBCXX_NOTHROW { }
 8000a1e:	b580      	push	{r7, lr}
 8000a20:	b082      	sub	sp, #8
 8000a22:	af00      	add	r7, sp, #0
 8000a24:	6078      	str	r0, [r7, #4]
 8000a26:	687b      	ldr	r3, [r7, #4]
 8000a28:	0018      	movs	r0, r3
 8000a2a:	f000 f94e 	bl	8000cca <_ZN9__gnu_cxx13new_allocatorI15TouchState_enumEC1Ev>
 8000a2e:	687b      	ldr	r3, [r7, #4]
 8000a30:	0018      	movs	r0, r3
 8000a32:	46bd      	mov	sp, r7
 8000a34:	b002      	add	sp, #8
 8000a36:	bd80      	pop	{r7, pc}

08000a38 <_ZNSaI15TouchState_enumED1Ev>:
      ~allocator() _GLIBCXX_NOTHROW { }
 8000a38:	b580      	push	{r7, lr}
 8000a3a:	b082      	sub	sp, #8
 8000a3c:	af00      	add	r7, sp, #0
 8000a3e:	6078      	str	r0, [r7, #4]
 8000a40:	687b      	ldr	r3, [r7, #4]
 8000a42:	0018      	movs	r0, r3
 8000a44:	f000 f94a 	bl	8000cdc <_ZN9__gnu_cxx13new_allocatorI15TouchState_enumED1Ev>
 8000a48:	687b      	ldr	r3, [r7, #4]
 8000a4a:	0018      	movs	r0, r3
 8000a4c:	46bd      	mov	sp, r7
 8000a4e:	b002      	add	sp, #8
 8000a50:	bd80      	pop	{r7, pc}

08000a52 <_ZNSt6vectorI15TouchState_enumSaIS0_EEC1EjRKS1_>:
      vector(size_type __n, const allocator_type& __a = allocator_type())
 8000a52:	b590      	push	{r4, r7, lr}
 8000a54:	b085      	sub	sp, #20
 8000a56:	af00      	add	r7, sp, #0
 8000a58:	60f8      	str	r0, [r7, #12]
 8000a5a:	60b9      	str	r1, [r7, #8]
 8000a5c:	607a      	str	r2, [r7, #4]
      : _Base(_S_check_init_len(__n, __a), __a)
 8000a5e:	68fc      	ldr	r4, [r7, #12]
 8000a60:	687a      	ldr	r2, [r7, #4]
 8000a62:	68bb      	ldr	r3, [r7, #8]
 8000a64:	0011      	movs	r1, r2
 8000a66:	0018      	movs	r0, r3
 8000a68:	f000 f942 	bl	8000cf0 <_ZNSt6vectorI15TouchState_enumSaIS0_EE17_S_check_init_lenEjRKS1_>
 8000a6c:	0001      	movs	r1, r0
 8000a6e:	687b      	ldr	r3, [r7, #4]
 8000a70:	001a      	movs	r2, r3
 8000a72:	0020      	movs	r0, r4
 8000a74:	f000 f971 	bl	8000d5a <_ZNSt12_Vector_baseI15TouchState_enumSaIS0_EEC1EjRKS1_>
      { _M_default_initialize(__n); }
 8000a78:	68ba      	ldr	r2, [r7, #8]
 8000a7a:	68fb      	ldr	r3, [r7, #12]
 8000a7c:	0011      	movs	r1, r2
 8000a7e:	0018      	movs	r0, r3
 8000a80:	f000 f99b 	bl	8000dba <_ZNSt6vectorI15TouchState_enumSaIS0_EE21_M_default_initializeEj>
 8000a84:	68fb      	ldr	r3, [r7, #12]
 8000a86:	0018      	movs	r0, r3
 8000a88:	46bd      	mov	sp, r7
 8000a8a:	b005      	add	sp, #20
 8000a8c:	bd90      	pop	{r4, r7, pc}

08000a8e <_ZNSt6vectorI15TouchState_enumSaIS0_EED1Ev>:
      ~vector() _GLIBCXX_NOEXCEPT
 8000a8e:	b5b0      	push	{r4, r5, r7, lr}
 8000a90:	b082      	sub	sp, #8
 8000a92:	af00      	add	r7, sp, #0
 8000a94:	6078      	str	r0, [r7, #4]
	std::_Destroy(this->_M_impl._M_start, this->_M_impl._M_finish,
 8000a96:	687b      	ldr	r3, [r7, #4]
 8000a98:	681c      	ldr	r4, [r3, #0]
 8000a9a:	687b      	ldr	r3, [r7, #4]
 8000a9c:	685d      	ldr	r5, [r3, #4]
		      _M_get_Tp_allocator());
 8000a9e:	687b      	ldr	r3, [r7, #4]
 8000aa0:	0018      	movs	r0, r3
 8000aa2:	f000 f9a2 	bl	8000dea <_ZNSt12_Vector_baseI15TouchState_enumSaIS0_EE19_M_get_Tp_allocatorEv>
 8000aa6:	0003      	movs	r3, r0
	std::_Destroy(this->_M_impl._M_start, this->_M_impl._M_finish,
 8000aa8:	001a      	movs	r2, r3
 8000aaa:	0029      	movs	r1, r5
 8000aac:	0020      	movs	r0, r4
 8000aae:	f000 f9a5 	bl	8000dfc <_ZSt8_DestroyIP15TouchState_enumS0_EvT_S2_RSaIT0_E>
      }
 8000ab2:	687b      	ldr	r3, [r7, #4]
 8000ab4:	0018      	movs	r0, r3
 8000ab6:	f000 f967 	bl	8000d88 <_ZNSt12_Vector_baseI15TouchState_enumSaIS0_EED1Ev>
 8000aba:	687b      	ldr	r3, [r7, #4]
 8000abc:	0018      	movs	r0, r3
 8000abe:	46bd      	mov	sp, r7
 8000ac0:	b002      	add	sp, #8
 8000ac2:	bdb0      	pop	{r4, r5, r7, pc}

08000ac4 <_ZNSt6vectorI10TouchBoardSaIS0_EEixEj>:
       *  Note that data access with this operator is unchecked and
       *  out_of_range lookups are not defined. (For checked lookups
       *  see at().)
       */
      reference
      operator[](size_type __n) _GLIBCXX_NOEXCEPT
 8000ac4:	b580      	push	{r7, lr}
 8000ac6:	b082      	sub	sp, #8
 8000ac8:	af00      	add	r7, sp, #0
 8000aca:	6078      	str	r0, [r7, #4]
 8000acc:	6039      	str	r1, [r7, #0]
      {
	__glibcxx_requires_subscript(__n);
	return *(this->_M_impl._M_start + __n);
 8000ace:	687b      	ldr	r3, [r7, #4]
 8000ad0:	681a      	ldr	r2, [r3, #0]
 8000ad2:	683b      	ldr	r3, [r7, #0]
 8000ad4:	00db      	lsls	r3, r3, #3
 8000ad6:	18d3      	adds	r3, r2, r3
      }
 8000ad8:	0018      	movs	r0, r3
 8000ada:	46bd      	mov	sp, r7
 8000adc:	b002      	add	sp, #8
 8000ade:	bd80      	pop	{r7, pc}

08000ae0 <_ZNSt6vectorI15TouchState_enumSaIS0_EEixEj>:
      operator[](size_type __n) _GLIBCXX_NOEXCEPT
 8000ae0:	b580      	push	{r7, lr}
 8000ae2:	b082      	sub	sp, #8
 8000ae4:	af00      	add	r7, sp, #0
 8000ae6:	6078      	str	r0, [r7, #4]
 8000ae8:	6039      	str	r1, [r7, #0]
	return *(this->_M_impl._M_start + __n);
 8000aea:	687b      	ldr	r3, [r7, #4]
 8000aec:	681a      	ldr	r2, [r3, #0]
 8000aee:	683b      	ldr	r3, [r7, #0]
 8000af0:	18d3      	adds	r3, r2, r3
      }
 8000af2:	0018      	movs	r0, r3
 8000af4:	46bd      	mov	sp, r7
 8000af6:	b002      	add	sp, #8
 8000af8:	bd80      	pop	{r7, pc}

08000afa <_ZNSt6vectorI15TouchState_enumSaIS0_EEC1ERKS2_>:
      vector(const vector& __x)
 8000afa:	b5f0      	push	{r4, r5, r6, r7, lr}
 8000afc:	b085      	sub	sp, #20
 8000afe:	af00      	add	r7, sp, #0
 8000b00:	6078      	str	r0, [r7, #4]
 8000b02:	6039      	str	r1, [r7, #0]
	_Alloc_traits::_S_select_on_copy(__x._M_get_Tp_allocator()))
 8000b04:	687c      	ldr	r4, [r7, #4]
 8000b06:	683b      	ldr	r3, [r7, #0]
 8000b08:	0018      	movs	r0, r3
 8000b0a:	f000 f987 	bl	8000e1c <_ZNKSt6vectorI15TouchState_enumSaIS0_EE4sizeEv>
 8000b0e:	0005      	movs	r5, r0
 8000b10:	683b      	ldr	r3, [r7, #0]
 8000b12:	0018      	movs	r0, r3
 8000b14:	f000 f99e 	bl	8000e54 <_ZNKSt12_Vector_baseI15TouchState_enumSaIS0_EE19_M_get_Tp_allocatorEv>
 8000b18:	0002      	movs	r2, r0
 8000b1a:	260c      	movs	r6, #12
 8000b1c:	19bb      	adds	r3, r7, r6
 8000b1e:	0011      	movs	r1, r2
 8000b20:	0018      	movs	r0, r3
 8000b22:	f000 f988 	bl	8000e36 <_ZN9__gnu_cxx14__alloc_traitsISaI15TouchState_enumES1_E17_S_select_on_copyERKS2_>
 8000b26:	19bb      	adds	r3, r7, r6
 8000b28:	001a      	movs	r2, r3
 8000b2a:	0029      	movs	r1, r5
 8000b2c:	0020      	movs	r0, r4
 8000b2e:	f000 f914 	bl	8000d5a <_ZNSt12_Vector_baseI15TouchState_enumSaIS0_EEC1EjRKS1_>
 8000b32:	19bb      	adds	r3, r7, r6
 8000b34:	0018      	movs	r0, r3
 8000b36:	f7ff ff7f 	bl	8000a38 <_ZNSaI15TouchState_enumED1Ev>
	  std::__uninitialized_copy_a(__x.begin(), __x.end(),
 8000b3a:	683b      	ldr	r3, [r7, #0]
 8000b3c:	0018      	movs	r0, r3
 8000b3e:	f000 f992 	bl	8000e66 <_ZNKSt6vectorI15TouchState_enumSaIS0_EE5beginEv>
 8000b42:	0005      	movs	r5, r0
 8000b44:	683b      	ldr	r3, [r7, #0]
 8000b46:	0018      	movs	r0, r3
 8000b48:	f000 f9a1 	bl	8000e8e <_ZNKSt6vectorI15TouchState_enumSaIS0_EE3endEv>
 8000b4c:	0006      	movs	r6, r0
 8000b4e:	687b      	ldr	r3, [r7, #4]
 8000b50:	681c      	ldr	r4, [r3, #0]
				      _M_get_Tp_allocator());
 8000b52:	687b      	ldr	r3, [r7, #4]
 8000b54:	0018      	movs	r0, r3
 8000b56:	f000 f948 	bl	8000dea <_ZNSt12_Vector_baseI15TouchState_enumSaIS0_EE19_M_get_Tp_allocatorEv>
 8000b5a:	0003      	movs	r3, r0
	  std::__uninitialized_copy_a(__x.begin(), __x.end(),
 8000b5c:	0022      	movs	r2, r4
 8000b5e:	0031      	movs	r1, r6
 8000b60:	0028      	movs	r0, r5
 8000b62:	f000 f9a8 	bl	8000eb6 <_ZSt22__uninitialized_copy_aIN9__gnu_cxx17__normal_iteratorIPK15TouchState_enumSt6vectorIS2_SaIS2_EEEEPS2_S2_ET0_T_SB_SA_RSaIT1_E>
 8000b66:	0002      	movs	r2, r0
	this->_M_impl._M_finish =
 8000b68:	687b      	ldr	r3, [r7, #4]
 8000b6a:	605a      	str	r2, [r3, #4]
      }
 8000b6c:	687b      	ldr	r3, [r7, #4]
 8000b6e:	0018      	movs	r0, r3
 8000b70:	46bd      	mov	sp, r7
 8000b72:	b005      	add	sp, #20
 8000b74:	bdf0      	pop	{r4, r5, r6, r7, pc}

08000b76 <_ZN9__gnu_cxx13new_allocatorI10TouchBoardEC1Ev>:
      // 2103. propagate_on_container_move_assignment
      typedef std::true_type propagate_on_container_move_assignment;
#endif

      _GLIBCXX20_CONSTEXPR
      new_allocator() _GLIBCXX_USE_NOEXCEPT { }
 8000b76:	b580      	push	{r7, lr}
 8000b78:	b082      	sub	sp, #8
 8000b7a:	af00      	add	r7, sp, #0
 8000b7c:	6078      	str	r0, [r7, #4]
 8000b7e:	687b      	ldr	r3, [r7, #4]
 8000b80:	0018      	movs	r0, r3
 8000b82:	46bd      	mov	sp, r7
 8000b84:	b002      	add	sp, #8
 8000b86:	bd80      	pop	{r7, pc}

08000b88 <_ZN9__gnu_cxx13new_allocatorI10TouchBoardED1Ev>:

      template<typename _Tp1>
	_GLIBCXX20_CONSTEXPR
	new_allocator(const new_allocator<_Tp1>&) _GLIBCXX_USE_NOEXCEPT { }

      ~new_allocator() _GLIBCXX_USE_NOEXCEPT { }
 8000b88:	b580      	push	{r7, lr}
 8000b8a:	b082      	sub	sp, #8
 8000b8c:	af00      	add	r7, sp, #0
 8000b8e:	6078      	str	r0, [r7, #4]
 8000b90:	687b      	ldr	r3, [r7, #4]
 8000b92:	0018      	movs	r0, r3
 8000b94:	46bd      	mov	sp, r7
 8000b96:	b002      	add	sp, #8
 8000b98:	bd80      	pop	{r7, pc}
	...

08000b9c <_ZNSt6vectorI10TouchBoardSaIS0_EE17_S_check_init_lenEjRKS1_>:
	return (__len < size() || __len > max_size()) ? max_size() : __len;
      }

      // Called by constructors to check initial size.
      static size_type
      _S_check_init_len(size_type __n, const allocator_type& __a)
 8000b9c:	b5b0      	push	{r4, r5, r7, lr}
 8000b9e:	b084      	sub	sp, #16
 8000ba0:	af00      	add	r7, sp, #0
 8000ba2:	6078      	str	r0, [r7, #4]
 8000ba4:	6039      	str	r1, [r7, #0]
      {
	if (__n > _S_max_size(_Tp_alloc_type(__a)))
 8000ba6:	683a      	ldr	r2, [r7, #0]
 8000ba8:	250c      	movs	r5, #12
 8000baa:	197b      	adds	r3, r7, r5
 8000bac:	0011      	movs	r1, r2
 8000bae:	0018      	movs	r0, r3
 8000bb0:	f000 f9b0 	bl	8000f14 <_ZNSaI10TouchBoardEC1ERKS0_>
 8000bb4:	197b      	adds	r3, r7, r5
 8000bb6:	0018      	movs	r0, r3
 8000bb8:	f000 f990 	bl	8000edc <_ZNSt6vectorI10TouchBoardSaIS0_EE11_S_max_sizeERKS1_>
 8000bbc:	0002      	movs	r2, r0
 8000bbe:	687b      	ldr	r3, [r7, #4]
 8000bc0:	429a      	cmp	r2, r3
 8000bc2:	419b      	sbcs	r3, r3
 8000bc4:	425b      	negs	r3, r3
 8000bc6:	b2dc      	uxtb	r4, r3
 8000bc8:	197b      	adds	r3, r7, r5
 8000bca:	0018      	movs	r0, r3
 8000bcc:	f7ff fee1 	bl	8000992 <_ZNSaI10TouchBoardED1Ev>
 8000bd0:	2c00      	cmp	r4, #0
 8000bd2:	d003      	beq.n	8000bdc <_ZNSt6vectorI10TouchBoardSaIS0_EE17_S_check_init_lenEjRKS1_+0x40>
	  __throw_length_error(
 8000bd4:	4b04      	ldr	r3, [pc, #16]	; (8000be8 <_ZNSt6vectorI10TouchBoardSaIS0_EE17_S_check_init_lenEjRKS1_+0x4c>)
 8000bd6:	0018      	movs	r0, r3
 8000bd8:	f004 fc13 	bl	8005402 <_ZSt20__throw_length_errorPKc>
	      __N("cannot create std::vector larger than max_size()"));
	return __n;
 8000bdc:	687b      	ldr	r3, [r7, #4]
      }
 8000bde:	0018      	movs	r0, r3
 8000be0:	46bd      	mov	sp, r7
 8000be2:	b004      	add	sp, #16
 8000be4:	bdb0      	pop	{r4, r5, r7, pc}
 8000be6:	46c0      	nop			; (mov r8, r8)
 8000be8:	0800572c 	.word	0x0800572c

08000bec <_ZNSt12_Vector_baseI10TouchBoardSaIS0_EE12_Vector_implD1Ev>:
      struct _Vector_impl
 8000bec:	b580      	push	{r7, lr}
 8000bee:	b082      	sub	sp, #8
 8000bf0:	af00      	add	r7, sp, #0
 8000bf2:	6078      	str	r0, [r7, #4]
 8000bf4:	687b      	ldr	r3, [r7, #4]
 8000bf6:	0018      	movs	r0, r3
 8000bf8:	f7ff fecb 	bl	8000992 <_ZNSaI10TouchBoardED1Ev>
 8000bfc:	687b      	ldr	r3, [r7, #4]
 8000bfe:	0018      	movs	r0, r3
 8000c00:	46bd      	mov	sp, r7
 8000c02:	b002      	add	sp, #8
 8000c04:	bd80      	pop	{r7, pc}

08000c06 <_ZNSt12_Vector_baseI10TouchBoardSaIS0_EEC1EjRKS1_>:
      _Vector_base(size_t __n, const allocator_type& __a)
 8000c06:	b580      	push	{r7, lr}
 8000c08:	b084      	sub	sp, #16
 8000c0a:	af00      	add	r7, sp, #0
 8000c0c:	60f8      	str	r0, [r7, #12]
 8000c0e:	60b9      	str	r1, [r7, #8]
 8000c10:	607a      	str	r2, [r7, #4]
      : _M_impl(__a)
 8000c12:	68fb      	ldr	r3, [r7, #12]
 8000c14:	687a      	ldr	r2, [r7, #4]
 8000c16:	0011      	movs	r1, r2
 8000c18:	0018      	movs	r0, r3
 8000c1a:	f000 f98b 	bl	8000f34 <_ZNSt12_Vector_baseI10TouchBoardSaIS0_EE12_Vector_implC1ERKS1_>
      { _M_create_storage(__n); }
 8000c1e:	68ba      	ldr	r2, [r7, #8]
 8000c20:	68fb      	ldr	r3, [r7, #12]
 8000c22:	0011      	movs	r1, r2
 8000c24:	0018      	movs	r0, r3
 8000c26:	f000 f999 	bl	8000f5c <_ZNSt12_Vector_baseI10TouchBoardSaIS0_EE17_M_create_storageEj>
 8000c2a:	68fb      	ldr	r3, [r7, #12]
 8000c2c:	0018      	movs	r0, r3
 8000c2e:	46bd      	mov	sp, r7
 8000c30:	b004      	add	sp, #16
 8000c32:	bd80      	pop	{r7, pc}

08000c34 <_ZNSt12_Vector_baseI10TouchBoardSaIS0_EED1Ev>:
      ~_Vector_base() _GLIBCXX_NOEXCEPT
 8000c34:	b580      	push	{r7, lr}
 8000c36:	b082      	sub	sp, #8
 8000c38:	af00      	add	r7, sp, #0
 8000c3a:	6078      	str	r0, [r7, #4]
	_M_deallocate(_M_impl._M_start,
 8000c3c:	687b      	ldr	r3, [r7, #4]
 8000c3e:	6819      	ldr	r1, [r3, #0]
		      _M_impl._M_end_of_storage - _M_impl._M_start);
 8000c40:	687b      	ldr	r3, [r7, #4]
 8000c42:	689a      	ldr	r2, [r3, #8]
 8000c44:	687b      	ldr	r3, [r7, #4]
 8000c46:	681b      	ldr	r3, [r3, #0]
 8000c48:	1ad3      	subs	r3, r2, r3
 8000c4a:	10db      	asrs	r3, r3, #3
	_M_deallocate(_M_impl._M_start,
 8000c4c:	001a      	movs	r2, r3
 8000c4e:	687b      	ldr	r3, [r7, #4]
 8000c50:	0018      	movs	r0, r3
 8000c52:	f000 f9a0 	bl	8000f96 <_ZNSt12_Vector_baseI10TouchBoardSaIS0_EE13_M_deallocateEPS0_j>
      }
 8000c56:	687b      	ldr	r3, [r7, #4]
 8000c58:	0018      	movs	r0, r3
 8000c5a:	f7ff ffc7 	bl	8000bec <_ZNSt12_Vector_baseI10TouchBoardSaIS0_EE12_Vector_implD1Ev>
 8000c5e:	687b      	ldr	r3, [r7, #4]
 8000c60:	0018      	movs	r0, r3
 8000c62:	46bd      	mov	sp, r7
 8000c64:	b002      	add	sp, #8
 8000c66:	bd80      	pop	{r7, pc}

08000c68 <_ZNSt6vectorI10TouchBoardSaIS0_EE21_M_default_initializeEj>:
      _M_default_initialize(size_type __n)
 8000c68:	b590      	push	{r4, r7, lr}
 8000c6a:	b083      	sub	sp, #12
 8000c6c:	af00      	add	r7, sp, #0
 8000c6e:	6078      	str	r0, [r7, #4]
 8000c70:	6039      	str	r1, [r7, #0]
	  std::__uninitialized_default_n_a(this->_M_impl._M_start, __n,
 8000c72:	687b      	ldr	r3, [r7, #4]
 8000c74:	681c      	ldr	r4, [r3, #0]
					   _M_get_Tp_allocator());
 8000c76:	687b      	ldr	r3, [r7, #4]
 8000c78:	0018      	movs	r0, r3
 8000c7a:	f000 f80d 	bl	8000c98 <_ZNSt12_Vector_baseI10TouchBoardSaIS0_EE19_M_get_Tp_allocatorEv>
 8000c7e:	0002      	movs	r2, r0
	  std::__uninitialized_default_n_a(this->_M_impl._M_start, __n,
 8000c80:	683b      	ldr	r3, [r7, #0]
 8000c82:	0019      	movs	r1, r3
 8000c84:	0020      	movs	r0, r4
 8000c86:	f000 f999 	bl	8000fbc <_ZSt27__uninitialized_default_n_aIP10TouchBoardjS0_ET_S2_T0_RSaIT1_E>
 8000c8a:	0002      	movs	r2, r0
	this->_M_impl._M_finish =
 8000c8c:	687b      	ldr	r3, [r7, #4]
 8000c8e:	605a      	str	r2, [r3, #4]
      }
 8000c90:	46c0      	nop			; (mov r8, r8)
 8000c92:	46bd      	mov	sp, r7
 8000c94:	b003      	add	sp, #12
 8000c96:	bd90      	pop	{r4, r7, pc}

08000c98 <_ZNSt12_Vector_baseI10TouchBoardSaIS0_EE19_M_get_Tp_allocatorEv>:
      _M_get_Tp_allocator() _GLIBCXX_NOEXCEPT
 8000c98:	b580      	push	{r7, lr}
 8000c9a:	b082      	sub	sp, #8
 8000c9c:	af00      	add	r7, sp, #0
 8000c9e:	6078      	str	r0, [r7, #4]
      { return this->_M_impl; }
 8000ca0:	687b      	ldr	r3, [r7, #4]
 8000ca2:	0018      	movs	r0, r3
 8000ca4:	46bd      	mov	sp, r7
 8000ca6:	b002      	add	sp, #8
 8000ca8:	bd80      	pop	{r7, pc}

08000caa <_ZSt8_DestroyIP10TouchBoardS0_EvT_S2_RSaIT0_E>:
	__traits::destroy(__alloc, std::__addressof(*__first));
    }

  template<typename _ForwardIterator, typename _Tp>
    inline void
    _Destroy(_ForwardIterator __first, _ForwardIterator __last,
 8000caa:	b580      	push	{r7, lr}
 8000cac:	b084      	sub	sp, #16
 8000cae:	af00      	add	r7, sp, #0
 8000cb0:	60f8      	str	r0, [r7, #12]
 8000cb2:	60b9      	str	r1, [r7, #8]
 8000cb4:	607a      	str	r2, [r7, #4]
	     allocator<_Tp>&)
    {
      _Destroy(__first, __last);
 8000cb6:	68ba      	ldr	r2, [r7, #8]
 8000cb8:	68fb      	ldr	r3, [r7, #12]
 8000cba:	0011      	movs	r1, r2
 8000cbc:	0018      	movs	r0, r3
 8000cbe:	f000 f98e 	bl	8000fde <_ZSt8_DestroyIP10TouchBoardEvT_S2_>
    }
 8000cc2:	46c0      	nop			; (mov r8, r8)
 8000cc4:	46bd      	mov	sp, r7
 8000cc6:	b004      	add	sp, #16
 8000cc8:	bd80      	pop	{r7, pc}

08000cca <_ZN9__gnu_cxx13new_allocatorI15TouchState_enumEC1Ev>:
      new_allocator() _GLIBCXX_USE_NOEXCEPT { }
 8000cca:	b580      	push	{r7, lr}
 8000ccc:	b082      	sub	sp, #8
 8000cce:	af00      	add	r7, sp, #0
 8000cd0:	6078      	str	r0, [r7, #4]
 8000cd2:	687b      	ldr	r3, [r7, #4]
 8000cd4:	0018      	movs	r0, r3
 8000cd6:	46bd      	mov	sp, r7
 8000cd8:	b002      	add	sp, #8
 8000cda:	bd80      	pop	{r7, pc}

08000cdc <_ZN9__gnu_cxx13new_allocatorI15TouchState_enumED1Ev>:
      ~new_allocator() _GLIBCXX_USE_NOEXCEPT { }
 8000cdc:	b580      	push	{r7, lr}
 8000cde:	b082      	sub	sp, #8
 8000ce0:	af00      	add	r7, sp, #0
 8000ce2:	6078      	str	r0, [r7, #4]
 8000ce4:	687b      	ldr	r3, [r7, #4]
 8000ce6:	0018      	movs	r0, r3
 8000ce8:	46bd      	mov	sp, r7
 8000cea:	b002      	add	sp, #8
 8000cec:	bd80      	pop	{r7, pc}
	...

08000cf0 <_ZNSt6vectorI15TouchState_enumSaIS0_EE17_S_check_init_lenEjRKS1_>:
      _S_check_init_len(size_type __n, const allocator_type& __a)
 8000cf0:	b5b0      	push	{r4, r5, r7, lr}
 8000cf2:	b084      	sub	sp, #16
 8000cf4:	af00      	add	r7, sp, #0
 8000cf6:	6078      	str	r0, [r7, #4]
 8000cf8:	6039      	str	r1, [r7, #0]
	if (__n > _S_max_size(_Tp_alloc_type(__a)))
 8000cfa:	683a      	ldr	r2, [r7, #0]
 8000cfc:	250c      	movs	r5, #12
 8000cfe:	197b      	adds	r3, r7, r5
 8000d00:	0011      	movs	r1, r2
 8000d02:	0018      	movs	r0, r3
 8000d04:	f000 f996 	bl	8001034 <_ZNSaI15TouchState_enumEC1ERKS0_>
 8000d08:	197b      	adds	r3, r7, r5
 8000d0a:	0018      	movs	r0, r3
 8000d0c:	f000 f976 	bl	8000ffc <_ZNSt6vectorI15TouchState_enumSaIS0_EE11_S_max_sizeERKS1_>
 8000d10:	0002      	movs	r2, r0
 8000d12:	687b      	ldr	r3, [r7, #4]
 8000d14:	429a      	cmp	r2, r3
 8000d16:	419b      	sbcs	r3, r3
 8000d18:	425b      	negs	r3, r3
 8000d1a:	b2dc      	uxtb	r4, r3
 8000d1c:	197b      	adds	r3, r7, r5
 8000d1e:	0018      	movs	r0, r3
 8000d20:	f7ff fe8a 	bl	8000a38 <_ZNSaI15TouchState_enumED1Ev>
 8000d24:	2c00      	cmp	r4, #0
 8000d26:	d003      	beq.n	8000d30 <_ZNSt6vectorI15TouchState_enumSaIS0_EE17_S_check_init_lenEjRKS1_+0x40>
	  __throw_length_error(
 8000d28:	4b04      	ldr	r3, [pc, #16]	; (8000d3c <_ZNSt6vectorI15TouchState_enumSaIS0_EE17_S_check_init_lenEjRKS1_+0x4c>)
 8000d2a:	0018      	movs	r0, r3
 8000d2c:	f004 fb69 	bl	8005402 <_ZSt20__throw_length_errorPKc>
	return __n;
 8000d30:	687b      	ldr	r3, [r7, #4]
      }
 8000d32:	0018      	movs	r0, r3
 8000d34:	46bd      	mov	sp, r7
 8000d36:	b004      	add	sp, #16
 8000d38:	bdb0      	pop	{r4, r5, r7, pc}
 8000d3a:	46c0      	nop			; (mov r8, r8)
 8000d3c:	0800572c 	.word	0x0800572c

08000d40 <_ZNSt12_Vector_baseI15TouchState_enumSaIS0_EE12_Vector_implD1Ev>:
      struct _Vector_impl
 8000d40:	b580      	push	{r7, lr}
 8000d42:	b082      	sub	sp, #8
 8000d44:	af00      	add	r7, sp, #0
 8000d46:	6078      	str	r0, [r7, #4]
 8000d48:	687b      	ldr	r3, [r7, #4]
 8000d4a:	0018      	movs	r0, r3
 8000d4c:	f7ff fe74 	bl	8000a38 <_ZNSaI15TouchState_enumED1Ev>
 8000d50:	687b      	ldr	r3, [r7, #4]
 8000d52:	0018      	movs	r0, r3
 8000d54:	46bd      	mov	sp, r7
 8000d56:	b002      	add	sp, #8
 8000d58:	bd80      	pop	{r7, pc}

08000d5a <_ZNSt12_Vector_baseI15TouchState_enumSaIS0_EEC1EjRKS1_>:
      _Vector_base(size_t __n, const allocator_type& __a)
 8000d5a:	b580      	push	{r7, lr}
 8000d5c:	b084      	sub	sp, #16
 8000d5e:	af00      	add	r7, sp, #0
 8000d60:	60f8      	str	r0, [r7, #12]
 8000d62:	60b9      	str	r1, [r7, #8]
 8000d64:	607a      	str	r2, [r7, #4]
      : _M_impl(__a)
 8000d66:	68fb      	ldr	r3, [r7, #12]
 8000d68:	687a      	ldr	r2, [r7, #4]
 8000d6a:	0011      	movs	r1, r2
 8000d6c:	0018      	movs	r0, r3
 8000d6e:	f000 f971 	bl	8001054 <_ZNSt12_Vector_baseI15TouchState_enumSaIS0_EE12_Vector_implC1ERKS1_>
      { _M_create_storage(__n); }
 8000d72:	68ba      	ldr	r2, [r7, #8]
 8000d74:	68fb      	ldr	r3, [r7, #12]
 8000d76:	0011      	movs	r1, r2
 8000d78:	0018      	movs	r0, r3
 8000d7a:	f000 f97f 	bl	800107c <_ZNSt12_Vector_baseI15TouchState_enumSaIS0_EE17_M_create_storageEj>
 8000d7e:	68fb      	ldr	r3, [r7, #12]
 8000d80:	0018      	movs	r0, r3
 8000d82:	46bd      	mov	sp, r7
 8000d84:	b004      	add	sp, #16
 8000d86:	bd80      	pop	{r7, pc}

08000d88 <_ZNSt12_Vector_baseI15TouchState_enumSaIS0_EED1Ev>:
      ~_Vector_base() _GLIBCXX_NOEXCEPT
 8000d88:	b580      	push	{r7, lr}
 8000d8a:	b082      	sub	sp, #8
 8000d8c:	af00      	add	r7, sp, #0
 8000d8e:	6078      	str	r0, [r7, #4]
	_M_deallocate(_M_impl._M_start,
 8000d90:	687b      	ldr	r3, [r7, #4]
 8000d92:	6819      	ldr	r1, [r3, #0]
		      _M_impl._M_end_of_storage - _M_impl._M_start);
 8000d94:	687b      	ldr	r3, [r7, #4]
 8000d96:	689a      	ldr	r2, [r3, #8]
 8000d98:	687b      	ldr	r3, [r7, #4]
 8000d9a:	681b      	ldr	r3, [r3, #0]
 8000d9c:	1ad3      	subs	r3, r2, r3
	_M_deallocate(_M_impl._M_start,
 8000d9e:	001a      	movs	r2, r3
 8000da0:	687b      	ldr	r3, [r7, #4]
 8000da2:	0018      	movs	r0, r3
 8000da4:	f000 f986 	bl	80010b4 <_ZNSt12_Vector_baseI15TouchState_enumSaIS0_EE13_M_deallocateEPS0_j>
      }
 8000da8:	687b      	ldr	r3, [r7, #4]
 8000daa:	0018      	movs	r0, r3
 8000dac:	f7ff ffc8 	bl	8000d40 <_ZNSt12_Vector_baseI15TouchState_enumSaIS0_EE12_Vector_implD1Ev>
 8000db0:	687b      	ldr	r3, [r7, #4]
 8000db2:	0018      	movs	r0, r3
 8000db4:	46bd      	mov	sp, r7
 8000db6:	b002      	add	sp, #8
 8000db8:	bd80      	pop	{r7, pc}

08000dba <_ZNSt6vectorI15TouchState_enumSaIS0_EE21_M_default_initializeEj>:
      _M_default_initialize(size_type __n)
 8000dba:	b590      	push	{r4, r7, lr}
 8000dbc:	b083      	sub	sp, #12
 8000dbe:	af00      	add	r7, sp, #0
 8000dc0:	6078      	str	r0, [r7, #4]
 8000dc2:	6039      	str	r1, [r7, #0]
	  std::__uninitialized_default_n_a(this->_M_impl._M_start, __n,
 8000dc4:	687b      	ldr	r3, [r7, #4]
 8000dc6:	681c      	ldr	r4, [r3, #0]
					   _M_get_Tp_allocator());
 8000dc8:	687b      	ldr	r3, [r7, #4]
 8000dca:	0018      	movs	r0, r3
 8000dcc:	f000 f80d 	bl	8000dea <_ZNSt12_Vector_baseI15TouchState_enumSaIS0_EE19_M_get_Tp_allocatorEv>
 8000dd0:	0002      	movs	r2, r0
	  std::__uninitialized_default_n_a(this->_M_impl._M_start, __n,
 8000dd2:	683b      	ldr	r3, [r7, #0]
 8000dd4:	0019      	movs	r1, r3
 8000dd6:	0020      	movs	r0, r4
 8000dd8:	f000 f97f 	bl	80010da <_ZSt27__uninitialized_default_n_aIP15TouchState_enumjS0_ET_S2_T0_RSaIT1_E>
 8000ddc:	0002      	movs	r2, r0
	this->_M_impl._M_finish =
 8000dde:	687b      	ldr	r3, [r7, #4]
 8000de0:	605a      	str	r2, [r3, #4]
      }
 8000de2:	46c0      	nop			; (mov r8, r8)
 8000de4:	46bd      	mov	sp, r7
 8000de6:	b003      	add	sp, #12
 8000de8:	bd90      	pop	{r4, r7, pc}

08000dea <_ZNSt12_Vector_baseI15TouchState_enumSaIS0_EE19_M_get_Tp_allocatorEv>:
      _M_get_Tp_allocator() _GLIBCXX_NOEXCEPT
 8000dea:	b580      	push	{r7, lr}
 8000dec:	b082      	sub	sp, #8
 8000dee:	af00      	add	r7, sp, #0
 8000df0:	6078      	str	r0, [r7, #4]
      { return this->_M_impl; }
 8000df2:	687b      	ldr	r3, [r7, #4]
 8000df4:	0018      	movs	r0, r3
 8000df6:	46bd      	mov	sp, r7
 8000df8:	b002      	add	sp, #8
 8000dfa:	bd80      	pop	{r7, pc}

08000dfc <_ZSt8_DestroyIP15TouchState_enumS0_EvT_S2_RSaIT0_E>:
    _Destroy(_ForwardIterator __first, _ForwardIterator __last,
 8000dfc:	b580      	push	{r7, lr}
 8000dfe:	b084      	sub	sp, #16
 8000e00:	af00      	add	r7, sp, #0
 8000e02:	60f8      	str	r0, [r7, #12]
 8000e04:	60b9      	str	r1, [r7, #8]
 8000e06:	607a      	str	r2, [r7, #4]
      _Destroy(__first, __last);
 8000e08:	68ba      	ldr	r2, [r7, #8]
 8000e0a:	68fb      	ldr	r3, [r7, #12]
 8000e0c:	0011      	movs	r1, r2
 8000e0e:	0018      	movs	r0, r3
 8000e10:	f000 f974 	bl	80010fc <_ZSt8_DestroyIP15TouchState_enumEvT_S2_>
    }
 8000e14:	46c0      	nop			; (mov r8, r8)
 8000e16:	46bd      	mov	sp, r7
 8000e18:	b004      	add	sp, #16
 8000e1a:	bd80      	pop	{r7, pc}

08000e1c <_ZNKSt6vectorI15TouchState_enumSaIS0_EE4sizeEv>:
      size() const _GLIBCXX_NOEXCEPT
 8000e1c:	b580      	push	{r7, lr}
 8000e1e:	b082      	sub	sp, #8
 8000e20:	af00      	add	r7, sp, #0
 8000e22:	6078      	str	r0, [r7, #4]
      { return size_type(this->_M_impl._M_finish - this->_M_impl._M_start); }
 8000e24:	687b      	ldr	r3, [r7, #4]
 8000e26:	685a      	ldr	r2, [r3, #4]
 8000e28:	687b      	ldr	r3, [r7, #4]
 8000e2a:	681b      	ldr	r3, [r3, #0]
 8000e2c:	1ad3      	subs	r3, r2, r3
 8000e2e:	0018      	movs	r0, r3
 8000e30:	46bd      	mov	sp, r7
 8000e32:	b002      	add	sp, #8
 8000e34:	bd80      	pop	{r7, pc}

08000e36 <_ZN9__gnu_cxx14__alloc_traitsISaI15TouchState_enumES1_E17_S_select_on_copyERKS2_>:
      static typename std::enable_if<__is_custom_pointer<_Ptr>::value>::type
      destroy(_Alloc& __a, _Ptr __p)
      noexcept(noexcept(_Base_type::destroy(__a, std::__to_address(__p))))
      { _Base_type::destroy(__a, std::__to_address(__p)); }

    static _Alloc _S_select_on_copy(const _Alloc& __a)
 8000e36:	b580      	push	{r7, lr}
 8000e38:	b082      	sub	sp, #8
 8000e3a:	af00      	add	r7, sp, #0
 8000e3c:	6078      	str	r0, [r7, #4]
 8000e3e:	6039      	str	r1, [r7, #0]
    { return _Base_type::select_on_container_copy_construction(__a); }
 8000e40:	687b      	ldr	r3, [r7, #4]
 8000e42:	683a      	ldr	r2, [r7, #0]
 8000e44:	0011      	movs	r1, r2
 8000e46:	0018      	movs	r0, r3
 8000e48:	f000 f967 	bl	800111a <_ZNSt16allocator_traitsISaI15TouchState_enumEE37select_on_container_copy_constructionERKS1_>
 8000e4c:	6878      	ldr	r0, [r7, #4]
 8000e4e:	46bd      	mov	sp, r7
 8000e50:	b002      	add	sp, #8
 8000e52:	bd80      	pop	{r7, pc}

08000e54 <_ZNKSt12_Vector_baseI15TouchState_enumSaIS0_EE19_M_get_Tp_allocatorEv>:
      _M_get_Tp_allocator() const _GLIBCXX_NOEXCEPT
 8000e54:	b580      	push	{r7, lr}
 8000e56:	b082      	sub	sp, #8
 8000e58:	af00      	add	r7, sp, #0
 8000e5a:	6078      	str	r0, [r7, #4]
      { return this->_M_impl; }
 8000e5c:	687b      	ldr	r3, [r7, #4]
 8000e5e:	0018      	movs	r0, r3
 8000e60:	46bd      	mov	sp, r7
 8000e62:	b002      	add	sp, #8
 8000e64:	bd80      	pop	{r7, pc}

08000e66 <_ZNKSt6vectorI15TouchState_enumSaIS0_EE5beginEv>:
      begin() const _GLIBCXX_NOEXCEPT
 8000e66:	b580      	push	{r7, lr}
 8000e68:	b084      	sub	sp, #16
 8000e6a:	af00      	add	r7, sp, #0
 8000e6c:	6078      	str	r0, [r7, #4]
      { return const_iterator(this->_M_impl._M_start); }
 8000e6e:	687b      	ldr	r3, [r7, #4]
 8000e70:	681b      	ldr	r3, [r3, #0]
 8000e72:	60fb      	str	r3, [r7, #12]
 8000e74:	230c      	movs	r3, #12
 8000e76:	18fa      	adds	r2, r7, r3
 8000e78:	2308      	movs	r3, #8
 8000e7a:	18fb      	adds	r3, r7, r3
 8000e7c:	0011      	movs	r1, r2
 8000e7e:	0018      	movs	r0, r3
 8000e80:	f000 f95a 	bl	8001138 <_ZN9__gnu_cxx17__normal_iteratorIPK15TouchState_enumSt6vectorIS1_SaIS1_EEEC1ERKS3_>
 8000e84:	68bb      	ldr	r3, [r7, #8]
 8000e86:	0018      	movs	r0, r3
 8000e88:	46bd      	mov	sp, r7
 8000e8a:	b004      	add	sp, #16
 8000e8c:	bd80      	pop	{r7, pc}

08000e8e <_ZNKSt6vectorI15TouchState_enumSaIS0_EE3endEv>:
      end() const _GLIBCXX_NOEXCEPT
 8000e8e:	b580      	push	{r7, lr}
 8000e90:	b084      	sub	sp, #16
 8000e92:	af00      	add	r7, sp, #0
 8000e94:	6078      	str	r0, [r7, #4]
      { return const_iterator(this->_M_impl._M_finish); }
 8000e96:	687b      	ldr	r3, [r7, #4]
 8000e98:	685b      	ldr	r3, [r3, #4]
 8000e9a:	60fb      	str	r3, [r7, #12]
 8000e9c:	230c      	movs	r3, #12
 8000e9e:	18fa      	adds	r2, r7, r3
 8000ea0:	2308      	movs	r3, #8
 8000ea2:	18fb      	adds	r3, r7, r3
 8000ea4:	0011      	movs	r1, r2
 8000ea6:	0018      	movs	r0, r3
 8000ea8:	f000 f946 	bl	8001138 <_ZN9__gnu_cxx17__normal_iteratorIPK15TouchState_enumSt6vectorIS1_SaIS1_EEEC1ERKS3_>
 8000eac:	68bb      	ldr	r3, [r7, #8]
 8000eae:	0018      	movs	r0, r3
 8000eb0:	46bd      	mov	sp, r7
 8000eb2:	b004      	add	sp, #16
 8000eb4:	bd80      	pop	{r7, pc}

08000eb6 <_ZSt22__uninitialized_copy_aIN9__gnu_cxx17__normal_iteratorIPK15TouchState_enumSt6vectorIS2_SaIS2_EEEEPS2_S2_ET0_T_SB_SA_RSaIT1_E>:
	}
    }

  template<typename _InputIterator, typename _ForwardIterator, typename _Tp>
    inline _ForwardIterator
    __uninitialized_copy_a(_InputIterator __first, _InputIterator __last,
 8000eb6:	b580      	push	{r7, lr}
 8000eb8:	b084      	sub	sp, #16
 8000eba:	af00      	add	r7, sp, #0
 8000ebc:	60f8      	str	r0, [r7, #12]
 8000ebe:	60b9      	str	r1, [r7, #8]
 8000ec0:	607a      	str	r2, [r7, #4]
 8000ec2:	603b      	str	r3, [r7, #0]
			   _ForwardIterator __result, allocator<_Tp>&)
    { return std::uninitialized_copy(__first, __last, __result); }
 8000ec4:	687a      	ldr	r2, [r7, #4]
 8000ec6:	68b9      	ldr	r1, [r7, #8]
 8000ec8:	68fb      	ldr	r3, [r7, #12]
 8000eca:	0018      	movs	r0, r3
 8000ecc:	f000 f942 	bl	8001154 <_ZSt18uninitialized_copyIN9__gnu_cxx17__normal_iteratorIPK15TouchState_enumSt6vectorIS2_SaIS2_EEEEPS2_ET0_T_SB_SA_>
 8000ed0:	0003      	movs	r3, r0
 8000ed2:	0018      	movs	r0, r3
 8000ed4:	46bd      	mov	sp, r7
 8000ed6:	b004      	add	sp, #16
 8000ed8:	bd80      	pop	{r7, pc}
	...

08000edc <_ZNSt6vectorI10TouchBoardSaIS0_EE11_S_max_sizeERKS1_>:

      static size_type
      _S_max_size(const _Tp_alloc_type& __a) _GLIBCXX_NOEXCEPT
 8000edc:	b580      	push	{r7, lr}
 8000ede:	b084      	sub	sp, #16
 8000ee0:	af00      	add	r7, sp, #0
 8000ee2:	6078      	str	r0, [r7, #4]
      {
	// std::distance(begin(), end()) cannot be greater than PTRDIFF_MAX,
	// and realistically we can't store more than PTRDIFF_MAX/sizeof(T)
	// (even if std::allocator_traits::max_size says we can).
	const size_t __diffmax
 8000ee4:	4b0a      	ldr	r3, [pc, #40]	; (8000f10 <_ZNSt6vectorI10TouchBoardSaIS0_EE11_S_max_sizeERKS1_+0x34>)
 8000ee6:	60fb      	str	r3, [r7, #12]
	  = __gnu_cxx::__numeric_traits<ptrdiff_t>::__max / sizeof(_Tp);
	const size_t __allocmax = _Alloc_traits::max_size(__a);
 8000ee8:	687b      	ldr	r3, [r7, #4]
 8000eea:	0018      	movs	r0, r3
 8000eec:	f000 f947 	bl	800117e <_ZNSt16allocator_traitsISaI10TouchBoardEE8max_sizeERKS1_>
 8000ef0:	0003      	movs	r3, r0
 8000ef2:	60bb      	str	r3, [r7, #8]
	return (std::min)(__diffmax, __allocmax);
 8000ef4:	2308      	movs	r3, #8
 8000ef6:	18fa      	adds	r2, r7, r3
 8000ef8:	230c      	movs	r3, #12
 8000efa:	18fb      	adds	r3, r7, r3
 8000efc:	0011      	movs	r1, r2
 8000efe:	0018      	movs	r0, r3
 8000f00:	f000 f94a 	bl	8001198 <_ZSt3minIjERKT_S2_S2_>
 8000f04:	0003      	movs	r3, r0
 8000f06:	681b      	ldr	r3, [r3, #0]
      }
 8000f08:	0018      	movs	r0, r3
 8000f0a:	46bd      	mov	sp, r7
 8000f0c:	b004      	add	sp, #16
 8000f0e:	bd80      	pop	{r7, pc}
 8000f10:	0fffffff 	.word	0x0fffffff

08000f14 <_ZNSaI10TouchBoardEC1ERKS0_>:
      allocator(const allocator& __a) _GLIBCXX_NOTHROW
 8000f14:	b580      	push	{r7, lr}
 8000f16:	b082      	sub	sp, #8
 8000f18:	af00      	add	r7, sp, #0
 8000f1a:	6078      	str	r0, [r7, #4]
 8000f1c:	6039      	str	r1, [r7, #0]
      : __allocator_base<_Tp>(__a) { }
 8000f1e:	683a      	ldr	r2, [r7, #0]
 8000f20:	687b      	ldr	r3, [r7, #4]
 8000f22:	0011      	movs	r1, r2
 8000f24:	0018      	movs	r0, r3
 8000f26:	f000 f949 	bl	80011bc <_ZN9__gnu_cxx13new_allocatorI10TouchBoardEC1ERKS2_>
 8000f2a:	687b      	ldr	r3, [r7, #4]
 8000f2c:	0018      	movs	r0, r3
 8000f2e:	46bd      	mov	sp, r7
 8000f30:	b002      	add	sp, #8
 8000f32:	bd80      	pop	{r7, pc}

08000f34 <_ZNSt12_Vector_baseI10TouchBoardSaIS0_EE12_Vector_implC1ERKS1_>:
	_Vector_impl(_Tp_alloc_type const& __a) _GLIBCXX_NOEXCEPT
 8000f34:	b580      	push	{r7, lr}
 8000f36:	b082      	sub	sp, #8
 8000f38:	af00      	add	r7, sp, #0
 8000f3a:	6078      	str	r0, [r7, #4]
 8000f3c:	6039      	str	r1, [r7, #0]
	: _Tp_alloc_type(__a)
 8000f3e:	683a      	ldr	r2, [r7, #0]
 8000f40:	687b      	ldr	r3, [r7, #4]
 8000f42:	0011      	movs	r1, r2
 8000f44:	0018      	movs	r0, r3
 8000f46:	f7ff ffe5 	bl	8000f14 <_ZNSaI10TouchBoardEC1ERKS0_>
 8000f4a:	687b      	ldr	r3, [r7, #4]
 8000f4c:	0018      	movs	r0, r3
 8000f4e:	f000 f93f 	bl	80011d0 <_ZNSt12_Vector_baseI10TouchBoardSaIS0_EE17_Vector_impl_dataC1Ev>
	{ }
 8000f52:	687b      	ldr	r3, [r7, #4]
 8000f54:	0018      	movs	r0, r3
 8000f56:	46bd      	mov	sp, r7
 8000f58:	b002      	add	sp, #8
 8000f5a:	bd80      	pop	{r7, pc}

08000f5c <_ZNSt12_Vector_baseI10TouchBoardSaIS0_EE17_M_create_storageEj>:
      _M_create_storage(size_t __n)
 8000f5c:	b580      	push	{r7, lr}
 8000f5e:	b082      	sub	sp, #8
 8000f60:	af00      	add	r7, sp, #0
 8000f62:	6078      	str	r0, [r7, #4]
 8000f64:	6039      	str	r1, [r7, #0]
	this->_M_impl._M_start = this->_M_allocate(__n);
 8000f66:	683a      	ldr	r2, [r7, #0]
 8000f68:	687b      	ldr	r3, [r7, #4]
 8000f6a:	0011      	movs	r1, r2
 8000f6c:	0018      	movs	r0, r3
 8000f6e:	f000 f941 	bl	80011f4 <_ZNSt12_Vector_baseI10TouchBoardSaIS0_EE11_M_allocateEj>
 8000f72:	0002      	movs	r2, r0
 8000f74:	687b      	ldr	r3, [r7, #4]
 8000f76:	601a      	str	r2, [r3, #0]
	this->_M_impl._M_finish = this->_M_impl._M_start;
 8000f78:	687b      	ldr	r3, [r7, #4]
 8000f7a:	681a      	ldr	r2, [r3, #0]
 8000f7c:	687b      	ldr	r3, [r7, #4]
 8000f7e:	605a      	str	r2, [r3, #4]
	this->_M_impl._M_end_of_storage = this->_M_impl._M_start + __n;
 8000f80:	687b      	ldr	r3, [r7, #4]
 8000f82:	681a      	ldr	r2, [r3, #0]
 8000f84:	683b      	ldr	r3, [r7, #0]
 8000f86:	00db      	lsls	r3, r3, #3
 8000f88:	18d2      	adds	r2, r2, r3
 8000f8a:	687b      	ldr	r3, [r7, #4]
 8000f8c:	609a      	str	r2, [r3, #8]
      }
 8000f8e:	46c0      	nop			; (mov r8, r8)
 8000f90:	46bd      	mov	sp, r7
 8000f92:	b002      	add	sp, #8
 8000f94:	bd80      	pop	{r7, pc}

08000f96 <_ZNSt12_Vector_baseI10TouchBoardSaIS0_EE13_M_deallocateEPS0_j>:
      _M_deallocate(pointer __p, size_t __n)
 8000f96:	b580      	push	{r7, lr}
 8000f98:	b084      	sub	sp, #16
 8000f9a:	af00      	add	r7, sp, #0
 8000f9c:	60f8      	str	r0, [r7, #12]
 8000f9e:	60b9      	str	r1, [r7, #8]
 8000fa0:	607a      	str	r2, [r7, #4]
	if (__p)
 8000fa2:	68bb      	ldr	r3, [r7, #8]
 8000fa4:	2b00      	cmp	r3, #0
 8000fa6:	d005      	beq.n	8000fb4 <_ZNSt12_Vector_baseI10TouchBoardSaIS0_EE13_M_deallocateEPS0_j+0x1e>
	  _Tr::deallocate(_M_impl, __p, __n);
 8000fa8:	68fb      	ldr	r3, [r7, #12]
 8000faa:	687a      	ldr	r2, [r7, #4]
 8000fac:	68b9      	ldr	r1, [r7, #8]
 8000fae:	0018      	movs	r0, r3
 8000fb0:	f000 f935 	bl	800121e <_ZNSt16allocator_traitsISaI10TouchBoardEE10deallocateERS1_PS0_j>
      }
 8000fb4:	46c0      	nop			; (mov r8, r8)
 8000fb6:	46bd      	mov	sp, r7
 8000fb8:	b004      	add	sp, #16
 8000fba:	bd80      	pop	{r7, pc}

08000fbc <_ZSt27__uninitialized_default_n_aIP10TouchBoardjS0_ET_S2_T0_RSaIT1_E>:
	}
    }

  template<typename _ForwardIterator, typename _Size, typename _Tp>
    inline _ForwardIterator
    __uninitialized_default_n_a(_ForwardIterator __first, _Size __n,
 8000fbc:	b580      	push	{r7, lr}
 8000fbe:	b084      	sub	sp, #16
 8000fc0:	af00      	add	r7, sp, #0
 8000fc2:	60f8      	str	r0, [r7, #12]
 8000fc4:	60b9      	str	r1, [r7, #8]
 8000fc6:	607a      	str	r2, [r7, #4]
				allocator<_Tp>&)
    { return std::__uninitialized_default_n(__first, __n); }
 8000fc8:	68ba      	ldr	r2, [r7, #8]
 8000fca:	68fb      	ldr	r3, [r7, #12]
 8000fcc:	0011      	movs	r1, r2
 8000fce:	0018      	movs	r0, r3
 8000fd0:	f000 f935 	bl	800123e <_ZSt25__uninitialized_default_nIP10TouchBoardjET_S2_T0_>
 8000fd4:	0003      	movs	r3, r0
 8000fd6:	0018      	movs	r0, r3
 8000fd8:	46bd      	mov	sp, r7
 8000fda:	b004      	add	sp, #16
 8000fdc:	bd80      	pop	{r7, pc}

08000fde <_ZSt8_DestroyIP10TouchBoardEvT_S2_>:
    _Destroy(_ForwardIterator __first, _ForwardIterator __last)
 8000fde:	b580      	push	{r7, lr}
 8000fe0:	b082      	sub	sp, #8
 8000fe2:	af00      	add	r7, sp, #0
 8000fe4:	6078      	str	r0, [r7, #4]
 8000fe6:	6039      	str	r1, [r7, #0]
	__destroy(__first, __last);
 8000fe8:	683a      	ldr	r2, [r7, #0]
 8000fea:	687b      	ldr	r3, [r7, #4]
 8000fec:	0011      	movs	r1, r2
 8000fee:	0018      	movs	r0, r3
 8000ff0:	f000 f939 	bl	8001266 <_ZNSt12_Destroy_auxILb0EE9__destroyIP10TouchBoardEEvT_S4_>
    }
 8000ff4:	46c0      	nop			; (mov r8, r8)
 8000ff6:	46bd      	mov	sp, r7
 8000ff8:	b002      	add	sp, #8
 8000ffa:	bd80      	pop	{r7, pc}

08000ffc <_ZNSt6vectorI15TouchState_enumSaIS0_EE11_S_max_sizeERKS1_>:
      _S_max_size(const _Tp_alloc_type& __a) _GLIBCXX_NOEXCEPT
 8000ffc:	b580      	push	{r7, lr}
 8000ffe:	b084      	sub	sp, #16
 8001000:	af00      	add	r7, sp, #0
 8001002:	6078      	str	r0, [r7, #4]
	const size_t __diffmax
 8001004:	4b0a      	ldr	r3, [pc, #40]	; (8001030 <_ZNSt6vectorI15TouchState_enumSaIS0_EE11_S_max_sizeERKS1_+0x34>)
 8001006:	60fb      	str	r3, [r7, #12]
	const size_t __allocmax = _Alloc_traits::max_size(__a);
 8001008:	687b      	ldr	r3, [r7, #4]
 800100a:	0018      	movs	r0, r3
 800100c:	f000 f944 	bl	8001298 <_ZNSt16allocator_traitsISaI15TouchState_enumEE8max_sizeERKS1_>
 8001010:	0003      	movs	r3, r0
 8001012:	60bb      	str	r3, [r7, #8]
	return (std::min)(__diffmax, __allocmax);
 8001014:	2308      	movs	r3, #8
 8001016:	18fa      	adds	r2, r7, r3
 8001018:	230c      	movs	r3, #12
 800101a:	18fb      	adds	r3, r7, r3
 800101c:	0011      	movs	r1, r2
 800101e:	0018      	movs	r0, r3
 8001020:	f000 f8ba 	bl	8001198 <_ZSt3minIjERKT_S2_S2_>
 8001024:	0003      	movs	r3, r0
 8001026:	681b      	ldr	r3, [r3, #0]
      }
 8001028:	0018      	movs	r0, r3
 800102a:	46bd      	mov	sp, r7
 800102c:	b004      	add	sp, #16
 800102e:	bd80      	pop	{r7, pc}
 8001030:	7fffffff 	.word	0x7fffffff

08001034 <_ZNSaI15TouchState_enumEC1ERKS0_>:
      allocator(const allocator& __a) _GLIBCXX_NOTHROW
 8001034:	b580      	push	{r7, lr}
 8001036:	b082      	sub	sp, #8
 8001038:	af00      	add	r7, sp, #0
 800103a:	6078      	str	r0, [r7, #4]
 800103c:	6039      	str	r1, [r7, #0]
      : __allocator_base<_Tp>(__a) { }
 800103e:	683a      	ldr	r2, [r7, #0]
 8001040:	687b      	ldr	r3, [r7, #4]
 8001042:	0011      	movs	r1, r2
 8001044:	0018      	movs	r0, r3
 8001046:	f000 f934 	bl	80012b2 <_ZN9__gnu_cxx13new_allocatorI15TouchState_enumEC1ERKS2_>
 800104a:	687b      	ldr	r3, [r7, #4]
 800104c:	0018      	movs	r0, r3
 800104e:	46bd      	mov	sp, r7
 8001050:	b002      	add	sp, #8
 8001052:	bd80      	pop	{r7, pc}

08001054 <_ZNSt12_Vector_baseI15TouchState_enumSaIS0_EE12_Vector_implC1ERKS1_>:
	_Vector_impl(_Tp_alloc_type const& __a) _GLIBCXX_NOEXCEPT
 8001054:	b580      	push	{r7, lr}
 8001056:	b082      	sub	sp, #8
 8001058:	af00      	add	r7, sp, #0
 800105a:	6078      	str	r0, [r7, #4]
 800105c:	6039      	str	r1, [r7, #0]
	: _Tp_alloc_type(__a)
 800105e:	683a      	ldr	r2, [r7, #0]
 8001060:	687b      	ldr	r3, [r7, #4]
 8001062:	0011      	movs	r1, r2
 8001064:	0018      	movs	r0, r3
 8001066:	f7ff ffe5 	bl	8001034 <_ZNSaI15TouchState_enumEC1ERKS0_>
 800106a:	687b      	ldr	r3, [r7, #4]
 800106c:	0018      	movs	r0, r3
 800106e:	f000 f92a 	bl	80012c6 <_ZNSt12_Vector_baseI15TouchState_enumSaIS0_EE17_Vector_impl_dataC1Ev>
	{ }
 8001072:	687b      	ldr	r3, [r7, #4]
 8001074:	0018      	movs	r0, r3
 8001076:	46bd      	mov	sp, r7
 8001078:	b002      	add	sp, #8
 800107a:	bd80      	pop	{r7, pc}

0800107c <_ZNSt12_Vector_baseI15TouchState_enumSaIS0_EE17_M_create_storageEj>:
      _M_create_storage(size_t __n)
 800107c:	b580      	push	{r7, lr}
 800107e:	b082      	sub	sp, #8
 8001080:	af00      	add	r7, sp, #0
 8001082:	6078      	str	r0, [r7, #4]
 8001084:	6039      	str	r1, [r7, #0]
	this->_M_impl._M_start = this->_M_allocate(__n);
 8001086:	683a      	ldr	r2, [r7, #0]
 8001088:	687b      	ldr	r3, [r7, #4]
 800108a:	0011      	movs	r1, r2
 800108c:	0018      	movs	r0, r3
 800108e:	f000 f92c 	bl	80012ea <_ZNSt12_Vector_baseI15TouchState_enumSaIS0_EE11_M_allocateEj>
 8001092:	0002      	movs	r2, r0
 8001094:	687b      	ldr	r3, [r7, #4]
 8001096:	601a      	str	r2, [r3, #0]
	this->_M_impl._M_finish = this->_M_impl._M_start;
 8001098:	687b      	ldr	r3, [r7, #4]
 800109a:	681a      	ldr	r2, [r3, #0]
 800109c:	687b      	ldr	r3, [r7, #4]
 800109e:	605a      	str	r2, [r3, #4]
	this->_M_impl._M_end_of_storage = this->_M_impl._M_start + __n;
 80010a0:	687b      	ldr	r3, [r7, #4]
 80010a2:	681a      	ldr	r2, [r3, #0]
 80010a4:	683b      	ldr	r3, [r7, #0]
 80010a6:	18d2      	adds	r2, r2, r3
 80010a8:	687b      	ldr	r3, [r7, #4]
 80010aa:	609a      	str	r2, [r3, #8]
      }
 80010ac:	46c0      	nop			; (mov r8, r8)
 80010ae:	46bd      	mov	sp, r7
 80010b0:	b002      	add	sp, #8
 80010b2:	bd80      	pop	{r7, pc}

080010b4 <_ZNSt12_Vector_baseI15TouchState_enumSaIS0_EE13_M_deallocateEPS0_j>:
      _M_deallocate(pointer __p, size_t __n)
 80010b4:	b580      	push	{r7, lr}
 80010b6:	b084      	sub	sp, #16
 80010b8:	af00      	add	r7, sp, #0
 80010ba:	60f8      	str	r0, [r7, #12]
 80010bc:	60b9      	str	r1, [r7, #8]
 80010be:	607a      	str	r2, [r7, #4]
	if (__p)
 80010c0:	68bb      	ldr	r3, [r7, #8]
 80010c2:	2b00      	cmp	r3, #0
 80010c4:	d005      	beq.n	80010d2 <_ZNSt12_Vector_baseI15TouchState_enumSaIS0_EE13_M_deallocateEPS0_j+0x1e>
	  _Tr::deallocate(_M_impl, __p, __n);
 80010c6:	68fb      	ldr	r3, [r7, #12]
 80010c8:	687a      	ldr	r2, [r7, #4]
 80010ca:	68b9      	ldr	r1, [r7, #8]
 80010cc:	0018      	movs	r0, r3
 80010ce:	f000 f921 	bl	8001314 <_ZNSt16allocator_traitsISaI15TouchState_enumEE10deallocateERS1_PS0_j>
      }
 80010d2:	46c0      	nop			; (mov r8, r8)
 80010d4:	46bd      	mov	sp, r7
 80010d6:	b004      	add	sp, #16
 80010d8:	bd80      	pop	{r7, pc}

080010da <_ZSt27__uninitialized_default_n_aIP15TouchState_enumjS0_ET_S2_T0_RSaIT1_E>:
    __uninitialized_default_n_a(_ForwardIterator __first, _Size __n,
 80010da:	b580      	push	{r7, lr}
 80010dc:	b084      	sub	sp, #16
 80010de:	af00      	add	r7, sp, #0
 80010e0:	60f8      	str	r0, [r7, #12]
 80010e2:	60b9      	str	r1, [r7, #8]
 80010e4:	607a      	str	r2, [r7, #4]
    { return std::__uninitialized_default_n(__first, __n); }
 80010e6:	68ba      	ldr	r2, [r7, #8]
 80010e8:	68fb      	ldr	r3, [r7, #12]
 80010ea:	0011      	movs	r1, r2
 80010ec:	0018      	movs	r0, r3
 80010ee:	f000 f921 	bl	8001334 <_ZSt25__uninitialized_default_nIP15TouchState_enumjET_S2_T0_>
 80010f2:	0003      	movs	r3, r0
 80010f4:	0018      	movs	r0, r3
 80010f6:	46bd      	mov	sp, r7
 80010f8:	b004      	add	sp, #16
 80010fa:	bd80      	pop	{r7, pc}

080010fc <_ZSt8_DestroyIP15TouchState_enumEvT_S2_>:
    _Destroy(_ForwardIterator __first, _ForwardIterator __last)
 80010fc:	b580      	push	{r7, lr}
 80010fe:	b082      	sub	sp, #8
 8001100:	af00      	add	r7, sp, #0
 8001102:	6078      	str	r0, [r7, #4]
 8001104:	6039      	str	r1, [r7, #0]
	__destroy(__first, __last);
 8001106:	683a      	ldr	r2, [r7, #0]
 8001108:	687b      	ldr	r3, [r7, #4]
 800110a:	0011      	movs	r1, r2
 800110c:	0018      	movs	r0, r3
 800110e:	f000 f925 	bl	800135c <_ZNSt12_Destroy_auxILb1EE9__destroyIP15TouchState_enumEEvT_S4_>
    }
 8001112:	46c0      	nop			; (mov r8, r8)
 8001114:	46bd      	mov	sp, r7
 8001116:	b002      	add	sp, #8
 8001118:	bd80      	pop	{r7, pc}

0800111a <_ZNSt16allocator_traitsISaI15TouchState_enumEE37select_on_container_copy_constructionERKS1_>:
       *  @brief  Obtain an allocator to use when copying a container.
       *  @param  __rhs  An allocator.
       *  @return @c __rhs
      */
      static allocator_type
      select_on_container_copy_construction(const allocator_type& __rhs)
 800111a:	b580      	push	{r7, lr}
 800111c:	b082      	sub	sp, #8
 800111e:	af00      	add	r7, sp, #0
 8001120:	6078      	str	r0, [r7, #4]
 8001122:	6039      	str	r1, [r7, #0]
      { return __rhs; }
 8001124:	683a      	ldr	r2, [r7, #0]
 8001126:	687b      	ldr	r3, [r7, #4]
 8001128:	0011      	movs	r1, r2
 800112a:	0018      	movs	r0, r3
 800112c:	f7ff ff82 	bl	8001034 <_ZNSaI15TouchState_enumEC1ERKS0_>
 8001130:	6878      	ldr	r0, [r7, #4]
 8001132:	46bd      	mov	sp, r7
 8001134:	b002      	add	sp, #8
 8001136:	bd80      	pop	{r7, pc}

08001138 <_ZN9__gnu_cxx17__normal_iteratorIPK15TouchState_enumSt6vectorIS1_SaIS1_EEEC1ERKS3_>:

      _GLIBCXX_CONSTEXPR __normal_iterator() _GLIBCXX_NOEXCEPT
      : _M_current(_Iterator()) { }

      explicit
      __normal_iterator(const _Iterator& __i) _GLIBCXX_NOEXCEPT
 8001138:	b580      	push	{r7, lr}
 800113a:	b082      	sub	sp, #8
 800113c:	af00      	add	r7, sp, #0
 800113e:	6078      	str	r0, [r7, #4]
 8001140:	6039      	str	r1, [r7, #0]
      : _M_current(__i) { }
 8001142:	683b      	ldr	r3, [r7, #0]
 8001144:	681a      	ldr	r2, [r3, #0]
 8001146:	687b      	ldr	r3, [r7, #4]
 8001148:	601a      	str	r2, [r3, #0]
 800114a:	687b      	ldr	r3, [r7, #4]
 800114c:	0018      	movs	r0, r3
 800114e:	46bd      	mov	sp, r7
 8001150:	b002      	add	sp, #8
 8001152:	bd80      	pop	{r7, pc}

08001154 <_ZSt18uninitialized_copyIN9__gnu_cxx17__normal_iteratorIPK15TouchState_enumSt6vectorIS2_SaIS2_EEEEPS2_ET0_T_SB_SA_>:
    uninitialized_copy(_InputIterator __first, _InputIterator __last,
 8001154:	b580      	push	{r7, lr}
 8001156:	b086      	sub	sp, #24
 8001158:	af00      	add	r7, sp, #0
 800115a:	60f8      	str	r0, [r7, #12]
 800115c:	60b9      	str	r1, [r7, #8]
 800115e:	607a      	str	r2, [r7, #4]
      const bool __assignable = is_assignable<_RefType2, _RefType1>::value;
 8001160:	2317      	movs	r3, #23
 8001162:	18fb      	adds	r3, r7, r3
 8001164:	2201      	movs	r2, #1
 8001166:	701a      	strb	r2, [r3, #0]
	__uninit_copy(__first, __last, __result);
 8001168:	687a      	ldr	r2, [r7, #4]
 800116a:	68b9      	ldr	r1, [r7, #8]
 800116c:	68fb      	ldr	r3, [r7, #12]
 800116e:	0018      	movs	r0, r3
 8001170:	f000 f8fd 	bl	800136e <_ZNSt20__uninitialized_copyILb1EE13__uninit_copyIN9__gnu_cxx17__normal_iteratorIPK15TouchState_enumSt6vectorIS4_SaIS4_EEEEPS4_EET0_T_SD_SC_>
 8001174:	0003      	movs	r3, r0
    }
 8001176:	0018      	movs	r0, r3
 8001178:	46bd      	mov	sp, r7
 800117a:	b006      	add	sp, #24
 800117c:	bd80      	pop	{r7, pc}

0800117e <_ZNSt16allocator_traitsISaI10TouchBoardEE8max_sizeERKS1_>:
      max_size(const allocator_type& __a) noexcept
 800117e:	b580      	push	{r7, lr}
 8001180:	b082      	sub	sp, #8
 8001182:	af00      	add	r7, sp, #0
 8001184:	6078      	str	r0, [r7, #4]
      { return __a.max_size(); }
 8001186:	687b      	ldr	r3, [r7, #4]
 8001188:	0018      	movs	r0, r3
 800118a:	f000 f901 	bl	8001390 <_ZNK9__gnu_cxx13new_allocatorI10TouchBoardE8max_sizeEv>
 800118e:	0003      	movs	r3, r0
 8001190:	0018      	movs	r0, r3
 8001192:	46bd      	mov	sp, r7
 8001194:	b002      	add	sp, #8
 8001196:	bd80      	pop	{r7, pc}

08001198 <_ZSt3minIjERKT_S2_S2_>:
   *  preprocessor macro.
  */
  template<typename _Tp>
    _GLIBCXX14_CONSTEXPR
    inline const _Tp&
    min(const _Tp& __a, const _Tp& __b)
 8001198:	b580      	push	{r7, lr}
 800119a:	b082      	sub	sp, #8
 800119c:	af00      	add	r7, sp, #0
 800119e:	6078      	str	r0, [r7, #4]
 80011a0:	6039      	str	r1, [r7, #0]
    {
      // concept requirements
      __glibcxx_function_requires(_LessThanComparableConcept<_Tp>)
      //return __b < __a ? __b : __a;
      if (__b < __a)
 80011a2:	683b      	ldr	r3, [r7, #0]
 80011a4:	681a      	ldr	r2, [r3, #0]
 80011a6:	687b      	ldr	r3, [r7, #4]
 80011a8:	681b      	ldr	r3, [r3, #0]
 80011aa:	429a      	cmp	r2, r3
 80011ac:	d201      	bcs.n	80011b2 <_ZSt3minIjERKT_S2_S2_+0x1a>
	return __b;
 80011ae:	683b      	ldr	r3, [r7, #0]
 80011b0:	e000      	b.n	80011b4 <_ZSt3minIjERKT_S2_S2_+0x1c>
      return __a;
 80011b2:	687b      	ldr	r3, [r7, #4]
    }
 80011b4:	0018      	movs	r0, r3
 80011b6:	46bd      	mov	sp, r7
 80011b8:	b002      	add	sp, #8
 80011ba:	bd80      	pop	{r7, pc}

080011bc <_ZN9__gnu_cxx13new_allocatorI10TouchBoardEC1ERKS2_>:
      new_allocator(const new_allocator&) _GLIBCXX_USE_NOEXCEPT { }
 80011bc:	b580      	push	{r7, lr}
 80011be:	b082      	sub	sp, #8
 80011c0:	af00      	add	r7, sp, #0
 80011c2:	6078      	str	r0, [r7, #4]
 80011c4:	6039      	str	r1, [r7, #0]
 80011c6:	687b      	ldr	r3, [r7, #4]
 80011c8:	0018      	movs	r0, r3
 80011ca:	46bd      	mov	sp, r7
 80011cc:	b002      	add	sp, #8
 80011ce:	bd80      	pop	{r7, pc}

080011d0 <_ZNSt12_Vector_baseI10TouchBoardSaIS0_EE17_Vector_impl_dataC1Ev>:
	_Vector_impl_data() _GLIBCXX_NOEXCEPT
 80011d0:	b580      	push	{r7, lr}
 80011d2:	b082      	sub	sp, #8
 80011d4:	af00      	add	r7, sp, #0
 80011d6:	6078      	str	r0, [r7, #4]
	: _M_start(), _M_finish(), _M_end_of_storage()
 80011d8:	687b      	ldr	r3, [r7, #4]
 80011da:	2200      	movs	r2, #0
 80011dc:	601a      	str	r2, [r3, #0]
 80011de:	687b      	ldr	r3, [r7, #4]
 80011e0:	2200      	movs	r2, #0
 80011e2:	605a      	str	r2, [r3, #4]
 80011e4:	687b      	ldr	r3, [r7, #4]
 80011e6:	2200      	movs	r2, #0
 80011e8:	609a      	str	r2, [r3, #8]
	{ }
 80011ea:	687b      	ldr	r3, [r7, #4]
 80011ec:	0018      	movs	r0, r3
 80011ee:	46bd      	mov	sp, r7
 80011f0:	b002      	add	sp, #8
 80011f2:	bd80      	pop	{r7, pc}

080011f4 <_ZNSt12_Vector_baseI10TouchBoardSaIS0_EE11_M_allocateEj>:
      _M_allocate(size_t __n)
 80011f4:	b580      	push	{r7, lr}
 80011f6:	b082      	sub	sp, #8
 80011f8:	af00      	add	r7, sp, #0
 80011fa:	6078      	str	r0, [r7, #4]
 80011fc:	6039      	str	r1, [r7, #0]
	return __n != 0 ? _Tr::allocate(_M_impl, __n) : pointer();
 80011fe:	683b      	ldr	r3, [r7, #0]
 8001200:	2b00      	cmp	r3, #0
 8001202:	d007      	beq.n	8001214 <_ZNSt12_Vector_baseI10TouchBoardSaIS0_EE11_M_allocateEj+0x20>
 8001204:	687b      	ldr	r3, [r7, #4]
 8001206:	683a      	ldr	r2, [r7, #0]
 8001208:	0011      	movs	r1, r2
 800120a:	0018      	movs	r0, r3
 800120c:	f000 f8cc 	bl	80013a8 <_ZNSt16allocator_traitsISaI10TouchBoardEE8allocateERS1_j>
 8001210:	0003      	movs	r3, r0
 8001212:	e000      	b.n	8001216 <_ZNSt12_Vector_baseI10TouchBoardSaIS0_EE11_M_allocateEj+0x22>
 8001214:	2300      	movs	r3, #0
      }
 8001216:	0018      	movs	r0, r3
 8001218:	46bd      	mov	sp, r7
 800121a:	b002      	add	sp, #8
 800121c:	bd80      	pop	{r7, pc}

0800121e <_ZNSt16allocator_traitsISaI10TouchBoardEE10deallocateERS1_PS0_j>:
      deallocate(allocator_type& __a, pointer __p, size_type __n)
 800121e:	b580      	push	{r7, lr}
 8001220:	b084      	sub	sp, #16
 8001222:	af00      	add	r7, sp, #0
 8001224:	60f8      	str	r0, [r7, #12]
 8001226:	60b9      	str	r1, [r7, #8]
 8001228:	607a      	str	r2, [r7, #4]
      { __a.deallocate(__p, __n); }
 800122a:	687a      	ldr	r2, [r7, #4]
 800122c:	68b9      	ldr	r1, [r7, #8]
 800122e:	68fb      	ldr	r3, [r7, #12]
 8001230:	0018      	movs	r0, r3
 8001232:	f000 f8c9 	bl	80013c8 <_ZN9__gnu_cxx13new_allocatorI10TouchBoardE10deallocateEPS1_j>
 8001236:	46c0      	nop			; (mov r8, r8)
 8001238:	46bd      	mov	sp, r7
 800123a:	b004      	add	sp, #16
 800123c:	bd80      	pop	{r7, pc}

0800123e <_ZSt25__uninitialized_default_nIP10TouchBoardjET_S2_T0_>:
    __uninitialized_default_n(_ForwardIterator __first, _Size __n)
 800123e:	b580      	push	{r7, lr}
 8001240:	b084      	sub	sp, #16
 8001242:	af00      	add	r7, sp, #0
 8001244:	6078      	str	r0, [r7, #4]
 8001246:	6039      	str	r1, [r7, #0]
      const bool __assignable = is_copy_assignable<_ValueType>::value;
 8001248:	230f      	movs	r3, #15
 800124a:	18fb      	adds	r3, r7, r3
 800124c:	2201      	movs	r2, #1
 800124e:	701a      	strb	r2, [r3, #0]
	__uninit_default_n(__first, __n);
 8001250:	683a      	ldr	r2, [r7, #0]
 8001252:	687b      	ldr	r3, [r7, #4]
 8001254:	0011      	movs	r1, r2
 8001256:	0018      	movs	r0, r3
 8001258:	f000 f8c4 	bl	80013e4 <_ZNSt27__uninitialized_default_n_1ILb0EE18__uninit_default_nIP10TouchBoardjEET_S4_T0_>
 800125c:	0003      	movs	r3, r0
    }
 800125e:	0018      	movs	r0, r3
 8001260:	46bd      	mov	sp, r7
 8001262:	b004      	add	sp, #16
 8001264:	bd80      	pop	{r7, pc}

08001266 <_ZNSt12_Destroy_auxILb0EE9__destroyIP10TouchBoardEEvT_S4_>:
        __destroy(_ForwardIterator __first, _ForwardIterator __last)
 8001266:	b580      	push	{r7, lr}
 8001268:	b082      	sub	sp, #8
 800126a:	af00      	add	r7, sp, #0
 800126c:	6078      	str	r0, [r7, #4]
 800126e:	6039      	str	r1, [r7, #0]
	  for (; __first != __last; ++__first)
 8001270:	687a      	ldr	r2, [r7, #4]
 8001272:	683b      	ldr	r3, [r7, #0]
 8001274:	429a      	cmp	r2, r3
 8001276:	d00b      	beq.n	8001290 <_ZNSt12_Destroy_auxILb0EE9__destroyIP10TouchBoardEEvT_S4_+0x2a>
	    std::_Destroy(std::__addressof(*__first));
 8001278:	687b      	ldr	r3, [r7, #4]
 800127a:	0018      	movs	r0, r3
 800127c:	f000 f8d0 	bl	8001420 <_ZSt11__addressofI10TouchBoardEPT_RS1_>
 8001280:	0003      	movs	r3, r0
 8001282:	0018      	movs	r0, r3
 8001284:	f000 f8d5 	bl	8001432 <_ZSt8_DestroyI10TouchBoardEvPT_>
	  for (; __first != __last; ++__first)
 8001288:	687b      	ldr	r3, [r7, #4]
 800128a:	3308      	adds	r3, #8
 800128c:	607b      	str	r3, [r7, #4]
 800128e:	e7ef      	b.n	8001270 <_ZNSt12_Destroy_auxILb0EE9__destroyIP10TouchBoardEEvT_S4_+0xa>
	}
 8001290:	46c0      	nop			; (mov r8, r8)
 8001292:	46bd      	mov	sp, r7
 8001294:	b002      	add	sp, #8
 8001296:	bd80      	pop	{r7, pc}

08001298 <_ZNSt16allocator_traitsISaI15TouchState_enumEE8max_sizeERKS1_>:
      max_size(const allocator_type& __a) noexcept
 8001298:	b580      	push	{r7, lr}
 800129a:	b082      	sub	sp, #8
 800129c:	af00      	add	r7, sp, #0
 800129e:	6078      	str	r0, [r7, #4]
      { return __a.max_size(); }
 80012a0:	687b      	ldr	r3, [r7, #4]
 80012a2:	0018      	movs	r0, r3
 80012a4:	f000 f8d2 	bl	800144c <_ZNK9__gnu_cxx13new_allocatorI15TouchState_enumE8max_sizeEv>
 80012a8:	0003      	movs	r3, r0
 80012aa:	0018      	movs	r0, r3
 80012ac:	46bd      	mov	sp, r7
 80012ae:	b002      	add	sp, #8
 80012b0:	bd80      	pop	{r7, pc}

080012b2 <_ZN9__gnu_cxx13new_allocatorI15TouchState_enumEC1ERKS2_>:
 80012b2:	b580      	push	{r7, lr}
 80012b4:	b082      	sub	sp, #8
 80012b6:	af00      	add	r7, sp, #0
 80012b8:	6078      	str	r0, [r7, #4]
 80012ba:	6039      	str	r1, [r7, #0]
 80012bc:	687b      	ldr	r3, [r7, #4]
 80012be:	0018      	movs	r0, r3
 80012c0:	46bd      	mov	sp, r7
 80012c2:	b002      	add	sp, #8
 80012c4:	bd80      	pop	{r7, pc}

080012c6 <_ZNSt12_Vector_baseI15TouchState_enumSaIS0_EE17_Vector_impl_dataC1Ev>:
	_Vector_impl_data() _GLIBCXX_NOEXCEPT
 80012c6:	b580      	push	{r7, lr}
 80012c8:	b082      	sub	sp, #8
 80012ca:	af00      	add	r7, sp, #0
 80012cc:	6078      	str	r0, [r7, #4]
	: _M_start(), _M_finish(), _M_end_of_storage()
 80012ce:	687b      	ldr	r3, [r7, #4]
 80012d0:	2200      	movs	r2, #0
 80012d2:	601a      	str	r2, [r3, #0]
 80012d4:	687b      	ldr	r3, [r7, #4]
 80012d6:	2200      	movs	r2, #0
 80012d8:	605a      	str	r2, [r3, #4]
 80012da:	687b      	ldr	r3, [r7, #4]
 80012dc:	2200      	movs	r2, #0
 80012de:	609a      	str	r2, [r3, #8]
	{ }
 80012e0:	687b      	ldr	r3, [r7, #4]
 80012e2:	0018      	movs	r0, r3
 80012e4:	46bd      	mov	sp, r7
 80012e6:	b002      	add	sp, #8
 80012e8:	bd80      	pop	{r7, pc}

080012ea <_ZNSt12_Vector_baseI15TouchState_enumSaIS0_EE11_M_allocateEj>:
      _M_allocate(size_t __n)
 80012ea:	b580      	push	{r7, lr}
 80012ec:	b082      	sub	sp, #8
 80012ee:	af00      	add	r7, sp, #0
 80012f0:	6078      	str	r0, [r7, #4]
 80012f2:	6039      	str	r1, [r7, #0]
	return __n != 0 ? _Tr::allocate(_M_impl, __n) : pointer();
 80012f4:	683b      	ldr	r3, [r7, #0]
 80012f6:	2b00      	cmp	r3, #0
 80012f8:	d007      	beq.n	800130a <_ZNSt12_Vector_baseI15TouchState_enumSaIS0_EE11_M_allocateEj+0x20>
 80012fa:	687b      	ldr	r3, [r7, #4]
 80012fc:	683a      	ldr	r2, [r7, #0]
 80012fe:	0011      	movs	r1, r2
 8001300:	0018      	movs	r0, r3
 8001302:	f000 f8af 	bl	8001464 <_ZNSt16allocator_traitsISaI15TouchState_enumEE8allocateERS1_j>
 8001306:	0003      	movs	r3, r0
 8001308:	e000      	b.n	800130c <_ZNSt12_Vector_baseI15TouchState_enumSaIS0_EE11_M_allocateEj+0x22>
 800130a:	2300      	movs	r3, #0
      }
 800130c:	0018      	movs	r0, r3
 800130e:	46bd      	mov	sp, r7
 8001310:	b002      	add	sp, #8
 8001312:	bd80      	pop	{r7, pc}

08001314 <_ZNSt16allocator_traitsISaI15TouchState_enumEE10deallocateERS1_PS0_j>:
      deallocate(allocator_type& __a, pointer __p, size_type __n)
 8001314:	b580      	push	{r7, lr}
 8001316:	b084      	sub	sp, #16
 8001318:	af00      	add	r7, sp, #0
 800131a:	60f8      	str	r0, [r7, #12]
 800131c:	60b9      	str	r1, [r7, #8]
 800131e:	607a      	str	r2, [r7, #4]
      { __a.deallocate(__p, __n); }
 8001320:	687a      	ldr	r2, [r7, #4]
 8001322:	68b9      	ldr	r1, [r7, #8]
 8001324:	68fb      	ldr	r3, [r7, #12]
 8001326:	0018      	movs	r0, r3
 8001328:	f000 f8ac 	bl	8001484 <_ZN9__gnu_cxx13new_allocatorI15TouchState_enumE10deallocateEPS1_j>
 800132c:	46c0      	nop			; (mov r8, r8)
 800132e:	46bd      	mov	sp, r7
 8001330:	b004      	add	sp, #16
 8001332:	bd80      	pop	{r7, pc}

08001334 <_ZSt25__uninitialized_default_nIP15TouchState_enumjET_S2_T0_>:
    __uninitialized_default_n(_ForwardIterator __first, _Size __n)
 8001334:	b580      	push	{r7, lr}
 8001336:	b084      	sub	sp, #16
 8001338:	af00      	add	r7, sp, #0
 800133a:	6078      	str	r0, [r7, #4]
 800133c:	6039      	str	r1, [r7, #0]
      const bool __assignable = is_copy_assignable<_ValueType>::value;
 800133e:	230f      	movs	r3, #15
 8001340:	18fb      	adds	r3, r7, r3
 8001342:	2201      	movs	r2, #1
 8001344:	701a      	strb	r2, [r3, #0]
	__uninit_default_n(__first, __n);
 8001346:	683a      	ldr	r2, [r7, #0]
 8001348:	687b      	ldr	r3, [r7, #4]
 800134a:	0011      	movs	r1, r2
 800134c:	0018      	movs	r0, r3
 800134e:	f000 f8a7 	bl	80014a0 <_ZNSt27__uninitialized_default_n_1ILb1EE18__uninit_default_nIP15TouchState_enumjEET_S4_T0_>
 8001352:	0003      	movs	r3, r0
    }
 8001354:	0018      	movs	r0, r3
 8001356:	46bd      	mov	sp, r7
 8001358:	b004      	add	sp, #16
 800135a:	bd80      	pop	{r7, pc}

0800135c <_ZNSt12_Destroy_auxILb1EE9__destroyIP15TouchState_enumEEvT_S4_>:
        __destroy(_ForwardIterator, _ForwardIterator) { }
 800135c:	b580      	push	{r7, lr}
 800135e:	b082      	sub	sp, #8
 8001360:	af00      	add	r7, sp, #0
 8001362:	6078      	str	r0, [r7, #4]
 8001364:	6039      	str	r1, [r7, #0]
 8001366:	46c0      	nop			; (mov r8, r8)
 8001368:	46bd      	mov	sp, r7
 800136a:	b002      	add	sp, #8
 800136c:	bd80      	pop	{r7, pc}

0800136e <_ZNSt20__uninitialized_copyILb1EE13__uninit_copyIN9__gnu_cxx17__normal_iteratorIPK15TouchState_enumSt6vectorIS4_SaIS4_EEEEPS4_EET0_T_SD_SC_>:
        __uninit_copy(_InputIterator __first, _InputIterator __last,
 800136e:	b580      	push	{r7, lr}
 8001370:	b084      	sub	sp, #16
 8001372:	af00      	add	r7, sp, #0
 8001374:	60f8      	str	r0, [r7, #12]
 8001376:	60b9      	str	r1, [r7, #8]
 8001378:	607a      	str	r2, [r7, #4]
        { return std::copy(__first, __last, __result); }
 800137a:	687a      	ldr	r2, [r7, #4]
 800137c:	68b9      	ldr	r1, [r7, #8]
 800137e:	68fb      	ldr	r3, [r7, #12]
 8001380:	0018      	movs	r0, r3
 8001382:	f000 f8a1 	bl	80014c8 <_ZSt4copyIN9__gnu_cxx17__normal_iteratorIPK15TouchState_enumSt6vectorIS2_SaIS2_EEEEPS2_ET0_T_SB_SA_>
 8001386:	0003      	movs	r3, r0
 8001388:	0018      	movs	r0, r3
 800138a:	46bd      	mov	sp, r7
 800138c:	b004      	add	sp, #16
 800138e:	bd80      	pop	{r7, pc}

08001390 <_ZNK9__gnu_cxx13new_allocatorI10TouchBoardE8max_sizeEv>:
#endif
	::operator delete(__p);
      }

      size_type
      max_size() const _GLIBCXX_USE_NOEXCEPT
 8001390:	b580      	push	{r7, lr}
 8001392:	b082      	sub	sp, #8
 8001394:	af00      	add	r7, sp, #0
 8001396:	6078      	str	r0, [r7, #4]
      {
#if __PTRDIFF_MAX__ < __SIZE_MAX__
	return size_t(__PTRDIFF_MAX__) / sizeof(_Tp);
 8001398:	4b02      	ldr	r3, [pc, #8]	; (80013a4 <_ZNK9__gnu_cxx13new_allocatorI10TouchBoardE8max_sizeEv+0x14>)
#else
	return size_t(-1) / sizeof(_Tp);
#endif
      }
 800139a:	0018      	movs	r0, r3
 800139c:	46bd      	mov	sp, r7
 800139e:	b002      	add	sp, #8
 80013a0:	bd80      	pop	{r7, pc}
 80013a2:	46c0      	nop			; (mov r8, r8)
 80013a4:	0fffffff 	.word	0x0fffffff

080013a8 <_ZNSt16allocator_traitsISaI10TouchBoardEE8allocateERS1_j>:
      allocate(allocator_type& __a, size_type __n)
 80013a8:	b580      	push	{r7, lr}
 80013aa:	b082      	sub	sp, #8
 80013ac:	af00      	add	r7, sp, #0
 80013ae:	6078      	str	r0, [r7, #4]
 80013b0:	6039      	str	r1, [r7, #0]
      { return __a.allocate(__n); }
 80013b2:	6839      	ldr	r1, [r7, #0]
 80013b4:	687b      	ldr	r3, [r7, #4]
 80013b6:	2200      	movs	r2, #0
 80013b8:	0018      	movs	r0, r3
 80013ba:	f000 f89f 	bl	80014fc <_ZN9__gnu_cxx13new_allocatorI10TouchBoardE8allocateEjPKv>
 80013be:	0003      	movs	r3, r0
 80013c0:	0018      	movs	r0, r3
 80013c2:	46bd      	mov	sp, r7
 80013c4:	b002      	add	sp, #8
 80013c6:	bd80      	pop	{r7, pc}

080013c8 <_ZN9__gnu_cxx13new_allocatorI10TouchBoardE10deallocateEPS1_j>:
      deallocate(pointer __p, size_type)
 80013c8:	b580      	push	{r7, lr}
 80013ca:	b084      	sub	sp, #16
 80013cc:	af00      	add	r7, sp, #0
 80013ce:	60f8      	str	r0, [r7, #12]
 80013d0:	60b9      	str	r1, [r7, #8]
 80013d2:	607a      	str	r2, [r7, #4]
	::operator delete(__p);
 80013d4:	68bb      	ldr	r3, [r7, #8]
 80013d6:	0018      	movs	r0, r3
 80013d8:	f003 fffa 	bl	80053d0 <_ZdlPv>
      }
 80013dc:	46c0      	nop			; (mov r8, r8)
 80013de:	46bd      	mov	sp, r7
 80013e0:	b004      	add	sp, #16
 80013e2:	bd80      	pop	{r7, pc}

080013e4 <_ZNSt27__uninitialized_default_n_1ILb0EE18__uninit_default_nIP10TouchBoardjEET_S4_T0_>:
        __uninit_default_n(_ForwardIterator __first, _Size __n)
 80013e4:	b580      	push	{r7, lr}
 80013e6:	b084      	sub	sp, #16
 80013e8:	af00      	add	r7, sp, #0
 80013ea:	6078      	str	r0, [r7, #4]
 80013ec:	6039      	str	r1, [r7, #0]
	  _ForwardIterator __cur = __first;
 80013ee:	687b      	ldr	r3, [r7, #4]
 80013f0:	60fb      	str	r3, [r7, #12]
	      for (; __n > 0; --__n, (void) ++__cur)
 80013f2:	683b      	ldr	r3, [r7, #0]
 80013f4:	2b00      	cmp	r3, #0
 80013f6:	d00e      	beq.n	8001416 <_ZNSt27__uninitialized_default_n_1ILb0EE18__uninit_default_nIP10TouchBoardjEET_S4_T0_+0x32>
		std::_Construct(std::__addressof(*__cur));
 80013f8:	68fb      	ldr	r3, [r7, #12]
 80013fa:	0018      	movs	r0, r3
 80013fc:	f000 f810 	bl	8001420 <_ZSt11__addressofI10TouchBoardEPT_RS1_>
 8001400:	0003      	movs	r3, r0
 8001402:	0018      	movs	r0, r3
 8001404:	f000 f898 	bl	8001538 <_ZSt10_ConstructI10TouchBoardJEEvPT_DpOT0_>
	      for (; __n > 0; --__n, (void) ++__cur)
 8001408:	683b      	ldr	r3, [r7, #0]
 800140a:	3b01      	subs	r3, #1
 800140c:	603b      	str	r3, [r7, #0]
 800140e:	68fb      	ldr	r3, [r7, #12]
 8001410:	3308      	adds	r3, #8
 8001412:	60fb      	str	r3, [r7, #12]
 8001414:	e7ed      	b.n	80013f2 <_ZNSt27__uninitialized_default_n_1ILb0EE18__uninit_default_nIP10TouchBoardjEET_S4_T0_+0xe>
	      return __cur;
 8001416:	68fb      	ldr	r3, [r7, #12]
	}
 8001418:	0018      	movs	r0, r3
 800141a:	46bd      	mov	sp, r7
 800141c:	b004      	add	sp, #16
 800141e:	bd80      	pop	{r7, pc}

08001420 <_ZSt11__addressofI10TouchBoardEPT_RS1_>:
   *  @brief Same as C++11 std::addressof
   *  @ingroup utilities
   */
  template<typename _Tp>
    inline _GLIBCXX_CONSTEXPR _Tp*
    __addressof(_Tp& __r) _GLIBCXX_NOEXCEPT
 8001420:	b580      	push	{r7, lr}
 8001422:	b082      	sub	sp, #8
 8001424:	af00      	add	r7, sp, #0
 8001426:	6078      	str	r0, [r7, #4]
    { return __builtin_addressof(__r); }
 8001428:	687b      	ldr	r3, [r7, #4]
 800142a:	0018      	movs	r0, r3
 800142c:	46bd      	mov	sp, r7
 800142e:	b002      	add	sp, #8
 8001430:	bd80      	pop	{r7, pc}

08001432 <_ZSt8_DestroyI10TouchBoardEvPT_>:
    _Destroy(_Tp* __pointer)
 8001432:	b580      	push	{r7, lr}
 8001434:	b082      	sub	sp, #8
 8001436:	af00      	add	r7, sp, #0
 8001438:	6078      	str	r0, [r7, #4]
    { __pointer->~_Tp(); }
 800143a:	687b      	ldr	r3, [r7, #4]
 800143c:	0018      	movs	r0, r3
 800143e:	f7ff f818 	bl	8000472 <_ZN10TouchBoardD1Ev>
 8001442:	46c0      	nop			; (mov r8, r8)
 8001444:	46bd      	mov	sp, r7
 8001446:	b002      	add	sp, #8
 8001448:	bd80      	pop	{r7, pc}
	...

0800144c <_ZNK9__gnu_cxx13new_allocatorI15TouchState_enumE8max_sizeEv>:
      max_size() const _GLIBCXX_USE_NOEXCEPT
 800144c:	b580      	push	{r7, lr}
 800144e:	b082      	sub	sp, #8
 8001450:	af00      	add	r7, sp, #0
 8001452:	6078      	str	r0, [r7, #4]
	return size_t(__PTRDIFF_MAX__) / sizeof(_Tp);
 8001454:	4b02      	ldr	r3, [pc, #8]	; (8001460 <_ZNK9__gnu_cxx13new_allocatorI15TouchState_enumE8max_sizeEv+0x14>)
      }
 8001456:	0018      	movs	r0, r3
 8001458:	46bd      	mov	sp, r7
 800145a:	b002      	add	sp, #8
 800145c:	bd80      	pop	{r7, pc}
 800145e:	46c0      	nop			; (mov r8, r8)
 8001460:	7fffffff 	.word	0x7fffffff

08001464 <_ZNSt16allocator_traitsISaI15TouchState_enumEE8allocateERS1_j>:
      allocate(allocator_type& __a, size_type __n)
 8001464:	b580      	push	{r7, lr}
 8001466:	b082      	sub	sp, #8
 8001468:	af00      	add	r7, sp, #0
 800146a:	6078      	str	r0, [r7, #4]
 800146c:	6039      	str	r1, [r7, #0]
      { return __a.allocate(__n); }
 800146e:	6839      	ldr	r1, [r7, #0]
 8001470:	687b      	ldr	r3, [r7, #4]
 8001472:	2200      	movs	r2, #0
 8001474:	0018      	movs	r0, r3
 8001476:	f000 f870 	bl	800155a <_ZN9__gnu_cxx13new_allocatorI15TouchState_enumE8allocateEjPKv>
 800147a:	0003      	movs	r3, r0
 800147c:	0018      	movs	r0, r3
 800147e:	46bd      	mov	sp, r7
 8001480:	b002      	add	sp, #8
 8001482:	bd80      	pop	{r7, pc}

08001484 <_ZN9__gnu_cxx13new_allocatorI15TouchState_enumE10deallocateEPS1_j>:
      deallocate(pointer __p, size_type)
 8001484:	b580      	push	{r7, lr}
 8001486:	b084      	sub	sp, #16
 8001488:	af00      	add	r7, sp, #0
 800148a:	60f8      	str	r0, [r7, #12]
 800148c:	60b9      	str	r1, [r7, #8]
 800148e:	607a      	str	r2, [r7, #4]
	::operator delete(__p);
 8001490:	68bb      	ldr	r3, [r7, #8]
 8001492:	0018      	movs	r0, r3
 8001494:	f003 ff9c 	bl	80053d0 <_ZdlPv>
      }
 8001498:	46c0      	nop			; (mov r8, r8)
 800149a:	46bd      	mov	sp, r7
 800149c:	b004      	add	sp, #16
 800149e:	bd80      	pop	{r7, pc}

080014a0 <_ZNSt27__uninitialized_default_n_1ILb1EE18__uninit_default_nIP15TouchState_enumjEET_S4_T0_>:
        __uninit_default_n(_ForwardIterator __first, _Size __n)
 80014a0:	b580      	push	{r7, lr}
 80014a2:	b084      	sub	sp, #16
 80014a4:	af00      	add	r7, sp, #0
 80014a6:	6078      	str	r0, [r7, #4]
 80014a8:	6039      	str	r1, [r7, #0]
	  return std::fill_n(__first, __n, _ValueType());
 80014aa:	210f      	movs	r1, #15
 80014ac:	187b      	adds	r3, r7, r1
 80014ae:	2200      	movs	r2, #0
 80014b0:	701a      	strb	r2, [r3, #0]
 80014b2:	187a      	adds	r2, r7, r1
 80014b4:	6839      	ldr	r1, [r7, #0]
 80014b6:	687b      	ldr	r3, [r7, #4]
 80014b8:	0018      	movs	r0, r3
 80014ba:	f000 f86b 	bl	8001594 <_ZSt6fill_nIP15TouchState_enumjS0_ET_S2_T0_RKT1_>
 80014be:	0003      	movs	r3, r0
	}
 80014c0:	0018      	movs	r0, r3
 80014c2:	46bd      	mov	sp, r7
 80014c4:	b004      	add	sp, #16
 80014c6:	bd80      	pop	{r7, pc}

080014c8 <_ZSt4copyIN9__gnu_cxx17__normal_iteratorIPK15TouchState_enumSt6vectorIS2_SaIS2_EEEEPS2_ET0_T_SB_SA_>:
   *  Note that the end of the output range is permitted to be contained
   *  within [first,last).
  */
  template<typename _II, typename _OI>
    inline _OI
    copy(_II __first, _II __last, _OI __result)
 80014c8:	b590      	push	{r4, r7, lr}
 80014ca:	b085      	sub	sp, #20
 80014cc:	af00      	add	r7, sp, #0
 80014ce:	60f8      	str	r0, [r7, #12]
 80014d0:	60b9      	str	r1, [r7, #8]
 80014d2:	607a      	str	r2, [r7, #4]
      __glibcxx_function_requires(_OutputIteratorConcept<_OI,
	    typename iterator_traits<_II>::value_type>)
      __glibcxx_requires_can_increment_range(__first, __last, __result);

      return std::__copy_move_a2<__is_move_iterator<_II>::__value>
	     (std::__miter_base(__first), std::__miter_base(__last), __result);
 80014d4:	68fb      	ldr	r3, [r7, #12]
 80014d6:	0018      	movs	r0, r3
 80014d8:	f000 f877 	bl	80015ca <_ZSt12__miter_baseIN9__gnu_cxx17__normal_iteratorIPK15TouchState_enumSt6vectorIS2_SaIS2_EEEEET_S9_>
 80014dc:	0004      	movs	r4, r0
 80014de:	68bb      	ldr	r3, [r7, #8]
 80014e0:	0018      	movs	r0, r3
 80014e2:	f000 f872 	bl	80015ca <_ZSt12__miter_baseIN9__gnu_cxx17__normal_iteratorIPK15TouchState_enumSt6vectorIS2_SaIS2_EEEEET_S9_>
 80014e6:	0001      	movs	r1, r0
 80014e8:	687b      	ldr	r3, [r7, #4]
 80014ea:	001a      	movs	r2, r3
 80014ec:	0020      	movs	r0, r4
 80014ee:	f000 f875 	bl	80015dc <_ZSt14__copy_move_a2ILb0EN9__gnu_cxx17__normal_iteratorIPK15TouchState_enumSt6vectorIS2_SaIS2_EEEEPS2_ET1_T0_SB_SA_>
 80014f2:	0003      	movs	r3, r0
    }
 80014f4:	0018      	movs	r0, r3
 80014f6:	46bd      	mov	sp, r7
 80014f8:	b005      	add	sp, #20
 80014fa:	bd90      	pop	{r4, r7, pc}

080014fc <_ZN9__gnu_cxx13new_allocatorI10TouchBoardE8allocateEjPKv>:
      allocate(size_type __n, const void* = static_cast<const void*>(0))
 80014fc:	b580      	push	{r7, lr}
 80014fe:	b084      	sub	sp, #16
 8001500:	af00      	add	r7, sp, #0
 8001502:	60f8      	str	r0, [r7, #12]
 8001504:	60b9      	str	r1, [r7, #8]
 8001506:	607a      	str	r2, [r7, #4]
	if (__n > this->max_size())
 8001508:	68fb      	ldr	r3, [r7, #12]
 800150a:	0018      	movs	r0, r3
 800150c:	f7ff ff40 	bl	8001390 <_ZNK9__gnu_cxx13new_allocatorI10TouchBoardE8max_sizeEv>
 8001510:	0002      	movs	r2, r0
 8001512:	68bb      	ldr	r3, [r7, #8]
 8001514:	429a      	cmp	r2, r3
 8001516:	419b      	sbcs	r3, r3
 8001518:	425b      	negs	r3, r3
 800151a:	b2db      	uxtb	r3, r3
 800151c:	2b00      	cmp	r3, #0
 800151e:	d001      	beq.n	8001524 <_ZN9__gnu_cxx13new_allocatorI10TouchBoardE8allocateEjPKv+0x28>
	  std::__throw_bad_alloc();
 8001520:	f003 ff6c 	bl	80053fc <_ZSt17__throw_bad_allocv>
	return static_cast<_Tp*>(::operator new(__n * sizeof(_Tp)));
 8001524:	68bb      	ldr	r3, [r7, #8]
 8001526:	00db      	lsls	r3, r3, #3
 8001528:	0018      	movs	r0, r3
 800152a:	f003 ff55 	bl	80053d8 <_Znwj>
 800152e:	0003      	movs	r3, r0
      }
 8001530:	0018      	movs	r0, r3
 8001532:	46bd      	mov	sp, r7
 8001534:	b004      	add	sp, #16
 8001536:	bd80      	pop	{r7, pc}

08001538 <_ZSt10_ConstructI10TouchBoardJEEvPT_DpOT0_>:
    _Construct(_T1* __p, _Args&&... __args)
 8001538:	b580      	push	{r7, lr}
 800153a:	b082      	sub	sp, #8
 800153c:	af00      	add	r7, sp, #0
 800153e:	6078      	str	r0, [r7, #4]
    { ::new(static_cast<void*>(__p)) _T1(std::forward<_Args>(__args)...); }
 8001540:	687b      	ldr	r3, [r7, #4]
 8001542:	0019      	movs	r1, r3
 8001544:	2008      	movs	r0, #8
 8001546:	f7ff f84d 	bl	80005e4 <_ZnwjPv>
 800154a:	0003      	movs	r3, r0
 800154c:	0018      	movs	r0, r3
 800154e:	f7fe ff5f 	bl	8000410 <_ZN10TouchBoardC1Ev>
 8001552:	46c0      	nop			; (mov r8, r8)
 8001554:	46bd      	mov	sp, r7
 8001556:	b002      	add	sp, #8
 8001558:	bd80      	pop	{r7, pc}

0800155a <_ZN9__gnu_cxx13new_allocatorI15TouchState_enumE8allocateEjPKv>:
      allocate(size_type __n, const void* = static_cast<const void*>(0))
 800155a:	b580      	push	{r7, lr}
 800155c:	b084      	sub	sp, #16
 800155e:	af00      	add	r7, sp, #0
 8001560:	60f8      	str	r0, [r7, #12]
 8001562:	60b9      	str	r1, [r7, #8]
 8001564:	607a      	str	r2, [r7, #4]
	if (__n > this->max_size())
 8001566:	68fb      	ldr	r3, [r7, #12]
 8001568:	0018      	movs	r0, r3
 800156a:	f7ff ff6f 	bl	800144c <_ZNK9__gnu_cxx13new_allocatorI15TouchState_enumE8max_sizeEv>
 800156e:	0002      	movs	r2, r0
 8001570:	68bb      	ldr	r3, [r7, #8]
 8001572:	429a      	cmp	r2, r3
 8001574:	419b      	sbcs	r3, r3
 8001576:	425b      	negs	r3, r3
 8001578:	b2db      	uxtb	r3, r3
 800157a:	2b00      	cmp	r3, #0
 800157c:	d001      	beq.n	8001582 <_ZN9__gnu_cxx13new_allocatorI15TouchState_enumE8allocateEjPKv+0x28>
	  std::__throw_bad_alloc();
 800157e:	f003 ff3d 	bl	80053fc <_ZSt17__throw_bad_allocv>
	return static_cast<_Tp*>(::operator new(__n * sizeof(_Tp)));
 8001582:	68bb      	ldr	r3, [r7, #8]
 8001584:	0018      	movs	r0, r3
 8001586:	f003 ff27 	bl	80053d8 <_Znwj>
 800158a:	0003      	movs	r3, r0
      }
 800158c:	0018      	movs	r0, r3
 800158e:	46bd      	mov	sp, r7
 8001590:	b004      	add	sp, #16
 8001592:	bd80      	pop	{r7, pc}

08001594 <_ZSt6fill_nIP15TouchState_enumjS0_ET_S2_T0_RKT1_>:
   *  _GLIBCXX_RESOLVE_LIB_DEFECTS
   *  DR 865. More algorithms that throw away information
  */
  template<typename _OI, typename _Size, typename _Tp>
    inline _OI
    fill_n(_OI __first, _Size __n, const _Tp& __value)
 8001594:	b580      	push	{r7, lr}
 8001596:	b084      	sub	sp, #16
 8001598:	af00      	add	r7, sp, #0
 800159a:	60f8      	str	r0, [r7, #12]
 800159c:	60b9      	str	r1, [r7, #8]
 800159e:	607a      	str	r2, [r7, #4]
    {
      // concept requirements
      __glibcxx_function_requires(_OutputIteratorConcept<_OI, _Tp>)
      __glibcxx_requires_can_increment(__first, __n);

      return std::__niter_wrap(__first,
 80015a0:	68fb      	ldr	r3, [r7, #12]
 80015a2:	0018      	movs	r0, r3
 80015a4:	f000 f83f 	bl	8001626 <_ZSt12__niter_baseIP15TouchState_enumET_S2_>
 80015a8:	687a      	ldr	r2, [r7, #4]
 80015aa:	68bb      	ldr	r3, [r7, #8]
 80015ac:	0019      	movs	r1, r3
 80015ae:	f000 f843 	bl	8001638 <_ZSt10__fill_n_aIP15TouchState_enumjS0_EN9__gnu_cxx11__enable_ifIXntsrSt11__is_scalarIT1_E7__valueET_E6__typeES7_T0_RKS5_>
 80015b2:	0002      	movs	r2, r0
 80015b4:	230c      	movs	r3, #12
 80015b6:	18fb      	adds	r3, r7, r3
 80015b8:	0011      	movs	r1, r2
 80015ba:	0018      	movs	r0, r3
 80015bc:	f000 f857 	bl	800166e <_ZSt12__niter_wrapIP15TouchState_enumET_RKS2_S2_>
 80015c0:	0003      	movs	r3, r0
		std::__fill_n_a(std::__niter_base(__first), __n, __value));
    }
 80015c2:	0018      	movs	r0, r3
 80015c4:	46bd      	mov	sp, r7
 80015c6:	b004      	add	sp, #16
 80015c8:	bd80      	pop	{r7, pc}

080015ca <_ZSt12__miter_baseIN9__gnu_cxx17__normal_iteratorIPK15TouchState_enumSt6vectorIS2_SaIS2_EEEEET_S9_>:

  // Fallback implementation of the function in bits/stl_iterator.h used to
  // remove the move_iterator wrapper.
  template<typename _Iterator>
    inline _Iterator
    __miter_base(_Iterator __it)
 80015ca:	b580      	push	{r7, lr}
 80015cc:	b082      	sub	sp, #8
 80015ce:	af00      	add	r7, sp, #0
 80015d0:	6078      	str	r0, [r7, #4]
    { return __it; }
 80015d2:	687b      	ldr	r3, [r7, #4]
 80015d4:	0018      	movs	r0, r3
 80015d6:	46bd      	mov	sp, r7
 80015d8:	b002      	add	sp, #8
 80015da:	bd80      	pop	{r7, pc}

080015dc <_ZSt14__copy_move_a2ILb0EN9__gnu_cxx17__normal_iteratorIPK15TouchState_enumSt6vectorIS2_SaIS2_EEEEPS2_ET1_T0_SB_SA_>:
    __copy_move_a2(_II __first, _II __last, _OI __result)
 80015dc:	b5b0      	push	{r4, r5, r7, lr}
 80015de:	b084      	sub	sp, #16
 80015e0:	af00      	add	r7, sp, #0
 80015e2:	60f8      	str	r0, [r7, #12]
 80015e4:	60b9      	str	r1, [r7, #8]
 80015e6:	607a      	str	r2, [r7, #4]
      return std::__niter_wrap(__result,
 80015e8:	68fb      	ldr	r3, [r7, #12]
 80015ea:	0018      	movs	r0, r3
 80015ec:	f000 f849 	bl	8001682 <_ZSt12__niter_baseIPK15TouchState_enumSt6vectorIS0_SaIS0_EEET_N9__gnu_cxx17__normal_iteratorIS6_T0_EE>
 80015f0:	0004      	movs	r4, r0
 80015f2:	68bb      	ldr	r3, [r7, #8]
 80015f4:	0018      	movs	r0, r3
 80015f6:	f000 f844 	bl	8001682 <_ZSt12__niter_baseIPK15TouchState_enumSt6vectorIS0_SaIS0_EEET_N9__gnu_cxx17__normal_iteratorIS6_T0_EE>
 80015fa:	0005      	movs	r5, r0
 80015fc:	687b      	ldr	r3, [r7, #4]
 80015fe:	0018      	movs	r0, r3
 8001600:	f000 f811 	bl	8001626 <_ZSt12__niter_baseIP15TouchState_enumET_S2_>
 8001604:	0003      	movs	r3, r0
 8001606:	001a      	movs	r2, r3
 8001608:	0029      	movs	r1, r5
 800160a:	0020      	movs	r0, r4
 800160c:	f000 f847 	bl	800169e <_ZSt13__copy_move_aILb0EPK15TouchState_enumPS0_ET1_T0_S5_S4_>
 8001610:	0002      	movs	r2, r0
 8001612:	1d3b      	adds	r3, r7, #4
 8001614:	0011      	movs	r1, r2
 8001616:	0018      	movs	r0, r3
 8001618:	f000 f829 	bl	800166e <_ZSt12__niter_wrapIP15TouchState_enumET_RKS2_S2_>
 800161c:	0003      	movs	r3, r0
    }
 800161e:	0018      	movs	r0, r3
 8001620:	46bd      	mov	sp, r7
 8001622:	b004      	add	sp, #16
 8001624:	bdb0      	pop	{r4, r5, r7, pc}

08001626 <_ZSt12__niter_baseIP15TouchState_enumET_S2_>:
    __niter_base(_Iterator __it)
 8001626:	b580      	push	{r7, lr}
 8001628:	b082      	sub	sp, #8
 800162a:	af00      	add	r7, sp, #0
 800162c:	6078      	str	r0, [r7, #4]
    { return __it; }
 800162e:	687b      	ldr	r3, [r7, #4]
 8001630:	0018      	movs	r0, r3
 8001632:	46bd      	mov	sp, r7
 8001634:	b002      	add	sp, #8
 8001636:	bd80      	pop	{r7, pc}

08001638 <_ZSt10__fill_n_aIP15TouchState_enumjS0_EN9__gnu_cxx11__enable_ifIXntsrSt11__is_scalarIT1_E7__valueET_E6__typeES7_T0_RKS5_>:
    __fill_n_a(_OutputIterator __first, _Size __n, const _Tp& __value)
 8001638:	b580      	push	{r7, lr}
 800163a:	b086      	sub	sp, #24
 800163c:	af00      	add	r7, sp, #0
 800163e:	60f8      	str	r0, [r7, #12]
 8001640:	60b9      	str	r1, [r7, #8]
 8001642:	607a      	str	r2, [r7, #4]
      for (__decltype(__n + 0) __niter = __n;
 8001644:	68bb      	ldr	r3, [r7, #8]
 8001646:	617b      	str	r3, [r7, #20]
	   __niter > 0; --__niter, (void) ++__first)
 8001648:	697b      	ldr	r3, [r7, #20]
 800164a:	2b00      	cmp	r3, #0
 800164c:	d00a      	beq.n	8001664 <_ZSt10__fill_n_aIP15TouchState_enumjS0_EN9__gnu_cxx11__enable_ifIXntsrSt11__is_scalarIT1_E7__valueET_E6__typeES7_T0_RKS5_+0x2c>
	*__first = __value;
 800164e:	687b      	ldr	r3, [r7, #4]
 8001650:	781a      	ldrb	r2, [r3, #0]
 8001652:	68fb      	ldr	r3, [r7, #12]
 8001654:	701a      	strb	r2, [r3, #0]
      for (__decltype(__n + 0) __niter = __n;
 8001656:	697b      	ldr	r3, [r7, #20]
 8001658:	3b01      	subs	r3, #1
 800165a:	617b      	str	r3, [r7, #20]
 800165c:	68fb      	ldr	r3, [r7, #12]
 800165e:	3301      	adds	r3, #1
 8001660:	60fb      	str	r3, [r7, #12]
 8001662:	e7f1      	b.n	8001648 <_ZSt10__fill_n_aIP15TouchState_enumjS0_EN9__gnu_cxx11__enable_ifIXntsrSt11__is_scalarIT1_E7__valueET_E6__typeES7_T0_RKS5_+0x10>
      return __first;
 8001664:	68fb      	ldr	r3, [r7, #12]
    }
 8001666:	0018      	movs	r0, r3
 8001668:	46bd      	mov	sp, r7
 800166a:	b006      	add	sp, #24
 800166c:	bd80      	pop	{r7, pc}

0800166e <_ZSt12__niter_wrapIP15TouchState_enumET_RKS2_S2_>:
    __niter_wrap(const _Iterator&, _Iterator __res)
 800166e:	b580      	push	{r7, lr}
 8001670:	b082      	sub	sp, #8
 8001672:	af00      	add	r7, sp, #0
 8001674:	6078      	str	r0, [r7, #4]
 8001676:	6039      	str	r1, [r7, #0]
    { return __res; }
 8001678:	683b      	ldr	r3, [r7, #0]
 800167a:	0018      	movs	r0, r3
 800167c:	46bd      	mov	sp, r7
 800167e:	b002      	add	sp, #8
 8001680:	bd80      	pop	{r7, pc}

08001682 <_ZSt12__niter_baseIPK15TouchState_enumSt6vectorIS0_SaIS0_EEET_N9__gnu_cxx17__normal_iteratorIS6_T0_EE>:
{
_GLIBCXX_BEGIN_NAMESPACE_VERSION

  template<typename _Iterator, typename _Container>
    _Iterator
    __niter_base(__gnu_cxx::__normal_iterator<_Iterator, _Container> __it)
 8001682:	b580      	push	{r7, lr}
 8001684:	b082      	sub	sp, #8
 8001686:	af00      	add	r7, sp, #0
 8001688:	6078      	str	r0, [r7, #4]
    _GLIBCXX_NOEXCEPT_IF(std::is_nothrow_copy_constructible<_Iterator>::value)
    { return __it.base(); }
 800168a:	1d3b      	adds	r3, r7, #4
 800168c:	0018      	movs	r0, r3
 800168e:	f000 f81b 	bl	80016c8 <_ZNK9__gnu_cxx17__normal_iteratorIPK15TouchState_enumSt6vectorIS1_SaIS1_EEE4baseEv>
 8001692:	0003      	movs	r3, r0
 8001694:	681b      	ldr	r3, [r3, #0]
 8001696:	0018      	movs	r0, r3
 8001698:	46bd      	mov	sp, r7
 800169a:	b002      	add	sp, #8
 800169c:	bd80      	pop	{r7, pc}

0800169e <_ZSt13__copy_move_aILb0EPK15TouchState_enumPS0_ET1_T0_S5_S4_>:
    __copy_move_a(_II __first, _II __last, _OI __result)
 800169e:	b580      	push	{r7, lr}
 80016a0:	b086      	sub	sp, #24
 80016a2:	af00      	add	r7, sp, #0
 80016a4:	60f8      	str	r0, [r7, #12]
 80016a6:	60b9      	str	r1, [r7, #8]
 80016a8:	607a      	str	r2, [r7, #4]
      const bool __simple = (__is_trivially_copyable(_ValueTypeI)
 80016aa:	2317      	movs	r3, #23
 80016ac:	18fb      	adds	r3, r7, r3
 80016ae:	2201      	movs	r2, #1
 80016b0:	701a      	strb	r2, [r3, #0]
			      _Category>::__copy_m(__first, __last, __result);
 80016b2:	687a      	ldr	r2, [r7, #4]
 80016b4:	68b9      	ldr	r1, [r7, #8]
 80016b6:	68fb      	ldr	r3, [r7, #12]
 80016b8:	0018      	movs	r0, r3
 80016ba:	f000 f80e 	bl	80016da <_ZNSt11__copy_moveILb0ELb1ESt26random_access_iterator_tagE8__copy_mI15TouchState_enumEEPT_PKS4_S7_S5_>
 80016be:	0003      	movs	r3, r0
    }
 80016c0:	0018      	movs	r0, r3
 80016c2:	46bd      	mov	sp, r7
 80016c4:	b006      	add	sp, #24
 80016c6:	bd80      	pop	{r7, pc}

080016c8 <_ZNK9__gnu_cxx17__normal_iteratorIPK15TouchState_enumSt6vectorIS1_SaIS1_EEE4baseEv>:
      base() const _GLIBCXX_NOEXCEPT
 80016c8:	b580      	push	{r7, lr}
 80016ca:	b082      	sub	sp, #8
 80016cc:	af00      	add	r7, sp, #0
 80016ce:	6078      	str	r0, [r7, #4]
      { return _M_current; }
 80016d0:	687b      	ldr	r3, [r7, #4]
 80016d2:	0018      	movs	r0, r3
 80016d4:	46bd      	mov	sp, r7
 80016d6:	b002      	add	sp, #8
 80016d8:	bd80      	pop	{r7, pc}

080016da <_ZNSt11__copy_moveILb0ELb1ESt26random_access_iterator_tagE8__copy_mI15TouchState_enumEEPT_PKS4_S7_S5_>:
	__copy_m(const _Tp* __first, const _Tp* __last, _Tp* __result)
 80016da:	b580      	push	{r7, lr}
 80016dc:	b086      	sub	sp, #24
 80016de:	af00      	add	r7, sp, #0
 80016e0:	60f8      	str	r0, [r7, #12]
 80016e2:	60b9      	str	r1, [r7, #8]
 80016e4:	607a      	str	r2, [r7, #4]
	  const ptrdiff_t _Num = __last - __first;
 80016e6:	68ba      	ldr	r2, [r7, #8]
 80016e8:	68fb      	ldr	r3, [r7, #12]
 80016ea:	1ad3      	subs	r3, r2, r3
 80016ec:	617b      	str	r3, [r7, #20]
	  if (_Num)
 80016ee:	697b      	ldr	r3, [r7, #20]
 80016f0:	2b00      	cmp	r3, #0
 80016f2:	d005      	beq.n	8001700 <_ZNSt11__copy_moveILb0ELb1ESt26random_access_iterator_tagE8__copy_mI15TouchState_enumEEPT_PKS4_S7_S5_+0x26>
	    __builtin_memmove(__result, __first, sizeof(_Tp) * _Num);
 80016f4:	697a      	ldr	r2, [r7, #20]
 80016f6:	68f9      	ldr	r1, [r7, #12]
 80016f8:	687b      	ldr	r3, [r7, #4]
 80016fa:	0018      	movs	r0, r3
 80016fc:	f003 fed9 	bl	80054b2 <memmove>
	  return __result + _Num;
 8001700:	697b      	ldr	r3, [r7, #20]
 8001702:	687a      	ldr	r2, [r7, #4]
 8001704:	18d3      	adds	r3, r2, r3
	}
 8001706:	0018      	movs	r0, r3
 8001708:	46bd      	mov	sp, r7
 800170a:	b006      	add	sp, #24
 800170c:	bd80      	pop	{r7, pc}
	...

08001710 <main>:
/**
  * @brief  The application entry point.
  * @retval int
  */
int main(void)
{
 8001710:	b590      	push	{r4, r7, lr}
 8001712:	b08b      	sub	sp, #44	; 0x2c
 8001714:	af02      	add	r7, sp, #8
  /* USER CODE END 1 */

  /* MCU Configuration--------------------------------------------------------*/

  /* Reset of all peripherals, Initializes the Flash interface and the Systick. */
  HAL_Init();
 8001716:	f000 ffeb 	bl	80026f0 <HAL_Init>
  /* USER CODE BEGIN Init */

  /* USER CODE END Init */

  /* Configure the system clock */
  SystemClock_Config();
 800171a:	f000 f8c1 	bl	80018a0 <_Z18SystemClock_Configv>
  /* USER CODE BEGIN SysInit */

  /* USER CODE END SysInit */

  /* Initialize all configured peripherals */
  MX_GPIO_Init();
 800171e:	f000 fab3 	bl	8001c88 <_ZL12MX_GPIO_Initv>
  MX_DMA_Init();
 8001722:	f000 fa83 	bl	8001c2c <_ZL11MX_DMA_Initv>
  MX_I2S2_Init();
 8001726:	f000 f91f 	bl	8001968 <_ZL12MX_I2S2_Initv>
  MX_SPI1_Init();
 800172a:	f000 f94b 	bl	80019c4 <_ZL12MX_SPI1_Initv>
  MX_TSC_Init();
 800172e:	f000 fa33 	bl	8001b98 <_ZL11MX_TSC_Initv>
  MX_TOUCHSENSING_Init();
 8001732:	f003 fdf9 	bl	8005328 <MX_TOUCHSENSING_Init>
  MX_TIM2_Init();
 8001736:	f000 f981 	bl	8001a3c <_ZL12MX_TIM2_Initv>
  /* USER CODE BEGIN 2 */
  
  // Init ST touch application
  tsl_user_Init();
 800173a:	f003 fdfb 	bl	8005334 <tsl_user_Init>

  // Mount SD Card
  HAL_GPIO_WritePin(SD_SPI1_CS_N_GPIO_Port, SD_SPI1_CS_N_Pin, GPIO_PIN_SET);
 800173e:	2380      	movs	r3, #128	; 0x80
 8001740:	0219      	lsls	r1, r3, #8
 8001742:	23a0      	movs	r3, #160	; 0xa0
 8001744:	05db      	lsls	r3, r3, #23
 8001746:	2201      	movs	r2, #1
 8001748:	0018      	movs	r0, r3
 800174a:	f001 f9df 	bl	8002b0c <HAL_GPIO_WritePin>
  FRESULT fr;
  fr = f_mount(&FatFs, "", 1);
 800174e:	2313      	movs	r3, #19
 8001750:	18fc      	adds	r4, r7, r3
 8001752:	494e      	ldr	r1, [pc, #312]	; (800188c <main+0x17c>)
 8001754:	4b4e      	ldr	r3, [pc, #312]	; (8001890 <main+0x180>)
 8001756:	2201      	movs	r2, #1
 8001758:	0018      	movs	r0, r3
 800175a:	f003 fdbf 	bl	80052dc <f_mount>
 800175e:	0003      	movs	r3, r0
 8001760:	7023      	strb	r3, [r4, #0]

  HAL_GPIO_WritePin(TEST_LED_GPIO_Port, TEST_LED_Pin, GPIO_PIN_SET);
 8001762:	2380      	movs	r3, #128	; 0x80
 8001764:	00db      	lsls	r3, r3, #3
 8001766:	484b      	ldr	r0, [pc, #300]	; (8001894 <main+0x184>)
 8001768:	2201      	movs	r2, #1
 800176a:	0019      	movs	r1, r3
 800176c:	f001 f9ce 	bl	8002b0c <HAL_GPIO_WritePin>
  HAL_Delay(500);
 8001770:	23fa      	movs	r3, #250	; 0xfa
 8001772:	005b      	lsls	r3, r3, #1
 8001774:	0018      	movs	r0, r3
 8001776:	f000 ffdd 	bl	8002734 <HAL_Delay>

  /* USER CODE END 2 */

  /* Infinite loop */
  /* USER CODE BEGIN WHILE */
  tsl_user_Exec();
 800177a:	f003 fde7 	bl	800534c <tsl_user_Exec>
  touchGroup0.setAllPixelColor(0,0,255);
 800177e:	4846      	ldr	r0, [pc, #280]	; (8001898 <main+0x188>)
 8001780:	23ff      	movs	r3, #255	; 0xff
 8001782:	2200      	movs	r2, #0
 8001784:	2100      	movs	r1, #0
 8001786:	f7fe ffe7 	bl	8000758 <_ZN15TouchBoardGroup16setAllPixelColorEhhh>
  touchGroup0.showPixels();
 800178a:	4b43      	ldr	r3, [pc, #268]	; (8001898 <main+0x188>)
 800178c:	0018      	movs	r0, r3
 800178e:	f7ff f842 	bl	8000816 <_ZN15TouchBoardGroup10showPixelsEv>
    rocketStreamL.setPixelColor(i, 0, 0, 255);
  }
  rocketStreamL.show();
  */

  tsl_user_Exec();
 8001792:	f003 fddb 	bl	800534c <tsl_user_Exec>
  bool touched = false;
 8001796:	231f      	movs	r3, #31
 8001798:	18fb      	adds	r3, r7, r3
 800179a:	2200      	movs	r2, #0
 800179c:	701a      	strb	r2, [r3, #0]
  bool touched_last = false;
 800179e:	231e      	movs	r3, #30
 80017a0:	18fb      	adds	r3, r7, r3
 80017a2:	2200      	movs	r2, #0
 80017a4:	701a      	strb	r2, [r3, #0]

  int board_touched = 0;
 80017a6:	2300      	movs	r3, #0
 80017a8:	61bb      	str	r3, [r7, #24]

  while (1)
  {

    tsl_user_Exec();
 80017aa:	f003 fdcf 	bl	800534c <tsl_user_Exec>
    touchGroup0.updateTouchStates();
 80017ae:	4b3a      	ldr	r3, [pc, #232]	; (8001898 <main+0x188>)
 80017b0:	0018      	movs	r0, r3
 80017b2:	f7ff f884 	bl	80008be <_ZN15TouchBoardGroup17updateTouchStatesEv>
    touchStates = touchGroup0.getTouchStates();
 80017b6:	1d3b      	adds	r3, r7, #4
 80017b8:	4a37      	ldr	r2, [pc, #220]	; (8001898 <main+0x188>)
 80017ba:	0011      	movs	r1, r2
 80017bc:	0018      	movs	r0, r3
 80017be:	f7ff f8a1 	bl	8000904 <_ZN15TouchBoardGroup14getTouchStatesEv>
 80017c2:	1d3a      	adds	r2, r7, #4
 80017c4:	4b35      	ldr	r3, [pc, #212]	; (800189c <main+0x18c>)
 80017c6:	0011      	movs	r1, r2
 80017c8:	0018      	movs	r0, r3
 80017ca:	f000 fb8e 	bl	8001eea <_ZNSt6vectorI15TouchState_enumSaIS0_EEaSEOS2_>
 80017ce:	1d3b      	adds	r3, r7, #4
 80017d0:	0018      	movs	r0, r3
 80017d2:	f7ff f95c 	bl	8000a8e <_ZNSt6vectorI15TouchState_enumSaIS0_EED1Ev>

    touched = false;
 80017d6:	231f      	movs	r3, #31
 80017d8:	18fb      	adds	r3, r7, r3
 80017da:	2200      	movs	r2, #0
 80017dc:	701a      	strb	r2, [r3, #0]
    for (int i=0; i<NUM_BOARDS; i++) {
 80017de:	2300      	movs	r3, #0
 80017e0:	617b      	str	r3, [r7, #20]
 80017e2:	697b      	ldr	r3, [r7, #20]
 80017e4:	2b17      	cmp	r3, #23
 80017e6:	dc17      	bgt.n	8001818 <main+0x108>
      if (touchStates[i] == TOUCHED) {
 80017e8:	697a      	ldr	r2, [r7, #20]
 80017ea:	4b2c      	ldr	r3, [pc, #176]	; (800189c <main+0x18c>)
 80017ec:	0011      	movs	r1, r2
 80017ee:	0018      	movs	r0, r3
 80017f0:	f7ff f976 	bl	8000ae0 <_ZNSt6vectorI15TouchState_enumSaIS0_EEixEj>
 80017f4:	0003      	movs	r3, r0
 80017f6:	781b      	ldrb	r3, [r3, #0]
 80017f8:	425a      	negs	r2, r3
 80017fa:	4153      	adcs	r3, r2
 80017fc:	b2db      	uxtb	r3, r3
 80017fe:	2b00      	cmp	r3, #0
 8001800:	d006      	beq.n	8001810 <main+0x100>
        touched = true;
 8001802:	231f      	movs	r3, #31
 8001804:	18fb      	adds	r3, r7, r3
 8001806:	2201      	movs	r2, #1
 8001808:	701a      	strb	r2, [r3, #0]
        board_touched = i;
 800180a:	697b      	ldr	r3, [r7, #20]
 800180c:	61bb      	str	r3, [r7, #24]
        break;
 800180e:	e003      	b.n	8001818 <main+0x108>
    for (int i=0; i<NUM_BOARDS; i++) {
 8001810:	697b      	ldr	r3, [r7, #20]
 8001812:	3301      	adds	r3, #1
 8001814:	617b      	str	r3, [r7, #20]
 8001816:	e7e4      	b.n	80017e2 <main+0xd2>
      }
    }


    if ((touched == true) && (touched_last == false))
 8001818:	231f      	movs	r3, #31
 800181a:	18fb      	adds	r3, r7, r3
 800181c:	781b      	ldrb	r3, [r3, #0]
 800181e:	2b01      	cmp	r3, #1
 8001820:	d112      	bne.n	8001848 <main+0x138>
 8001822:	231e      	movs	r3, #30
 8001824:	18fb      	adds	r3, r7, r3
 8001826:	781b      	ldrb	r3, [r3, #0]
 8001828:	2b00      	cmp	r3, #0
 800182a:	d10d      	bne.n	8001848 <main+0x138>
    {
      //touchGroup0.setAllPixelColor(0,255,0);
      //touchGroup0.showPixels();
      //touchGroup0.twinkleBoard(0);
      touchGroup0.setBoardColor(board_touched, 255, 100, 0);
 800182c:	69bb      	ldr	r3, [r7, #24]
 800182e:	b2d9      	uxtb	r1, r3
 8001830:	4819      	ldr	r0, [pc, #100]	; (8001898 <main+0x188>)
 8001832:	2300      	movs	r3, #0
 8001834:	9300      	str	r3, [sp, #0]
 8001836:	2364      	movs	r3, #100	; 0x64
 8001838:	22ff      	movs	r2, #255	; 0xff
 800183a:	f7fe ffc2 	bl	80007c2 <_ZN15TouchBoardGroup13setBoardColorEhhhh>
      touchGroup0.showPixels();
 800183e:	4b16      	ldr	r3, [pc, #88]	; (8001898 <main+0x188>)
 8001840:	0018      	movs	r0, r3
 8001842:	f7fe ffe8 	bl	8000816 <_ZN15TouchBoardGroup10showPixelsEv>
 8001846:	e016      	b.n	8001876 <main+0x166>
        rocketStreamL.setPixelColor(i, 255, 0, 0);
      }
      rocketStreamL.show();
      */
    }
    else if ((touched == false) && (touched_last == true))
 8001848:	231f      	movs	r3, #31
 800184a:	18fb      	adds	r3, r7, r3
 800184c:	781b      	ldrb	r3, [r3, #0]
 800184e:	2b00      	cmp	r3, #0
 8001850:	d111      	bne.n	8001876 <main+0x166>
 8001852:	231e      	movs	r3, #30
 8001854:	18fb      	adds	r3, r7, r3
 8001856:	781b      	ldrb	r3, [r3, #0]
 8001858:	2b01      	cmp	r3, #1
 800185a:	d10c      	bne.n	8001876 <main+0x166>
    { 
      //touchGroup0.setAllPixelColor(0,0,255);
      //touchGroup0.showPixels();
      touchGroup0.setBoardColor(board_touched, 0, 100, 255);
 800185c:	69bb      	ldr	r3, [r7, #24]
 800185e:	b2d9      	uxtb	r1, r3
 8001860:	480d      	ldr	r0, [pc, #52]	; (8001898 <main+0x188>)
 8001862:	23ff      	movs	r3, #255	; 0xff
 8001864:	9300      	str	r3, [sp, #0]
 8001866:	2364      	movs	r3, #100	; 0x64
 8001868:	2200      	movs	r2, #0
 800186a:	f7fe ffaa 	bl	80007c2 <_ZN15TouchBoardGroup13setBoardColorEhhhh>
      touchGroup0.showPixels();
 800186e:	4b0a      	ldr	r3, [pc, #40]	; (8001898 <main+0x188>)
 8001870:	0018      	movs	r0, r3
 8001872:	f7fe ffd0 	bl	8000816 <_ZN15TouchBoardGroup10showPixelsEv>
      rocketStreamL.show();
      */
    }


    touched_last = touched;
 8001876:	231e      	movs	r3, #30
 8001878:	18fb      	adds	r3, r7, r3
 800187a:	221f      	movs	r2, #31
 800187c:	18ba      	adds	r2, r7, r2
 800187e:	7812      	ldrb	r2, [r2, #0]
 8001880:	701a      	strb	r2, [r3, #0]
    }
    sw = !sw;
    */


    HAL_Delay(50);
 8001882:	2032      	movs	r0, #50	; 0x32
 8001884:	f000 ff56 	bl	8002734 <HAL_Delay>


	/* USER CODE END WHILE */

    /* USER CODE BEGIN 3 */
  }
 8001888:	e78f      	b.n	80017aa <main+0x9a>
 800188a:	46c0      	nop			; (mov r8, r8)
 800188c:	08005760 	.word	0x08005760
 8001890:	20000368 	.word	0x20000368
 8001894:	50001c00 	.word	0x50001c00
 8001898:	20000590 	.word	0x20000590
 800189c:	20000a50 	.word	0x20000a50

080018a0 <_Z18SystemClock_Configv>:
/**
  * @brief System Clock Configuration
  * @retval None
  */
void SystemClock_Config(void)
{
 80018a0:	b590      	push	{r4, r7, lr}
 80018a2:	b095      	sub	sp, #84	; 0x54
 80018a4:	af00      	add	r7, sp, #0
  RCC_OscInitTypeDef RCC_OscInitStruct = {0};
 80018a6:	2418      	movs	r4, #24
 80018a8:	193b      	adds	r3, r7, r4
 80018aa:	0018      	movs	r0, r3
 80018ac:	2338      	movs	r3, #56	; 0x38
 80018ae:	001a      	movs	r2, r3
 80018b0:	2100      	movs	r1, #0
 80018b2:	f003 fe11 	bl	80054d8 <memset>
  RCC_ClkInitTypeDef RCC_ClkInitStruct = {0};
 80018b6:	1d3b      	adds	r3, r7, #4
 80018b8:	0018      	movs	r0, r3
 80018ba:	2314      	movs	r3, #20
 80018bc:	001a      	movs	r2, r3
 80018be:	2100      	movs	r1, #0
 80018c0:	f003 fe0a 	bl	80054d8 <memset>

  /** Configure the main internal regulator output voltage
  */
  __HAL_PWR_VOLTAGESCALING_CONFIG(PWR_REGULATOR_VOLTAGE_SCALE1);
 80018c4:	4b26      	ldr	r3, [pc, #152]	; (8001960 <_Z18SystemClock_Configv+0xc0>)
 80018c6:	681b      	ldr	r3, [r3, #0]
 80018c8:	4a26      	ldr	r2, [pc, #152]	; (8001964 <_Z18SystemClock_Configv+0xc4>)
 80018ca:	401a      	ands	r2, r3
 80018cc:	4b24      	ldr	r3, [pc, #144]	; (8001960 <_Z18SystemClock_Configv+0xc0>)
 80018ce:	2180      	movs	r1, #128	; 0x80
 80018d0:	0109      	lsls	r1, r1, #4
 80018d2:	430a      	orrs	r2, r1
 80018d4:	601a      	str	r2, [r3, #0]
  /** Initializes the RCC Oscillators according to the specified parameters
  * in the RCC_OscInitTypeDef structure.
  */
  RCC_OscInitStruct.OscillatorType = RCC_OSCILLATORTYPE_HSI;
 80018d6:	0021      	movs	r1, r4
 80018d8:	187b      	adds	r3, r7, r1
 80018da:	2202      	movs	r2, #2
 80018dc:	601a      	str	r2, [r3, #0]
  RCC_OscInitStruct.HSIState = RCC_HSI_ON;
 80018de:	187b      	adds	r3, r7, r1
 80018e0:	2201      	movs	r2, #1
 80018e2:	60da      	str	r2, [r3, #12]
  RCC_OscInitStruct.HSICalibrationValue = RCC_HSICALIBRATION_DEFAULT;
 80018e4:	187b      	adds	r3, r7, r1
 80018e6:	2210      	movs	r2, #16
 80018e8:	611a      	str	r2, [r3, #16]
  RCC_OscInitStruct.PLL.PLLState = RCC_PLL_ON;
 80018ea:	187b      	adds	r3, r7, r1
 80018ec:	2202      	movs	r2, #2
 80018ee:	629a      	str	r2, [r3, #40]	; 0x28
  RCC_OscInitStruct.PLL.PLLSource = RCC_PLLSOURCE_HSI;
 80018f0:	187b      	adds	r3, r7, r1
 80018f2:	2200      	movs	r2, #0
 80018f4:	62da      	str	r2, [r3, #44]	; 0x2c
  RCC_OscInitStruct.PLL.PLLMUL = RCC_PLLMUL_4;
 80018f6:	187b      	adds	r3, r7, r1
 80018f8:	2280      	movs	r2, #128	; 0x80
 80018fa:	02d2      	lsls	r2, r2, #11
 80018fc:	631a      	str	r2, [r3, #48]	; 0x30
  RCC_OscInitStruct.PLL.PLLDIV = RCC_PLLDIV_2;
 80018fe:	187b      	adds	r3, r7, r1
 8001900:	2280      	movs	r2, #128	; 0x80
 8001902:	03d2      	lsls	r2, r2, #15
 8001904:	635a      	str	r2, [r3, #52]	; 0x34
  if (HAL_RCC_OscConfig(&RCC_OscInitStruct) != HAL_OK)
 8001906:	187b      	adds	r3, r7, r1
 8001908:	0018      	movs	r0, r3
 800190a:	f001 f9bf 	bl	8002c8c <HAL_RCC_OscConfig>
 800190e:	0003      	movs	r3, r0
 8001910:	1e5a      	subs	r2, r3, #1
 8001912:	4193      	sbcs	r3, r2
 8001914:	b2db      	uxtb	r3, r3
 8001916:	2b00      	cmp	r3, #0
 8001918:	d001      	beq.n	800191e <_Z18SystemClock_Configv+0x7e>
  {
    Error_Handler();
 800191a:	f000 fae1 	bl	8001ee0 <Error_Handler>
  }
  /** Initializes the CPU, AHB and APB buses clocks
  */
  RCC_ClkInitStruct.ClockType = RCC_CLOCKTYPE_HCLK|RCC_CLOCKTYPE_SYSCLK
 800191e:	1d3b      	adds	r3, r7, #4
 8001920:	220f      	movs	r2, #15
 8001922:	601a      	str	r2, [r3, #0]
                              |RCC_CLOCKTYPE_PCLK1|RCC_CLOCKTYPE_PCLK2;
  RCC_ClkInitStruct.SYSCLKSource = RCC_SYSCLKSOURCE_PLLCLK;
 8001924:	1d3b      	adds	r3, r7, #4
 8001926:	2203      	movs	r2, #3
 8001928:	605a      	str	r2, [r3, #4]
  RCC_ClkInitStruct.AHBCLKDivider = RCC_SYSCLK_DIV1;
 800192a:	1d3b      	adds	r3, r7, #4
 800192c:	2200      	movs	r2, #0
 800192e:	609a      	str	r2, [r3, #8]
  RCC_ClkInitStruct.APB1CLKDivider = RCC_HCLK_DIV1;
 8001930:	1d3b      	adds	r3, r7, #4
 8001932:	2200      	movs	r2, #0
 8001934:	60da      	str	r2, [r3, #12]
  RCC_ClkInitStruct.APB2CLKDivider = RCC_HCLK_DIV1;
 8001936:	1d3b      	adds	r3, r7, #4
 8001938:	2200      	movs	r2, #0
 800193a:	611a      	str	r2, [r3, #16]

  if (HAL_RCC_ClockConfig(&RCC_ClkInitStruct, FLASH_LATENCY_1) != HAL_OK)
 800193c:	1d3b      	adds	r3, r7, #4
 800193e:	2101      	movs	r1, #1
 8001940:	0018      	movs	r0, r3
 8001942:	f001 fc2b 	bl	800319c <HAL_RCC_ClockConfig>
 8001946:	0003      	movs	r3, r0
 8001948:	1e5a      	subs	r2, r3, #1
 800194a:	4193      	sbcs	r3, r2
 800194c:	b2db      	uxtb	r3, r3
 800194e:	2b00      	cmp	r3, #0
 8001950:	d001      	beq.n	8001956 <_Z18SystemClock_Configv+0xb6>
  {
    Error_Handler();
 8001952:	f000 fac5 	bl	8001ee0 <Error_Handler>
  }
}
 8001956:	46c0      	nop			; (mov r8, r8)
 8001958:	46bd      	mov	sp, r7
 800195a:	b015      	add	sp, #84	; 0x54
 800195c:	bd90      	pop	{r4, r7, pc}
 800195e:	46c0      	nop			; (mov r8, r8)
 8001960:	40007000 	.word	0x40007000
 8001964:	ffffe7ff 	.word	0xffffe7ff

08001968 <_ZL12MX_I2S2_Initv>:
  * @brief I2S2 Initialization Function
  * @param None
  * @retval None
  */
static void MX_I2S2_Init(void)
{
 8001968:	b580      	push	{r7, lr}
 800196a:	af00      	add	r7, sp, #0
  /* USER CODE END I2S2_Init 0 */

  /* USER CODE BEGIN I2S2_Init 1 */

  /* USER CODE END I2S2_Init 1 */
  hi2s2.Instance = SPI2;
 800196c:	4b12      	ldr	r3, [pc, #72]	; (80019b8 <_ZL12MX_I2S2_Initv+0x50>)
 800196e:	4a13      	ldr	r2, [pc, #76]	; (80019bc <_ZL12MX_I2S2_Initv+0x54>)
 8001970:	601a      	str	r2, [r3, #0]
  hi2s2.Init.Mode = I2S_MODE_MASTER_TX;
 8001972:	4b11      	ldr	r3, [pc, #68]	; (80019b8 <_ZL12MX_I2S2_Initv+0x50>)
 8001974:	2280      	movs	r2, #128	; 0x80
 8001976:	0092      	lsls	r2, r2, #2
 8001978:	605a      	str	r2, [r3, #4]
  hi2s2.Init.Standard = I2S_STANDARD_PHILIPS;
 800197a:	4b0f      	ldr	r3, [pc, #60]	; (80019b8 <_ZL12MX_I2S2_Initv+0x50>)
 800197c:	2200      	movs	r2, #0
 800197e:	609a      	str	r2, [r3, #8]
  hi2s2.Init.DataFormat = I2S_DATAFORMAT_16B;
 8001980:	4b0d      	ldr	r3, [pc, #52]	; (80019b8 <_ZL12MX_I2S2_Initv+0x50>)
 8001982:	2200      	movs	r2, #0
 8001984:	60da      	str	r2, [r3, #12]
  hi2s2.Init.MCLKOutput = I2S_MCLKOUTPUT_DISABLE;
 8001986:	4b0c      	ldr	r3, [pc, #48]	; (80019b8 <_ZL12MX_I2S2_Initv+0x50>)
 8001988:	2200      	movs	r2, #0
 800198a:	611a      	str	r2, [r3, #16]
  hi2s2.Init.AudioFreq = I2S_AUDIOFREQ_44K;
 800198c:	4b0a      	ldr	r3, [pc, #40]	; (80019b8 <_ZL12MX_I2S2_Initv+0x50>)
 800198e:	4a0c      	ldr	r2, [pc, #48]	; (80019c0 <_ZL12MX_I2S2_Initv+0x58>)
 8001990:	615a      	str	r2, [r3, #20]
  hi2s2.Init.CPOL = I2S_CPOL_HIGH;
 8001992:	4b09      	ldr	r3, [pc, #36]	; (80019b8 <_ZL12MX_I2S2_Initv+0x50>)
 8001994:	2208      	movs	r2, #8
 8001996:	619a      	str	r2, [r3, #24]
  if (HAL_I2S_Init(&hi2s2) != HAL_OK)
 8001998:	4b07      	ldr	r3, [pc, #28]	; (80019b8 <_ZL12MX_I2S2_Initv+0x50>)
 800199a:	0018      	movs	r0, r3
 800199c:	f001 f8bc 	bl	8002b18 <HAL_I2S_Init>
 80019a0:	0003      	movs	r3, r0
 80019a2:	1e5a      	subs	r2, r3, #1
 80019a4:	4193      	sbcs	r3, r2
 80019a6:	b2db      	uxtb	r3, r3
 80019a8:	2b00      	cmp	r3, #0
 80019aa:	d001      	beq.n	80019b0 <_ZL12MX_I2S2_Initv+0x48>
  {
    Error_Handler();
 80019ac:	f000 fa98 	bl	8001ee0 <Error_Handler>
  }
  /* USER CODE BEGIN I2S2_Init 2 */

  /* USER CODE END I2S2_Init 2 */

}
 80019b0:	46c0      	nop			; (mov r8, r8)
 80019b2:	46bd      	mov	sp, r7
 80019b4:	bd80      	pop	{r7, pc}
 80019b6:	46c0      	nop			; (mov r8, r8)
 80019b8:	200000a4 	.word	0x200000a4
 80019bc:	40003800 	.word	0x40003800
 80019c0:	0000ac44 	.word	0x0000ac44

080019c4 <_ZL12MX_SPI1_Initv>:
  * @brief SPI1 Initialization Function
  * @param None
  * @retval None
  */
static void MX_SPI1_Init(void)
{
 80019c4:	b580      	push	{r7, lr}
 80019c6:	af00      	add	r7, sp, #0

  /* USER CODE BEGIN SPI1_Init 1 */

  /* USER CODE END SPI1_Init 1 */
  /* SPI1 parameter configuration*/
  hspi1.Instance = SPI1;
 80019c8:	4b1a      	ldr	r3, [pc, #104]	; (8001a34 <_ZL12MX_SPI1_Initv+0x70>)
 80019ca:	4a1b      	ldr	r2, [pc, #108]	; (8001a38 <_ZL12MX_SPI1_Initv+0x74>)
 80019cc:	601a      	str	r2, [r3, #0]
  hspi1.Init.Mode = SPI_MODE_MASTER;
 80019ce:	4b19      	ldr	r3, [pc, #100]	; (8001a34 <_ZL12MX_SPI1_Initv+0x70>)
 80019d0:	2282      	movs	r2, #130	; 0x82
 80019d2:	0052      	lsls	r2, r2, #1
 80019d4:	605a      	str	r2, [r3, #4]
  hspi1.Init.Direction = SPI_DIRECTION_2LINES;
 80019d6:	4b17      	ldr	r3, [pc, #92]	; (8001a34 <_ZL12MX_SPI1_Initv+0x70>)
 80019d8:	2200      	movs	r2, #0
 80019da:	609a      	str	r2, [r3, #8]
  hspi1.Init.DataSize = SPI_DATASIZE_8BIT;
 80019dc:	4b15      	ldr	r3, [pc, #84]	; (8001a34 <_ZL12MX_SPI1_Initv+0x70>)
 80019de:	2200      	movs	r2, #0
 80019e0:	60da      	str	r2, [r3, #12]
  hspi1.Init.CLKPolarity = SPI_POLARITY_LOW;
 80019e2:	4b14      	ldr	r3, [pc, #80]	; (8001a34 <_ZL12MX_SPI1_Initv+0x70>)
 80019e4:	2200      	movs	r2, #0
 80019e6:	611a      	str	r2, [r3, #16]
  hspi1.Init.CLKPhase = SPI_PHASE_1EDGE;
 80019e8:	4b12      	ldr	r3, [pc, #72]	; (8001a34 <_ZL12MX_SPI1_Initv+0x70>)
 80019ea:	2200      	movs	r2, #0
 80019ec:	615a      	str	r2, [r3, #20]
  hspi1.Init.NSS = SPI_NSS_SOFT;
 80019ee:	4b11      	ldr	r3, [pc, #68]	; (8001a34 <_ZL12MX_SPI1_Initv+0x70>)
 80019f0:	2280      	movs	r2, #128	; 0x80
 80019f2:	0092      	lsls	r2, r2, #2
 80019f4:	619a      	str	r2, [r3, #24]
  hspi1.Init.BaudRatePrescaler = SPI_BAUDRATEPRESCALER_8;
 80019f6:	4b0f      	ldr	r3, [pc, #60]	; (8001a34 <_ZL12MX_SPI1_Initv+0x70>)
 80019f8:	2210      	movs	r2, #16
 80019fa:	61da      	str	r2, [r3, #28]
  hspi1.Init.FirstBit = SPI_FIRSTBIT_MSB;
 80019fc:	4b0d      	ldr	r3, [pc, #52]	; (8001a34 <_ZL12MX_SPI1_Initv+0x70>)
 80019fe:	2200      	movs	r2, #0
 8001a00:	621a      	str	r2, [r3, #32]
  hspi1.Init.TIMode = SPI_TIMODE_DISABLE;
 8001a02:	4b0c      	ldr	r3, [pc, #48]	; (8001a34 <_ZL12MX_SPI1_Initv+0x70>)
 8001a04:	2200      	movs	r2, #0
 8001a06:	625a      	str	r2, [r3, #36]	; 0x24
  hspi1.Init.CRCCalculation = SPI_CRCCALCULATION_DISABLE;
 8001a08:	4b0a      	ldr	r3, [pc, #40]	; (8001a34 <_ZL12MX_SPI1_Initv+0x70>)
 8001a0a:	2200      	movs	r2, #0
 8001a0c:	629a      	str	r2, [r3, #40]	; 0x28
  hspi1.Init.CRCPolynomial = 7;
 8001a0e:	4b09      	ldr	r3, [pc, #36]	; (8001a34 <_ZL12MX_SPI1_Initv+0x70>)
 8001a10:	2207      	movs	r2, #7
 8001a12:	62da      	str	r2, [r3, #44]	; 0x2c
  if (HAL_SPI_Init(&hspi1) != HAL_OK)
 8001a14:	4b07      	ldr	r3, [pc, #28]	; (8001a34 <_ZL12MX_SPI1_Initv+0x70>)
 8001a16:	0018      	movs	r0, r3
 8001a18:	f001 fd04 	bl	8003424 <HAL_SPI_Init>
 8001a1c:	0003      	movs	r3, r0
 8001a1e:	1e5a      	subs	r2, r3, #1
 8001a20:	4193      	sbcs	r3, r2
 8001a22:	b2db      	uxtb	r3, r3
 8001a24:	2b00      	cmp	r3, #0
 8001a26:	d001      	beq.n	8001a2c <_ZL12MX_SPI1_Initv+0x68>
  {
    Error_Handler();
 8001a28:	f000 fa5a 	bl	8001ee0 <Error_Handler>
  }
  /* USER CODE BEGIN SPI1_Init 2 */

  /* USER CODE END SPI1_Init 2 */

}
 8001a2c:	46c0      	nop			; (mov r8, r8)
 8001a2e:	46bd      	mov	sp, r7
 8001a30:	bd80      	pop	{r7, pc}
 8001a32:	46c0      	nop			; (mov r8, r8)
 8001a34:	20000128 	.word	0x20000128
 8001a38:	40013000 	.word	0x40013000

08001a3c <_ZL12MX_TIM2_Initv>:
  * @brief TIM2 Initialization Function
  * @param None
  * @retval None
  */
static void MX_TIM2_Init(void)
{
 8001a3c:	b580      	push	{r7, lr}
 8001a3e:	b08a      	sub	sp, #40	; 0x28
 8001a40:	af00      	add	r7, sp, #0

  /* USER CODE BEGIN TIM2_Init 0 */

  /* USER CODE END TIM2_Init 0 */

  TIM_ClockConfigTypeDef sClockSourceConfig = {0};
 8001a42:	2318      	movs	r3, #24
 8001a44:	18fb      	adds	r3, r7, r3
 8001a46:	0018      	movs	r0, r3
 8001a48:	2310      	movs	r3, #16
 8001a4a:	001a      	movs	r2, r3
 8001a4c:	2100      	movs	r1, #0
 8001a4e:	f003 fd43 	bl	80054d8 <memset>
  TIM_MasterConfigTypeDef sMasterConfig = {0};
 8001a52:	2310      	movs	r3, #16
 8001a54:	18fb      	adds	r3, r7, r3
 8001a56:	0018      	movs	r0, r3
 8001a58:	2308      	movs	r3, #8
 8001a5a:	001a      	movs	r2, r3
 8001a5c:	2100      	movs	r1, #0
 8001a5e:	f003 fd3b 	bl	80054d8 <memset>
  TIM_OC_InitTypeDef sConfigOC = {0};
 8001a62:	003b      	movs	r3, r7
 8001a64:	0018      	movs	r0, r3
 8001a66:	2310      	movs	r3, #16
 8001a68:	001a      	movs	r2, r3
 8001a6a:	2100      	movs	r1, #0
 8001a6c:	f003 fd34 	bl	80054d8 <memset>

  /* USER CODE BEGIN TIM2_Init 1 */

  /* USER CODE END TIM2_Init 1 */
  htim2.Instance = TIM2;
 8001a70:	4b48      	ldr	r3, [pc, #288]	; (8001b94 <_ZL12MX_TIM2_Initv+0x158>)
 8001a72:	2280      	movs	r2, #128	; 0x80
 8001a74:	05d2      	lsls	r2, r2, #23
 8001a76:	601a      	str	r2, [r3, #0]
  htim2.Init.Prescaler = 0;
 8001a78:	4b46      	ldr	r3, [pc, #280]	; (8001b94 <_ZL12MX_TIM2_Initv+0x158>)
 8001a7a:	2200      	movs	r2, #0
 8001a7c:	605a      	str	r2, [r3, #4]
  htim2.Init.CounterMode = TIM_COUNTERMODE_UP;
 8001a7e:	4b45      	ldr	r3, [pc, #276]	; (8001b94 <_ZL12MX_TIM2_Initv+0x158>)
 8001a80:	2200      	movs	r2, #0
 8001a82:	609a      	str	r2, [r3, #8]
  htim2.Init.Period = 39;
 8001a84:	4b43      	ldr	r3, [pc, #268]	; (8001b94 <_ZL12MX_TIM2_Initv+0x158>)
 8001a86:	2227      	movs	r2, #39	; 0x27
 8001a88:	60da      	str	r2, [r3, #12]
  htim2.Init.ClockDivision = TIM_CLOCKDIVISION_DIV1;
 8001a8a:	4b42      	ldr	r3, [pc, #264]	; (8001b94 <_ZL12MX_TIM2_Initv+0x158>)
 8001a8c:	2200      	movs	r2, #0
 8001a8e:	611a      	str	r2, [r3, #16]
  htim2.Init.AutoReloadPreload = TIM_AUTORELOAD_PRELOAD_DISABLE;
 8001a90:	4b40      	ldr	r3, [pc, #256]	; (8001b94 <_ZL12MX_TIM2_Initv+0x158>)
 8001a92:	2200      	movs	r2, #0
 8001a94:	615a      	str	r2, [r3, #20]
  if (HAL_TIM_Base_Init(&htim2) != HAL_OK)
 8001a96:	4b3f      	ldr	r3, [pc, #252]	; (8001b94 <_ZL12MX_TIM2_Initv+0x158>)
 8001a98:	0018      	movs	r0, r3
 8001a9a:	f001 ffe8 	bl	8003a6e <HAL_TIM_Base_Init>
 8001a9e:	0003      	movs	r3, r0
 8001aa0:	1e5a      	subs	r2, r3, #1
 8001aa2:	4193      	sbcs	r3, r2
 8001aa4:	b2db      	uxtb	r3, r3
 8001aa6:	2b00      	cmp	r3, #0
 8001aa8:	d001      	beq.n	8001aae <_ZL12MX_TIM2_Initv+0x72>
  {
    Error_Handler();
 8001aaa:	f000 fa19 	bl	8001ee0 <Error_Handler>
  }
  sClockSourceConfig.ClockSource = TIM_CLOCKSOURCE_INTERNAL;
 8001aae:	2118      	movs	r1, #24
 8001ab0:	187b      	adds	r3, r7, r1
 8001ab2:	2280      	movs	r2, #128	; 0x80
 8001ab4:	0152      	lsls	r2, r2, #5
 8001ab6:	601a      	str	r2, [r3, #0]
  if (HAL_TIM_ConfigClockSource(&htim2, &sClockSourceConfig) != HAL_OK)
 8001ab8:	187a      	adds	r2, r7, r1
 8001aba:	4b36      	ldr	r3, [pc, #216]	; (8001b94 <_ZL12MX_TIM2_Initv+0x158>)
 8001abc:	0011      	movs	r1, r2
 8001abe:	0018      	movs	r0, r3
 8001ac0:	f002 f922 	bl	8003d08 <HAL_TIM_ConfigClockSource>
 8001ac4:	0003      	movs	r3, r0
 8001ac6:	1e5a      	subs	r2, r3, #1
 8001ac8:	4193      	sbcs	r3, r2
 8001aca:	b2db      	uxtb	r3, r3
 8001acc:	2b00      	cmp	r3, #0
 8001ace:	d001      	beq.n	8001ad4 <_ZL12MX_TIM2_Initv+0x98>
  {
    Error_Handler();
 8001ad0:	f000 fa06 	bl	8001ee0 <Error_Handler>
  }
  if (HAL_TIM_PWM_Init(&htim2) != HAL_OK)
 8001ad4:	4b2f      	ldr	r3, [pc, #188]	; (8001b94 <_ZL12MX_TIM2_Initv+0x158>)
 8001ad6:	0018      	movs	r0, r3
 8001ad8:	f002 f861 	bl	8003b9e <HAL_TIM_PWM_Init>
 8001adc:	0003      	movs	r3, r0
 8001ade:	1e5a      	subs	r2, r3, #1
 8001ae0:	4193      	sbcs	r3, r2
 8001ae2:	b2db      	uxtb	r3, r3
 8001ae4:	2b00      	cmp	r3, #0
 8001ae6:	d001      	beq.n	8001aec <_ZL12MX_TIM2_Initv+0xb0>
  {
    Error_Handler();
 8001ae8:	f000 f9fa 	bl	8001ee0 <Error_Handler>
  }
  sMasterConfig.MasterOutputTrigger = TIM_TRGO_RESET;
 8001aec:	2110      	movs	r1, #16
 8001aee:	187b      	adds	r3, r7, r1
 8001af0:	2200      	movs	r2, #0
 8001af2:	601a      	str	r2, [r3, #0]
  sMasterConfig.MasterSlaveMode = TIM_MASTERSLAVEMODE_DISABLE;
 8001af4:	187b      	adds	r3, r7, r1
 8001af6:	2200      	movs	r2, #0
 8001af8:	605a      	str	r2, [r3, #4]
  if (HAL_TIMEx_MasterConfigSynchronization(&htim2, &sMasterConfig) != HAL_OK)
 8001afa:	187a      	adds	r2, r7, r1
 8001afc:	4b25      	ldr	r3, [pc, #148]	; (8001b94 <_ZL12MX_TIM2_Initv+0x158>)
 8001afe:	0011      	movs	r1, r2
 8001b00:	0018      	movs	r0, r3
 8001b02:	f002 f9eb 	bl	8003edc <HAL_TIMEx_MasterConfigSynchronization>
 8001b06:	0003      	movs	r3, r0
 8001b08:	1e5a      	subs	r2, r3, #1
 8001b0a:	4193      	sbcs	r3, r2
 8001b0c:	b2db      	uxtb	r3, r3
 8001b0e:	2b00      	cmp	r3, #0
 8001b10:	d001      	beq.n	8001b16 <_ZL12MX_TIM2_Initv+0xda>
  {
    Error_Handler();
 8001b12:	f000 f9e5 	bl	8001ee0 <Error_Handler>
  }
  sConfigOC.OCMode = TIM_OCMODE_PWM1;
 8001b16:	003b      	movs	r3, r7
 8001b18:	2260      	movs	r2, #96	; 0x60
 8001b1a:	601a      	str	r2, [r3, #0]
  sConfigOC.Pulse = 0;
 8001b1c:	003b      	movs	r3, r7
 8001b1e:	2200      	movs	r2, #0
 8001b20:	605a      	str	r2, [r3, #4]
  sConfigOC.OCPolarity = TIM_OCPOLARITY_HIGH;
 8001b22:	003b      	movs	r3, r7
 8001b24:	2200      	movs	r2, #0
 8001b26:	609a      	str	r2, [r3, #8]
  sConfigOC.OCFastMode = TIM_OCFAST_ENABLE;
 8001b28:	003b      	movs	r3, r7
 8001b2a:	2204      	movs	r2, #4
 8001b2c:	60da      	str	r2, [r3, #12]
  if (HAL_TIM_PWM_ConfigChannel(&htim2, &sConfigOC, TIM_CHANNEL_1) != HAL_OK)
 8001b2e:	0039      	movs	r1, r7
 8001b30:	4b18      	ldr	r3, [pc, #96]	; (8001b94 <_ZL12MX_TIM2_Initv+0x158>)
 8001b32:	2200      	movs	r2, #0
 8001b34:	0018      	movs	r0, r3
 8001b36:	f002 f851 	bl	8003bdc <HAL_TIM_PWM_ConfigChannel>
 8001b3a:	0003      	movs	r3, r0
 8001b3c:	1e5a      	subs	r2, r3, #1
 8001b3e:	4193      	sbcs	r3, r2
 8001b40:	b2db      	uxtb	r3, r3
 8001b42:	2b00      	cmp	r3, #0
 8001b44:	d001      	beq.n	8001b4a <_ZL12MX_TIM2_Initv+0x10e>
  {
    Error_Handler();
 8001b46:	f000 f9cb 	bl	8001ee0 <Error_Handler>
  }
  if (HAL_TIM_PWM_ConfigChannel(&htim2, &sConfigOC, TIM_CHANNEL_3) != HAL_OK)
 8001b4a:	0039      	movs	r1, r7
 8001b4c:	4b11      	ldr	r3, [pc, #68]	; (8001b94 <_ZL12MX_TIM2_Initv+0x158>)
 8001b4e:	2208      	movs	r2, #8
 8001b50:	0018      	movs	r0, r3
 8001b52:	f002 f843 	bl	8003bdc <HAL_TIM_PWM_ConfigChannel>
 8001b56:	0003      	movs	r3, r0
 8001b58:	1e5a      	subs	r2, r3, #1
 8001b5a:	4193      	sbcs	r3, r2
 8001b5c:	b2db      	uxtb	r3, r3
 8001b5e:	2b00      	cmp	r3, #0
 8001b60:	d001      	beq.n	8001b66 <_ZL12MX_TIM2_Initv+0x12a>
  {
    Error_Handler();
 8001b62:	f000 f9bd 	bl	8001ee0 <Error_Handler>
  }
  if (HAL_TIM_PWM_ConfigChannel(&htim2, &sConfigOC, TIM_CHANNEL_4) != HAL_OK)
 8001b66:	0039      	movs	r1, r7
 8001b68:	4b0a      	ldr	r3, [pc, #40]	; (8001b94 <_ZL12MX_TIM2_Initv+0x158>)
 8001b6a:	220c      	movs	r2, #12
 8001b6c:	0018      	movs	r0, r3
 8001b6e:	f002 f835 	bl	8003bdc <HAL_TIM_PWM_ConfigChannel>
 8001b72:	0003      	movs	r3, r0
 8001b74:	1e5a      	subs	r2, r3, #1
 8001b76:	4193      	sbcs	r3, r2
 8001b78:	b2db      	uxtb	r3, r3
 8001b7a:	2b00      	cmp	r3, #0
 8001b7c:	d001      	beq.n	8001b82 <_ZL12MX_TIM2_Initv+0x146>
  {
    Error_Handler();
 8001b7e:	f000 f9af 	bl	8001ee0 <Error_Handler>
  }
  /* USER CODE BEGIN TIM2_Init 2 */

  /* USER CODE END TIM2_Init 2 */
  HAL_TIM_MspPostInit(&htim2);
 8001b82:	4b04      	ldr	r3, [pc, #16]	; (8001b94 <_ZL12MX_TIM2_Initv+0x158>)
 8001b84:	0018      	movs	r0, r3
 8001b86:	f000 fc35 	bl	80023f4 <HAL_TIM_MspPostInit>

}
 8001b8a:	46c0      	nop			; (mov r8, r8)
 8001b8c:	46bd      	mov	sp, r7
 8001b8e:	b00a      	add	sp, #40	; 0x28
 8001b90:	bd80      	pop	{r7, pc}
 8001b92:	46c0      	nop			; (mov r8, r8)
 8001b94:	20000210 	.word	0x20000210

08001b98 <_ZL11MX_TSC_Initv>:
  * @brief TSC Initialization Function
  * @param None
  * @retval None
  */
static void MX_TSC_Init(void)
{
 8001b98:	b580      	push	{r7, lr}
 8001b9a:	af00      	add	r7, sp, #0
  /* USER CODE BEGIN TSC_Init 1 */

  /* USER CODE END TSC_Init 1 */
  /** Configure the TSC peripheral
  */
  htsc.Instance = TSC;
 8001b9c:	4b1f      	ldr	r3, [pc, #124]	; (8001c1c <_ZL11MX_TSC_Initv+0x84>)
 8001b9e:	4a20      	ldr	r2, [pc, #128]	; (8001c20 <_ZL11MX_TSC_Initv+0x88>)
 8001ba0:	601a      	str	r2, [r3, #0]
  htsc.Init.CTPulseHighLength = TSC_CTPH_8CYCLES;
 8001ba2:	4b1e      	ldr	r3, [pc, #120]	; (8001c1c <_ZL11MX_TSC_Initv+0x84>)
 8001ba4:	22e0      	movs	r2, #224	; 0xe0
 8001ba6:	05d2      	lsls	r2, r2, #23
 8001ba8:	605a      	str	r2, [r3, #4]
  htsc.Init.CTPulseLowLength = TSC_CTPL_8CYCLES;
 8001baa:	4b1c      	ldr	r3, [pc, #112]	; (8001c1c <_ZL11MX_TSC_Initv+0x84>)
 8001bac:	22e0      	movs	r2, #224	; 0xe0
 8001bae:	04d2      	lsls	r2, r2, #19
 8001bb0:	609a      	str	r2, [r3, #8]
  htsc.Init.SpreadSpectrum = DISABLE;
 8001bb2:	4b1a      	ldr	r3, [pc, #104]	; (8001c1c <_ZL11MX_TSC_Initv+0x84>)
 8001bb4:	2200      	movs	r2, #0
 8001bb6:	60da      	str	r2, [r3, #12]
  htsc.Init.SpreadSpectrumDeviation = 1;
 8001bb8:	4b18      	ldr	r3, [pc, #96]	; (8001c1c <_ZL11MX_TSC_Initv+0x84>)
 8001bba:	2201      	movs	r2, #1
 8001bbc:	611a      	str	r2, [r3, #16]
  htsc.Init.SpreadSpectrumPrescaler = TSC_SS_PRESC_DIV1;
 8001bbe:	4b17      	ldr	r3, [pc, #92]	; (8001c1c <_ZL11MX_TSC_Initv+0x84>)
 8001bc0:	2200      	movs	r2, #0
 8001bc2:	615a      	str	r2, [r3, #20]
  htsc.Init.PulseGeneratorPrescaler = TSC_PG_PRESC_DIV8;
 8001bc4:	4b15      	ldr	r3, [pc, #84]	; (8001c1c <_ZL11MX_TSC_Initv+0x84>)
 8001bc6:	22c0      	movs	r2, #192	; 0xc0
 8001bc8:	0192      	lsls	r2, r2, #6
 8001bca:	619a      	str	r2, [r3, #24]
  htsc.Init.MaxCountValue = TSC_MCV_8191;
 8001bcc:	4b13      	ldr	r3, [pc, #76]	; (8001c1c <_ZL11MX_TSC_Initv+0x84>)
 8001bce:	22a0      	movs	r2, #160	; 0xa0
 8001bd0:	61da      	str	r2, [r3, #28]
  htsc.Init.IODefaultMode = TSC_IODEF_OUT_PP_LOW;
 8001bd2:	4b12      	ldr	r3, [pc, #72]	; (8001c1c <_ZL11MX_TSC_Initv+0x84>)
 8001bd4:	2200      	movs	r2, #0
 8001bd6:	621a      	str	r2, [r3, #32]
  htsc.Init.SynchroPinPolarity = TSC_SYNC_POLARITY_FALLING;
 8001bd8:	4b10      	ldr	r3, [pc, #64]	; (8001c1c <_ZL11MX_TSC_Initv+0x84>)
 8001bda:	2200      	movs	r2, #0
 8001bdc:	625a      	str	r2, [r3, #36]	; 0x24
  htsc.Init.AcquisitionMode = TSC_ACQ_MODE_NORMAL;
 8001bde:	4b0f      	ldr	r3, [pc, #60]	; (8001c1c <_ZL11MX_TSC_Initv+0x84>)
 8001be0:	2200      	movs	r2, #0
 8001be2:	629a      	str	r2, [r3, #40]	; 0x28
  htsc.Init.MaxCountInterrupt = DISABLE;
 8001be4:	4b0d      	ldr	r3, [pc, #52]	; (8001c1c <_ZL11MX_TSC_Initv+0x84>)
 8001be6:	2200      	movs	r2, #0
 8001be8:	62da      	str	r2, [r3, #44]	; 0x2c
  htsc.Init.ChannelIOs = TSC_GROUP1_IO2|TSC_GROUP1_IO3|TSC_GROUP1_IO4|TSC_GROUP2_IO2
 8001bea:	4b0c      	ldr	r3, [pc, #48]	; (8001c1c <_ZL11MX_TSC_Initv+0x84>)
 8001bec:	4a0d      	ldr	r2, [pc, #52]	; (8001c24 <_ZL11MX_TSC_Initv+0x8c>)
 8001bee:	631a      	str	r2, [r3, #48]	; 0x30
                      |TSC_GROUP2_IO3|TSC_GROUP2_IO4|TSC_GROUP3_IO2|TSC_GROUP3_IO3
                      |TSC_GROUP3_IO4|TSC_GROUP4_IO2|TSC_GROUP4_IO3|TSC_GROUP4_IO4
                      |TSC_GROUP5_IO2|TSC_GROUP5_IO3|TSC_GROUP5_IO4|TSC_GROUP6_IO2
                      |TSC_GROUP6_IO3|TSC_GROUP6_IO4|TSC_GROUP7_IO2|TSC_GROUP7_IO3
                      |TSC_GROUP7_IO4|TSC_GROUP8_IO2|TSC_GROUP8_IO3|TSC_GROUP8_IO4;
    htsc.Init.ShieldIOs = 0;
 8001bf0:	4b0a      	ldr	r3, [pc, #40]	; (8001c1c <_ZL11MX_TSC_Initv+0x84>)
 8001bf2:	2200      	movs	r2, #0
 8001bf4:	635a      	str	r2, [r3, #52]	; 0x34
    htsc.Init.SamplingIOs = TSC_GROUP1_IO1|TSC_GROUP2_IO1|TSC_GROUP3_IO1|TSC_GROUP4_IO1
 8001bf6:	4b09      	ldr	r3, [pc, #36]	; (8001c1c <_ZL11MX_TSC_Initv+0x84>)
 8001bf8:	4a0b      	ldr	r2, [pc, #44]	; (8001c28 <_ZL11MX_TSC_Initv+0x90>)
 8001bfa:	639a      	str	r2, [r3, #56]	; 0x38
                      |TSC_GROUP5_IO1|TSC_GROUP6_IO1|TSC_GROUP7_IO1|TSC_GROUP8_IO1;
  if (HAL_TSC_Init(&htsc) != HAL_OK)
 8001bfc:	4b07      	ldr	r3, [pc, #28]	; (8001c1c <_ZL11MX_TSC_Initv+0x84>)
 8001bfe:	0018      	movs	r0, r3
 8001c00:	f002 f99c 	bl	8003f3c <HAL_TSC_Init>
 8001c04:	0003      	movs	r3, r0
 8001c06:	1e5a      	subs	r2, r3, #1
 8001c08:	4193      	sbcs	r3, r2
 8001c0a:	b2db      	uxtb	r3, r3
 8001c0c:	2b00      	cmp	r3, #0
 8001c0e:	d001      	beq.n	8001c14 <_ZL11MX_TSC_Initv+0x7c>
  {
    Error_Handler();
 8001c10:	f000 f966 	bl	8001ee0 <Error_Handler>
  }
  /* USER CODE BEGIN TSC_Init 2 */

  /* USER CODE END TSC_Init 2 */

}
 8001c14:	46c0      	nop			; (mov r8, r8)
 8001c16:	46bd      	mov	sp, r7
 8001c18:	bd80      	pop	{r7, pc}
 8001c1a:	46c0      	nop			; (mov r8, r8)
 8001c1c:	20000324 	.word	0x20000324
 8001c20:	40024000 	.word	0x40024000
 8001c24:	eeeeeeee 	.word	0xeeeeeeee
 8001c28:	11111111 	.word	0x11111111

08001c2c <_ZL11MX_DMA_Initv>:

/**
  * Enable DMA controller clock
  */
static void MX_DMA_Init(void)
{
 8001c2c:	b580      	push	{r7, lr}
 8001c2e:	b082      	sub	sp, #8
 8001c30:	af00      	add	r7, sp, #0

  /* DMA controller clock enable */
  __HAL_RCC_DMA1_CLK_ENABLE();
 8001c32:	4b14      	ldr	r3, [pc, #80]	; (8001c84 <_ZL11MX_DMA_Initv+0x58>)
 8001c34:	6b1a      	ldr	r2, [r3, #48]	; 0x30
 8001c36:	4b13      	ldr	r3, [pc, #76]	; (8001c84 <_ZL11MX_DMA_Initv+0x58>)
 8001c38:	2101      	movs	r1, #1
 8001c3a:	430a      	orrs	r2, r1
 8001c3c:	631a      	str	r2, [r3, #48]	; 0x30
 8001c3e:	4b11      	ldr	r3, [pc, #68]	; (8001c84 <_ZL11MX_DMA_Initv+0x58>)
 8001c40:	6b1b      	ldr	r3, [r3, #48]	; 0x30
 8001c42:	2201      	movs	r2, #1
 8001c44:	4013      	ands	r3, r2
 8001c46:	607b      	str	r3, [r7, #4]
 8001c48:	687b      	ldr	r3, [r7, #4]

  /* DMA interrupt init */
  /* DMA1_Channel1_IRQn interrupt configuration */
  HAL_NVIC_SetPriority(DMA1_Channel1_IRQn, 0, 0);
 8001c4a:	2200      	movs	r2, #0
 8001c4c:	2100      	movs	r1, #0
 8001c4e:	2009      	movs	r0, #9
 8001c50:	f000 fd80 	bl	8002754 <HAL_NVIC_SetPriority>
  HAL_NVIC_EnableIRQ(DMA1_Channel1_IRQn);
 8001c54:	2009      	movs	r0, #9
 8001c56:	f000 fda7 	bl	80027a8 <HAL_NVIC_EnableIRQ>
  /* DMA1_Channel2_3_IRQn interrupt configuration */
  HAL_NVIC_SetPriority(DMA1_Channel2_3_IRQn, 0, 0);
 8001c5a:	2200      	movs	r2, #0
 8001c5c:	2100      	movs	r1, #0
 8001c5e:	200a      	movs	r0, #10
 8001c60:	f000 fd78 	bl	8002754 <HAL_NVIC_SetPriority>
  HAL_NVIC_EnableIRQ(DMA1_Channel2_3_IRQn);
 8001c64:	200a      	movs	r0, #10
 8001c66:	f000 fd9f 	bl	80027a8 <HAL_NVIC_EnableIRQ>
  /* DMA1_Channel4_5_6_7_IRQn interrupt configuration */
  HAL_NVIC_SetPriority(DMA1_Channel4_5_6_7_IRQn, 0, 0);
 8001c6a:	2200      	movs	r2, #0
 8001c6c:	2100      	movs	r1, #0
 8001c6e:	200b      	movs	r0, #11
 8001c70:	f000 fd70 	bl	8002754 <HAL_NVIC_SetPriority>
  HAL_NVIC_EnableIRQ(DMA1_Channel4_5_6_7_IRQn);
 8001c74:	200b      	movs	r0, #11
 8001c76:	f000 fd97 	bl	80027a8 <HAL_NVIC_EnableIRQ>

}
 8001c7a:	46c0      	nop			; (mov r8, r8)
 8001c7c:	46bd      	mov	sp, r7
 8001c7e:	b002      	add	sp, #8
 8001c80:	bd80      	pop	{r7, pc}
 8001c82:	46c0      	nop			; (mov r8, r8)
 8001c84:	40021000 	.word	0x40021000

08001c88 <_ZL12MX_GPIO_Initv>:
  * @brief GPIO Initialization Function
  * @param None
  * @retval None
  */
static void MX_GPIO_Init(void)
{
 8001c88:	b590      	push	{r4, r7, lr}
 8001c8a:	b08d      	sub	sp, #52	; 0x34
 8001c8c:	af00      	add	r7, sp, #0
  GPIO_InitTypeDef GPIO_InitStruct = {0};
 8001c8e:	241c      	movs	r4, #28
 8001c90:	193b      	adds	r3, r7, r4
 8001c92:	0018      	movs	r0, r3
 8001c94:	2314      	movs	r3, #20
 8001c96:	001a      	movs	r2, r3
 8001c98:	2100      	movs	r1, #0
 8001c9a:	f003 fc1d 	bl	80054d8 <memset>

  /* GPIO Ports Clock Enable */
  __HAL_RCC_GPIOE_CLK_ENABLE();
 8001c9e:	4b8b      	ldr	r3, [pc, #556]	; (8001ecc <_ZL12MX_GPIO_Initv+0x244>)
 8001ca0:	6ada      	ldr	r2, [r3, #44]	; 0x2c
 8001ca2:	4b8a      	ldr	r3, [pc, #552]	; (8001ecc <_ZL12MX_GPIO_Initv+0x244>)
 8001ca4:	2110      	movs	r1, #16
 8001ca6:	430a      	orrs	r2, r1
 8001ca8:	62da      	str	r2, [r3, #44]	; 0x2c
 8001caa:	4b88      	ldr	r3, [pc, #544]	; (8001ecc <_ZL12MX_GPIO_Initv+0x244>)
 8001cac:	6adb      	ldr	r3, [r3, #44]	; 0x2c
 8001cae:	2210      	movs	r2, #16
 8001cb0:	4013      	ands	r3, r2
 8001cb2:	61bb      	str	r3, [r7, #24]
 8001cb4:	69bb      	ldr	r3, [r7, #24]
  __HAL_RCC_GPIOC_CLK_ENABLE();
 8001cb6:	4b85      	ldr	r3, [pc, #532]	; (8001ecc <_ZL12MX_GPIO_Initv+0x244>)
 8001cb8:	6ada      	ldr	r2, [r3, #44]	; 0x2c
 8001cba:	4b84      	ldr	r3, [pc, #528]	; (8001ecc <_ZL12MX_GPIO_Initv+0x244>)
 8001cbc:	2104      	movs	r1, #4
 8001cbe:	430a      	orrs	r2, r1
 8001cc0:	62da      	str	r2, [r3, #44]	; 0x2c
 8001cc2:	4b82      	ldr	r3, [pc, #520]	; (8001ecc <_ZL12MX_GPIO_Initv+0x244>)
 8001cc4:	6adb      	ldr	r3, [r3, #44]	; 0x2c
 8001cc6:	2204      	movs	r2, #4
 8001cc8:	4013      	ands	r3, r2
 8001cca:	617b      	str	r3, [r7, #20]
 8001ccc:	697b      	ldr	r3, [r7, #20]
  __HAL_RCC_GPIOH_CLK_ENABLE();
 8001cce:	4b7f      	ldr	r3, [pc, #508]	; (8001ecc <_ZL12MX_GPIO_Initv+0x244>)
 8001cd0:	6ada      	ldr	r2, [r3, #44]	; 0x2c
 8001cd2:	4b7e      	ldr	r3, [pc, #504]	; (8001ecc <_ZL12MX_GPIO_Initv+0x244>)
 8001cd4:	2180      	movs	r1, #128	; 0x80
 8001cd6:	430a      	orrs	r2, r1
 8001cd8:	62da      	str	r2, [r3, #44]	; 0x2c
 8001cda:	4b7c      	ldr	r3, [pc, #496]	; (8001ecc <_ZL12MX_GPIO_Initv+0x244>)
 8001cdc:	6adb      	ldr	r3, [r3, #44]	; 0x2c
 8001cde:	2280      	movs	r2, #128	; 0x80
 8001ce0:	4013      	ands	r3, r2
 8001ce2:	613b      	str	r3, [r7, #16]
 8001ce4:	693b      	ldr	r3, [r7, #16]
  __HAL_RCC_GPIOA_CLK_ENABLE();
 8001ce6:	4b79      	ldr	r3, [pc, #484]	; (8001ecc <_ZL12MX_GPIO_Initv+0x244>)
 8001ce8:	6ada      	ldr	r2, [r3, #44]	; 0x2c
 8001cea:	4b78      	ldr	r3, [pc, #480]	; (8001ecc <_ZL12MX_GPIO_Initv+0x244>)
 8001cec:	2101      	movs	r1, #1
 8001cee:	430a      	orrs	r2, r1
 8001cf0:	62da      	str	r2, [r3, #44]	; 0x2c
 8001cf2:	4b76      	ldr	r3, [pc, #472]	; (8001ecc <_ZL12MX_GPIO_Initv+0x244>)
 8001cf4:	6adb      	ldr	r3, [r3, #44]	; 0x2c
 8001cf6:	2201      	movs	r2, #1
 8001cf8:	4013      	ands	r3, r2
 8001cfa:	60fb      	str	r3, [r7, #12]
 8001cfc:	68fb      	ldr	r3, [r7, #12]
  __HAL_RCC_GPIOB_CLK_ENABLE();
 8001cfe:	4b73      	ldr	r3, [pc, #460]	; (8001ecc <_ZL12MX_GPIO_Initv+0x244>)
 8001d00:	6ada      	ldr	r2, [r3, #44]	; 0x2c
 8001d02:	4b72      	ldr	r3, [pc, #456]	; (8001ecc <_ZL12MX_GPIO_Initv+0x244>)
 8001d04:	2102      	movs	r1, #2
 8001d06:	430a      	orrs	r2, r1
 8001d08:	62da      	str	r2, [r3, #44]	; 0x2c
 8001d0a:	4b70      	ldr	r3, [pc, #448]	; (8001ecc <_ZL12MX_GPIO_Initv+0x244>)
 8001d0c:	6adb      	ldr	r3, [r3, #44]	; 0x2c
 8001d0e:	2202      	movs	r2, #2
 8001d10:	4013      	ands	r3, r2
 8001d12:	60bb      	str	r3, [r7, #8]
 8001d14:	68bb      	ldr	r3, [r7, #8]
  __HAL_RCC_GPIOD_CLK_ENABLE();
 8001d16:	4b6d      	ldr	r3, [pc, #436]	; (8001ecc <_ZL12MX_GPIO_Initv+0x244>)
 8001d18:	6ada      	ldr	r2, [r3, #44]	; 0x2c
 8001d1a:	4b6c      	ldr	r3, [pc, #432]	; (8001ecc <_ZL12MX_GPIO_Initv+0x244>)
 8001d1c:	2108      	movs	r1, #8
 8001d1e:	430a      	orrs	r2, r1
 8001d20:	62da      	str	r2, [r3, #44]	; 0x2c
 8001d22:	4b6a      	ldr	r3, [pc, #424]	; (8001ecc <_ZL12MX_GPIO_Initv+0x244>)
 8001d24:	6adb      	ldr	r3, [r3, #44]	; 0x2c
 8001d26:	2208      	movs	r2, #8
 8001d28:	4013      	ands	r3, r2
 8001d2a:	607b      	str	r3, [r7, #4]
 8001d2c:	687b      	ldr	r3, [r7, #4]

  /*Configure GPIO pin Output Level */
  HAL_GPIO_WritePin(BUTTON_LED_L_GPIO_Port, BUTTON_LED_L_Pin, GPIO_PIN_RESET);
 8001d2e:	4b68      	ldr	r3, [pc, #416]	; (8001ed0 <_ZL12MX_GPIO_Initv+0x248>)
 8001d30:	2200      	movs	r2, #0
 8001d32:	2120      	movs	r1, #32
 8001d34:	0018      	movs	r0, r3
 8001d36:	f000 fee9 	bl	8002b0c <HAL_GPIO_WritePin>

  /*Configure GPIO pin Output Level */
  HAL_GPIO_WritePin(BUTTON_LED_R_GPIO_Port, BUTTON_LED_R_Pin, GPIO_PIN_RESET);
 8001d3a:	2380      	movs	r3, #128	; 0x80
 8001d3c:	01db      	lsls	r3, r3, #7
 8001d3e:	4865      	ldr	r0, [pc, #404]	; (8001ed4 <_ZL12MX_GPIO_Initv+0x24c>)
 8001d40:	2200      	movs	r2, #0
 8001d42:	0019      	movs	r1, r3
 8001d44:	f000 fee2 	bl	8002b0c <HAL_GPIO_WritePin>

  /*Configure GPIO pin Output Level */
  HAL_GPIO_WritePin(TEST_LED_GPIO_Port, TEST_LED_Pin, GPIO_PIN_RESET);
 8001d48:	2380      	movs	r3, #128	; 0x80
 8001d4a:	00db      	lsls	r3, r3, #3
 8001d4c:	4862      	ldr	r0, [pc, #392]	; (8001ed8 <_ZL12MX_GPIO_Initv+0x250>)
 8001d4e:	2200      	movs	r2, #0
 8001d50:	0019      	movs	r1, r3
 8001d52:	f000 fedb 	bl	8002b0c <HAL_GPIO_WritePin>

  /*Configure GPIO pin Output Level */
  HAL_GPIO_WritePin(GPIOD, AUDIO_SD_N_L_Pin|AUDIO_SD_N_R_Pin, GPIO_PIN_RESET);
 8001d56:	23c0      	movs	r3, #192	; 0xc0
 8001d58:	011b      	lsls	r3, r3, #4
 8001d5a:	4860      	ldr	r0, [pc, #384]	; (8001edc <_ZL12MX_GPIO_Initv+0x254>)
 8001d5c:	2200      	movs	r2, #0
 8001d5e:	0019      	movs	r1, r3
 8001d60:	f000 fed4 	bl	8002b0c <HAL_GPIO_WritePin>

  /*Configure GPIO pins : BUTTON_L_Pin SD_DET_A_Pin SD_DET_B_Pin */
  GPIO_InitStruct.Pin = BUTTON_L_Pin|SD_DET_A_Pin|SD_DET_B_Pin;
 8001d64:	193b      	adds	r3, r7, r4
 8001d66:	22c8      	movs	r2, #200	; 0xc8
 8001d68:	0052      	lsls	r2, r2, #1
 8001d6a:	601a      	str	r2, [r3, #0]
  GPIO_InitStruct.Mode = GPIO_MODE_INPUT;
 8001d6c:	193b      	adds	r3, r7, r4
 8001d6e:	2200      	movs	r2, #0
 8001d70:	605a      	str	r2, [r3, #4]
  GPIO_InitStruct.Pull = GPIO_NOPULL;
 8001d72:	193b      	adds	r3, r7, r4
 8001d74:	2200      	movs	r2, #0
 8001d76:	609a      	str	r2, [r3, #8]
  HAL_GPIO_Init(GPIOE, &GPIO_InitStruct);
 8001d78:	193b      	adds	r3, r7, r4
 8001d7a:	4a55      	ldr	r2, [pc, #340]	; (8001ed0 <_ZL12MX_GPIO_Initv+0x248>)
 8001d7c:	0019      	movs	r1, r3
 8001d7e:	0010      	movs	r0, r2
 8001d80:	f000 fe06 	bl	8002990 <HAL_GPIO_Init>

  /*Configure GPIO pin : BUTTON_LED_L_Pin */
  GPIO_InitStruct.Pin = BUTTON_LED_L_Pin;
 8001d84:	193b      	adds	r3, r7, r4
 8001d86:	2220      	movs	r2, #32
 8001d88:	601a      	str	r2, [r3, #0]
  GPIO_InitStruct.Mode = GPIO_MODE_OUTPUT_PP;
 8001d8a:	193b      	adds	r3, r7, r4
 8001d8c:	2201      	movs	r2, #1
 8001d8e:	605a      	str	r2, [r3, #4]
  GPIO_InitStruct.Pull = GPIO_NOPULL;
 8001d90:	193b      	adds	r3, r7, r4
 8001d92:	2200      	movs	r2, #0
 8001d94:	609a      	str	r2, [r3, #8]
  GPIO_InitStruct.Speed = GPIO_SPEED_FREQ_LOW;
 8001d96:	193b      	adds	r3, r7, r4
 8001d98:	2200      	movs	r2, #0
 8001d9a:	60da      	str	r2, [r3, #12]
  HAL_GPIO_Init(BUTTON_LED_L_GPIO_Port, &GPIO_InitStruct);
 8001d9c:	193b      	adds	r3, r7, r4
 8001d9e:	4a4c      	ldr	r2, [pc, #304]	; (8001ed0 <_ZL12MX_GPIO_Initv+0x248>)
 8001da0:	0019      	movs	r1, r3
 8001da2:	0010      	movs	r0, r2
 8001da4:	f000 fdf4 	bl	8002990 <HAL_GPIO_Init>

  /*Configure GPIO pin : BUTTON_R_Pin */
  GPIO_InitStruct.Pin = BUTTON_R_Pin;
 8001da8:	0021      	movs	r1, r4
 8001daa:	187b      	adds	r3, r7, r1
 8001dac:	2280      	movs	r2, #128	; 0x80
 8001dae:	0192      	lsls	r2, r2, #6
 8001db0:	601a      	str	r2, [r3, #0]
  GPIO_InitStruct.Mode = GPIO_MODE_INPUT;
 8001db2:	000c      	movs	r4, r1
 8001db4:	193b      	adds	r3, r7, r4
 8001db6:	2200      	movs	r2, #0
 8001db8:	605a      	str	r2, [r3, #4]
  GPIO_InitStruct.Pull = GPIO_NOPULL;
 8001dba:	193b      	adds	r3, r7, r4
 8001dbc:	2200      	movs	r2, #0
 8001dbe:	609a      	str	r2, [r3, #8]
  HAL_GPIO_Init(BUTTON_R_GPIO_Port, &GPIO_InitStruct);
 8001dc0:	193b      	adds	r3, r7, r4
 8001dc2:	4a44      	ldr	r2, [pc, #272]	; (8001ed4 <_ZL12MX_GPIO_Initv+0x24c>)
 8001dc4:	0019      	movs	r1, r3
 8001dc6:	0010      	movs	r0, r2
 8001dc8:	f000 fde2 	bl	8002990 <HAL_GPIO_Init>

  /*Configure GPIO pin : BUTTON_LED_R_Pin */
  GPIO_InitStruct.Pin = BUTTON_LED_R_Pin;
 8001dcc:	0021      	movs	r1, r4
 8001dce:	187b      	adds	r3, r7, r1
 8001dd0:	2280      	movs	r2, #128	; 0x80
 8001dd2:	01d2      	lsls	r2, r2, #7
 8001dd4:	601a      	str	r2, [r3, #0]
  GPIO_InitStruct.Mode = GPIO_MODE_OUTPUT_PP;
 8001dd6:	000c      	movs	r4, r1
 8001dd8:	193b      	adds	r3, r7, r4
 8001dda:	2201      	movs	r2, #1
 8001ddc:	605a      	str	r2, [r3, #4]
  GPIO_InitStruct.Pull = GPIO_NOPULL;
 8001dde:	193b      	adds	r3, r7, r4
 8001de0:	2200      	movs	r2, #0
 8001de2:	609a      	str	r2, [r3, #8]
  GPIO_InitStruct.Speed = GPIO_SPEED_FREQ_LOW;
 8001de4:	193b      	adds	r3, r7, r4
 8001de6:	2200      	movs	r2, #0
 8001de8:	60da      	str	r2, [r3, #12]
  HAL_GPIO_Init(BUTTON_LED_R_GPIO_Port, &GPIO_InitStruct);
 8001dea:	193b      	adds	r3, r7, r4
 8001dec:	4a39      	ldr	r2, [pc, #228]	; (8001ed4 <_ZL12MX_GPIO_Initv+0x24c>)
 8001dee:	0019      	movs	r1, r3
 8001df0:	0010      	movs	r0, r2
 8001df2:	f000 fdcd 	bl	8002990 <HAL_GPIO_Init>

  /*Configure GPIO pin : TEST_LED_Pin */
  GPIO_InitStruct.Pin = TEST_LED_Pin;
 8001df6:	0021      	movs	r1, r4
 8001df8:	187b      	adds	r3, r7, r1
 8001dfa:	2280      	movs	r2, #128	; 0x80
 8001dfc:	00d2      	lsls	r2, r2, #3
 8001dfe:	601a      	str	r2, [r3, #0]
  GPIO_InitStruct.Mode = GPIO_MODE_OUTPUT_PP;
 8001e00:	000c      	movs	r4, r1
 8001e02:	193b      	adds	r3, r7, r4
 8001e04:	2201      	movs	r2, #1
 8001e06:	605a      	str	r2, [r3, #4]
  GPIO_InitStruct.Pull = GPIO_NOPULL;
 8001e08:	193b      	adds	r3, r7, r4
 8001e0a:	2200      	movs	r2, #0
 8001e0c:	609a      	str	r2, [r3, #8]
  GPIO_InitStruct.Speed = GPIO_SPEED_FREQ_LOW;
 8001e0e:	193b      	adds	r3, r7, r4
 8001e10:	2200      	movs	r2, #0
 8001e12:	60da      	str	r2, [r3, #12]
  HAL_GPIO_Init(TEST_LED_GPIO_Port, &GPIO_InitStruct);
 8001e14:	193b      	adds	r3, r7, r4
 8001e16:	4a30      	ldr	r2, [pc, #192]	; (8001ed8 <_ZL12MX_GPIO_Initv+0x250>)
 8001e18:	0019      	movs	r1, r3
 8001e1a:	0010      	movs	r0, r2
 8001e1c:	f000 fdb8 	bl	8002990 <HAL_GPIO_Init>

  /*Configure GPIO pin : AUDIO_SD_N_L_Pin */
  GPIO_InitStruct.Pin = AUDIO_SD_N_L_Pin;
 8001e20:	0021      	movs	r1, r4
 8001e22:	187b      	adds	r3, r7, r1
 8001e24:	2280      	movs	r2, #128	; 0x80
 8001e26:	00d2      	lsls	r2, r2, #3
 8001e28:	601a      	str	r2, [r3, #0]
  GPIO_InitStruct.Mode = GPIO_MODE_OUTPUT_PP;
 8001e2a:	000c      	movs	r4, r1
 8001e2c:	193b      	adds	r3, r7, r4
 8001e2e:	2201      	movs	r2, #1
 8001e30:	605a      	str	r2, [r3, #4]
  GPIO_InitStruct.Pull = GPIO_NOPULL;
 8001e32:	193b      	adds	r3, r7, r4
 8001e34:	2200      	movs	r2, #0
 8001e36:	609a      	str	r2, [r3, #8]
  GPIO_InitStruct.Speed = GPIO_SPEED_FREQ_LOW;
 8001e38:	193b      	adds	r3, r7, r4
 8001e3a:	2200      	movs	r2, #0
 8001e3c:	60da      	str	r2, [r3, #12]
  HAL_GPIO_Init(AUDIO_SD_N_L_GPIO_Port, &GPIO_InitStruct);
 8001e3e:	193b      	adds	r3, r7, r4
 8001e40:	4a26      	ldr	r2, [pc, #152]	; (8001edc <_ZL12MX_GPIO_Initv+0x254>)
 8001e42:	0019      	movs	r1, r3
 8001e44:	0010      	movs	r0, r2
 8001e46:	f000 fda3 	bl	8002990 <HAL_GPIO_Init>

  /*Configure GPIO pin : SD_SPI1_CS_N_Pin */
  GPIO_InitStruct.Pin = SD_SPI1_CS_N_Pin;
 8001e4a:	0021      	movs	r1, r4
 8001e4c:	187b      	adds	r3, r7, r1
 8001e4e:	2280      	movs	r2, #128	; 0x80
 8001e50:	0212      	lsls	r2, r2, #8
 8001e52:	601a      	str	r2, [r3, #0]
  GPIO_InitStruct.Mode = GPIO_MODE_OUTPUT_PP;
 8001e54:	000c      	movs	r4, r1
 8001e56:	193b      	adds	r3, r7, r4
 8001e58:	2201      	movs	r2, #1
 8001e5a:	605a      	str	r2, [r3, #4]
  GPIO_InitStruct.Pull = GPIO_NOPULL;
 8001e5c:	193b      	adds	r3, r7, r4
 8001e5e:	2200      	movs	r2, #0
 8001e60:	609a      	str	r2, [r3, #8]
  GPIO_InitStruct.Speed = GPIO_SPEED_FREQ_VERY_HIGH;
 8001e62:	193b      	adds	r3, r7, r4
 8001e64:	2203      	movs	r2, #3
 8001e66:	60da      	str	r2, [r3, #12]
  HAL_GPIO_Init(SD_SPI1_CS_N_GPIO_Port, &GPIO_InitStruct);
 8001e68:	193a      	adds	r2, r7, r4
 8001e6a:	23a0      	movs	r3, #160	; 0xa0
 8001e6c:	05db      	lsls	r3, r3, #23
 8001e6e:	0011      	movs	r1, r2
 8001e70:	0018      	movs	r0, r3
 8001e72:	f000 fd8d 	bl	8002990 <HAL_GPIO_Init>

  /*Configure GPIO pin : AUDIO_SD_N_R_Pin */
  GPIO_InitStruct.Pin = AUDIO_SD_N_R_Pin;
 8001e76:	0021      	movs	r1, r4
 8001e78:	187b      	adds	r3, r7, r1
 8001e7a:	2280      	movs	r2, #128	; 0x80
 8001e7c:	0112      	lsls	r2, r2, #4
 8001e7e:	601a      	str	r2, [r3, #0]
  GPIO_InitStruct.Mode = GPIO_MODE_OUTPUT_OD;
 8001e80:	000c      	movs	r4, r1
 8001e82:	193b      	adds	r3, r7, r4
 8001e84:	2211      	movs	r2, #17
 8001e86:	605a      	str	r2, [r3, #4]
  GPIO_InitStruct.Pull = GPIO_NOPULL;
 8001e88:	193b      	adds	r3, r7, r4
 8001e8a:	2200      	movs	r2, #0
 8001e8c:	609a      	str	r2, [r3, #8]
  GPIO_InitStruct.Speed = GPIO_SPEED_FREQ_LOW;
 8001e8e:	193b      	adds	r3, r7, r4
 8001e90:	2200      	movs	r2, #0
 8001e92:	60da      	str	r2, [r3, #12]
  HAL_GPIO_Init(AUDIO_SD_N_R_GPIO_Port, &GPIO_InitStruct);
 8001e94:	193b      	adds	r3, r7, r4
 8001e96:	4a11      	ldr	r2, [pc, #68]	; (8001edc <_ZL12MX_GPIO_Initv+0x254>)
 8001e98:	0019      	movs	r1, r3
 8001e9a:	0010      	movs	r0, r2
 8001e9c:	f000 fd78 	bl	8002990 <HAL_GPIO_Init>

  /*Configure GPIO pin : MODE_SW_Pin */
  GPIO_InitStruct.Pin = MODE_SW_Pin;
 8001ea0:	0021      	movs	r1, r4
 8001ea2:	187b      	adds	r3, r7, r1
 8001ea4:	2280      	movs	r2, #128	; 0x80
 8001ea6:	0212      	lsls	r2, r2, #8
 8001ea8:	601a      	str	r2, [r3, #0]
  GPIO_InitStruct.Mode = GPIO_MODE_INPUT;
 8001eaa:	187b      	adds	r3, r7, r1
 8001eac:	2200      	movs	r2, #0
 8001eae:	605a      	str	r2, [r3, #4]
  GPIO_InitStruct.Pull = GPIO_NOPULL;
 8001eb0:	187b      	adds	r3, r7, r1
 8001eb2:	2200      	movs	r2, #0
 8001eb4:	609a      	str	r2, [r3, #8]
  HAL_GPIO_Init(MODE_SW_GPIO_Port, &GPIO_InitStruct);
 8001eb6:	187b      	adds	r3, r7, r1
 8001eb8:	4a08      	ldr	r2, [pc, #32]	; (8001edc <_ZL12MX_GPIO_Initv+0x254>)
 8001eba:	0019      	movs	r1, r3
 8001ebc:	0010      	movs	r0, r2
 8001ebe:	f000 fd67 	bl	8002990 <HAL_GPIO_Init>

}
 8001ec2:	46c0      	nop			; (mov r8, r8)
 8001ec4:	46bd      	mov	sp, r7
 8001ec6:	b00d      	add	sp, #52	; 0x34
 8001ec8:	bd90      	pop	{r4, r7, pc}
 8001eca:	46c0      	nop			; (mov r8, r8)
 8001ecc:	40021000 	.word	0x40021000
 8001ed0:	50001000 	.word	0x50001000
 8001ed4:	50000800 	.word	0x50000800
 8001ed8:	50001c00 	.word	0x50001c00
 8001edc:	50000c00 	.word	0x50000c00

08001ee0 <Error_Handler>:
/**
  * @brief  This function is executed in case of error occurrence.
  * @retval None
  */
void Error_Handler(void)
{
 8001ee0:	b580      	push	{r7, lr}
 8001ee2:	af00      	add	r7, sp, #0
  \details Disables IRQ interrupts by setting the I-bit in the CPSR.
  Can only be executed in Privileged modes.
 */
__attribute__( ( always_inline ) ) __STATIC_INLINE void __disable_irq(void)
{
  __ASM volatile ("cpsid i" : : : "memory");
 8001ee4:	b672      	cpsid	i
}
 8001ee6:	46c0      	nop			; (mov r8, r8)
  /* USER CODE BEGIN Error_Handler_Debug */
  /* User can add his own implementation to report the HAL error return state */
  __disable_irq();
  while (1)
 8001ee8:	e7fe      	b.n	8001ee8 <Error_Handler+0x8>

08001eea <_ZNSt6vectorI15TouchState_enumSaIS0_EEaSEOS2_>:
      operator=(vector&& __x) noexcept(_Alloc_traits::_S_nothrow_move())
 8001eea:	b590      	push	{r4, r7, lr}
 8001eec:	b085      	sub	sp, #20
 8001eee:	af00      	add	r7, sp, #0
 8001ef0:	6078      	str	r0, [r7, #4]
 8001ef2:	6039      	str	r1, [r7, #0]
	constexpr bool __move_storage =
 8001ef4:	230f      	movs	r3, #15
 8001ef6:	18fb      	adds	r3, r7, r3
 8001ef8:	2201      	movs	r2, #1
 8001efa:	701a      	strb	r2, [r3, #0]
	_M_move_assign(std::move(__x), __bool_constant<__move_storage>());
 8001efc:	683b      	ldr	r3, [r7, #0]
 8001efe:	0018      	movs	r0, r3
 8001f00:	f000 f80b 	bl	8001f1a <_ZSt4moveIRSt6vectorI15TouchState_enumSaIS1_EEEONSt16remove_referenceIT_E4typeEOS6_>
 8001f04:	0001      	movs	r1, r0
 8001f06:	687b      	ldr	r3, [r7, #4]
 8001f08:	1c22      	adds	r2, r4, #0
 8001f0a:	0018      	movs	r0, r3
 8001f0c:	f000 f80e 	bl	8001f2c <_ZNSt6vectorI15TouchState_enumSaIS0_EE14_M_move_assignEOS2_St17integral_constantIbLb1EE>
	return *this;
 8001f10:	687b      	ldr	r3, [r7, #4]
      }
 8001f12:	0018      	movs	r0, r3
 8001f14:	46bd      	mov	sp, r7
 8001f16:	b005      	add	sp, #20
 8001f18:	bd90      	pop	{r4, r7, pc}

08001f1a <_ZSt4moveIRSt6vectorI15TouchState_enumSaIS1_EEEONSt16remove_referenceIT_E4typeEOS6_>:
   *  @param  __t  A thing of arbitrary type.
   *  @return The parameter cast to an rvalue-reference to allow moving it.
  */
  template<typename _Tp>
    constexpr typename std::remove_reference<_Tp>::type&&
    move(_Tp&& __t) noexcept
 8001f1a:	b580      	push	{r7, lr}
 8001f1c:	b082      	sub	sp, #8
 8001f1e:	af00      	add	r7, sp, #0
 8001f20:	6078      	str	r0, [r7, #4]
    { return static_cast<typename std::remove_reference<_Tp>::type&&>(__t); }
 8001f22:	687b      	ldr	r3, [r7, #4]
 8001f24:	0018      	movs	r0, r3
 8001f26:	46bd      	mov	sp, r7
 8001f28:	b002      	add	sp, #8
 8001f2a:	bd80      	pop	{r7, pc}

08001f2c <_ZNSt6vectorI15TouchState_enumSaIS0_EE14_M_move_assignEOS2_St17integral_constantIbLb1EE>:
    private:
      // Constant-time move assignment when source object's memory can be
      // moved, either because the source's allocator will move too
      // or because the allocators are equal.
      void
      _M_move_assign(vector&& __x, true_type) noexcept
 8001f2c:	b5b0      	push	{r4, r5, r7, lr}
 8001f2e:	b088      	sub	sp, #32
 8001f30:	af00      	add	r7, sp, #0
 8001f32:	60f8      	str	r0, [r7, #12]
 8001f34:	60b9      	str	r1, [r7, #8]
 8001f36:	1d3b      	adds	r3, r7, #4
 8001f38:	701a      	strb	r2, [r3, #0]
      {
	vector __tmp(get_allocator());
 8001f3a:	68fa      	ldr	r2, [r7, #12]
 8001f3c:	241c      	movs	r4, #28
 8001f3e:	193b      	adds	r3, r7, r4
 8001f40:	0011      	movs	r1, r2
 8001f42:	0018      	movs	r0, r3
 8001f44:	f000 f82d 	bl	8001fa2 <_ZNKSt12_Vector_baseI15TouchState_enumSaIS0_EE13get_allocatorEv>
 8001f48:	193a      	adds	r2, r7, r4
 8001f4a:	2510      	movs	r5, #16
 8001f4c:	197b      	adds	r3, r7, r5
 8001f4e:	0011      	movs	r1, r2
 8001f50:	0018      	movs	r0, r3
 8001f52:	f000 f839 	bl	8001fc8 <_ZNSt6vectorI15TouchState_enumSaIS0_EEC1ERKS1_>
 8001f56:	193b      	adds	r3, r7, r4
 8001f58:	0018      	movs	r0, r3
 8001f5a:	f7fe fd6d 	bl	8000a38 <_ZNSaI15TouchState_enumED1Ev>
	this->_M_impl._M_swap_data(__x._M_impl);
 8001f5e:	68fb      	ldr	r3, [r7, #12]
 8001f60:	68ba      	ldr	r2, [r7, #8]
 8001f62:	0011      	movs	r1, r2
 8001f64:	0018      	movs	r0, r3
 8001f66:	f000 f83f 	bl	8001fe8 <_ZNSt12_Vector_baseI15TouchState_enumSaIS0_EE17_Vector_impl_data12_M_swap_dataERS3_>
	__tmp._M_impl._M_swap_data(__x._M_impl);
 8001f6a:	68ba      	ldr	r2, [r7, #8]
 8001f6c:	197b      	adds	r3, r7, r5
 8001f6e:	0011      	movs	r1, r2
 8001f70:	0018      	movs	r0, r3
 8001f72:	f000 f839 	bl	8001fe8 <_ZNSt12_Vector_baseI15TouchState_enumSaIS0_EE17_Vector_impl_data12_M_swap_dataERS3_>
	std::__alloc_on_move(_M_get_Tp_allocator(), __x._M_get_Tp_allocator());
 8001f76:	68fb      	ldr	r3, [r7, #12]
 8001f78:	0018      	movs	r0, r3
 8001f7a:	f7fe ff36 	bl	8000dea <_ZNSt12_Vector_baseI15TouchState_enumSaIS0_EE19_M_get_Tp_allocatorEv>
 8001f7e:	0004      	movs	r4, r0
 8001f80:	68bb      	ldr	r3, [r7, #8]
 8001f82:	0018      	movs	r0, r3
 8001f84:	f7fe ff31 	bl	8000dea <_ZNSt12_Vector_baseI15TouchState_enumSaIS0_EE19_M_get_Tp_allocatorEv>
 8001f88:	0003      	movs	r3, r0
 8001f8a:	0019      	movs	r1, r3
 8001f8c:	0020      	movs	r0, r4
 8001f8e:	f000 f84b 	bl	8002028 <_ZSt15__alloc_on_moveISaI15TouchState_enumEEvRT_S3_>
	vector __tmp(get_allocator());
 8001f92:	197b      	adds	r3, r7, r5
 8001f94:	0018      	movs	r0, r3
 8001f96:	f7fe fd7a 	bl	8000a8e <_ZNSt6vectorI15TouchState_enumSaIS0_EED1Ev>
      }
 8001f9a:	46c0      	nop			; (mov r8, r8)
 8001f9c:	46bd      	mov	sp, r7
 8001f9e:	b008      	add	sp, #32
 8001fa0:	bdb0      	pop	{r4, r5, r7, pc}

08001fa2 <_ZNKSt12_Vector_baseI15TouchState_enumSaIS0_EE13get_allocatorEv>:
      get_allocator() const _GLIBCXX_NOEXCEPT
 8001fa2:	b580      	push	{r7, lr}
 8001fa4:	b082      	sub	sp, #8
 8001fa6:	af00      	add	r7, sp, #0
 8001fa8:	6078      	str	r0, [r7, #4]
 8001faa:	6039      	str	r1, [r7, #0]
      { return allocator_type(_M_get_Tp_allocator()); }
 8001fac:	683b      	ldr	r3, [r7, #0]
 8001fae:	0018      	movs	r0, r3
 8001fb0:	f7fe ff50 	bl	8000e54 <_ZNKSt12_Vector_baseI15TouchState_enumSaIS0_EE19_M_get_Tp_allocatorEv>
 8001fb4:	0002      	movs	r2, r0
 8001fb6:	687b      	ldr	r3, [r7, #4]
 8001fb8:	0011      	movs	r1, r2
 8001fba:	0018      	movs	r0, r3
 8001fbc:	f7ff f83a 	bl	8001034 <_ZNSaI15TouchState_enumEC1ERKS0_>
 8001fc0:	6878      	ldr	r0, [r7, #4]
 8001fc2:	46bd      	mov	sp, r7
 8001fc4:	b002      	add	sp, #8
 8001fc6:	bd80      	pop	{r7, pc}

08001fc8 <_ZNSt6vectorI15TouchState_enumSaIS0_EEC1ERKS1_>:
      vector(const allocator_type& __a) _GLIBCXX_NOEXCEPT
 8001fc8:	b580      	push	{r7, lr}
 8001fca:	b082      	sub	sp, #8
 8001fcc:	af00      	add	r7, sp, #0
 8001fce:	6078      	str	r0, [r7, #4]
 8001fd0:	6039      	str	r1, [r7, #0]
      : _Base(__a) { }
 8001fd2:	687b      	ldr	r3, [r7, #4]
 8001fd4:	683a      	ldr	r2, [r7, #0]
 8001fd6:	0011      	movs	r1, r2
 8001fd8:	0018      	movs	r0, r3
 8001fda:	f000 f833 	bl	8002044 <_ZNSt12_Vector_baseI15TouchState_enumSaIS0_EEC1ERKS1_>
 8001fde:	687b      	ldr	r3, [r7, #4]
 8001fe0:	0018      	movs	r0, r3
 8001fe2:	46bd      	mov	sp, r7
 8001fe4:	b002      	add	sp, #8
 8001fe6:	bd80      	pop	{r7, pc}

08001fe8 <_ZNSt12_Vector_baseI15TouchState_enumSaIS0_EE17_Vector_impl_data12_M_swap_dataERS3_>:
	_M_swap_data(_Vector_impl_data& __x) _GLIBCXX_NOEXCEPT
 8001fe8:	b590      	push	{r4, r7, lr}
 8001fea:	b087      	sub	sp, #28
 8001fec:	af00      	add	r7, sp, #0
 8001fee:	6078      	str	r0, [r7, #4]
 8001ff0:	6039      	str	r1, [r7, #0]
	  _Vector_impl_data __tmp;
 8001ff2:	240c      	movs	r4, #12
 8001ff4:	193b      	adds	r3, r7, r4
 8001ff6:	0018      	movs	r0, r3
 8001ff8:	f7ff f965 	bl	80012c6 <_ZNSt12_Vector_baseI15TouchState_enumSaIS0_EE17_Vector_impl_dataC1Ev>
	  __tmp._M_copy_data(*this);
 8001ffc:	687a      	ldr	r2, [r7, #4]
 8001ffe:	193b      	adds	r3, r7, r4
 8002000:	0011      	movs	r1, r2
 8002002:	0018      	movs	r0, r3
 8002004:	f000 f82e 	bl	8002064 <_ZNSt12_Vector_baseI15TouchState_enumSaIS0_EE17_Vector_impl_data12_M_copy_dataERKS3_>
	  _M_copy_data(__x);
 8002008:	683a      	ldr	r2, [r7, #0]
 800200a:	687b      	ldr	r3, [r7, #4]
 800200c:	0011      	movs	r1, r2
 800200e:	0018      	movs	r0, r3
 8002010:	f000 f828 	bl	8002064 <_ZNSt12_Vector_baseI15TouchState_enumSaIS0_EE17_Vector_impl_data12_M_copy_dataERKS3_>
	  __x._M_copy_data(__tmp);
 8002014:	193a      	adds	r2, r7, r4
 8002016:	683b      	ldr	r3, [r7, #0]
 8002018:	0011      	movs	r1, r2
 800201a:	0018      	movs	r0, r3
 800201c:	f000 f822 	bl	8002064 <_ZNSt12_Vector_baseI15TouchState_enumSaIS0_EE17_Vector_impl_data12_M_copy_dataERKS3_>
	}
 8002020:	46c0      	nop			; (mov r8, r8)
 8002022:	46bd      	mov	sp, r7
 8002024:	b007      	add	sp, #28
 8002026:	bd90      	pop	{r4, r7, pc}

08002028 <_ZSt15__alloc_on_moveISaI15TouchState_enumEEvRT_S3_>:
  template<typename _Alloc>
    inline void __do_alloc_on_move(_Alloc&, _Alloc&, false_type)
    { }

  template<typename _Alloc>
    inline void __alloc_on_move(_Alloc& __one, _Alloc& __two)
 8002028:	b580      	push	{r7, lr}
 800202a:	b084      	sub	sp, #16
 800202c:	af00      	add	r7, sp, #0
 800202e:	6078      	str	r0, [r7, #4]
 8002030:	6039      	str	r1, [r7, #0]
    {
      typedef allocator_traits<_Alloc> __traits;
      typedef typename __traits::propagate_on_container_move_assignment __pocma;
      __do_alloc_on_move(__one, __two, __pocma());
 8002032:	6839      	ldr	r1, [r7, #0]
 8002034:	687b      	ldr	r3, [r7, #4]
 8002036:	0018      	movs	r0, r3
 8002038:	f000 f829 	bl	800208e <_ZSt18__do_alloc_on_moveISaI15TouchState_enumEEvRT_S3_St17integral_constantIbLb1EE>
    }
 800203c:	46c0      	nop			; (mov r8, r8)
 800203e:	46bd      	mov	sp, r7
 8002040:	b004      	add	sp, #16
 8002042:	bd80      	pop	{r7, pc}

08002044 <_ZNSt12_Vector_baseI15TouchState_enumSaIS0_EEC1ERKS1_>:
      _Vector_base(const allocator_type& __a) _GLIBCXX_NOEXCEPT
 8002044:	b580      	push	{r7, lr}
 8002046:	b082      	sub	sp, #8
 8002048:	af00      	add	r7, sp, #0
 800204a:	6078      	str	r0, [r7, #4]
 800204c:	6039      	str	r1, [r7, #0]
      : _M_impl(__a) { }
 800204e:	687b      	ldr	r3, [r7, #4]
 8002050:	683a      	ldr	r2, [r7, #0]
 8002052:	0011      	movs	r1, r2
 8002054:	0018      	movs	r0, r3
 8002056:	f7fe fffd 	bl	8001054 <_ZNSt12_Vector_baseI15TouchState_enumSaIS0_EE12_Vector_implC1ERKS1_>
 800205a:	687b      	ldr	r3, [r7, #4]
 800205c:	0018      	movs	r0, r3
 800205e:	46bd      	mov	sp, r7
 8002060:	b002      	add	sp, #8
 8002062:	bd80      	pop	{r7, pc}

08002064 <_ZNSt12_Vector_baseI15TouchState_enumSaIS0_EE17_Vector_impl_data12_M_copy_dataERKS3_>:
	_M_copy_data(_Vector_impl_data const& __x) _GLIBCXX_NOEXCEPT
 8002064:	b580      	push	{r7, lr}
 8002066:	b082      	sub	sp, #8
 8002068:	af00      	add	r7, sp, #0
 800206a:	6078      	str	r0, [r7, #4]
 800206c:	6039      	str	r1, [r7, #0]
	  _M_start = __x._M_start;
 800206e:	683b      	ldr	r3, [r7, #0]
 8002070:	681a      	ldr	r2, [r3, #0]
 8002072:	687b      	ldr	r3, [r7, #4]
 8002074:	601a      	str	r2, [r3, #0]
	  _M_finish = __x._M_finish;
 8002076:	683b      	ldr	r3, [r7, #0]
 8002078:	685a      	ldr	r2, [r3, #4]
 800207a:	687b      	ldr	r3, [r7, #4]
 800207c:	605a      	str	r2, [r3, #4]
	  _M_end_of_storage = __x._M_end_of_storage;
 800207e:	683b      	ldr	r3, [r7, #0]
 8002080:	689a      	ldr	r2, [r3, #8]
 8002082:	687b      	ldr	r3, [r7, #4]
 8002084:	609a      	str	r2, [r3, #8]
	}
 8002086:	46c0      	nop			; (mov r8, r8)
 8002088:	46bd      	mov	sp, r7
 800208a:	b002      	add	sp, #8
 800208c:	bd80      	pop	{r7, pc}

0800208e <_ZSt18__do_alloc_on_moveISaI15TouchState_enumEEvRT_S3_St17integral_constantIbLb1EE>:
    inline void __do_alloc_on_move(_Alloc& __one, _Alloc& __two, true_type)
 800208e:	b580      	push	{r7, lr}
 8002090:	b084      	sub	sp, #16
 8002092:	af00      	add	r7, sp, #0
 8002094:	60f8      	str	r0, [r7, #12]
 8002096:	60b9      	str	r1, [r7, #8]
 8002098:	1d3b      	adds	r3, r7, #4
 800209a:	701a      	strb	r2, [r3, #0]
    { __one = std::move(__two); }
 800209c:	68bb      	ldr	r3, [r7, #8]
 800209e:	0018      	movs	r0, r3
 80020a0:	f000 f804 	bl	80020ac <_ZSt4moveIRSaI15TouchState_enumEEONSt16remove_referenceIT_E4typeEOS4_>
 80020a4:	46c0      	nop			; (mov r8, r8)
 80020a6:	46bd      	mov	sp, r7
 80020a8:	b004      	add	sp, #16
 80020aa:	bd80      	pop	{r7, pc}

080020ac <_ZSt4moveIRSaI15TouchState_enumEEONSt16remove_referenceIT_E4typeEOS4_>:
    move(_Tp&& __t) noexcept
 80020ac:	b580      	push	{r7, lr}
 80020ae:	b082      	sub	sp, #8
 80020b0:	af00      	add	r7, sp, #0
 80020b2:	6078      	str	r0, [r7, #4]
    { return static_cast<typename std::remove_reference<_Tp>::type&&>(__t); }
 80020b4:	687b      	ldr	r3, [r7, #4]
 80020b6:	0018      	movs	r0, r3
 80020b8:	46bd      	mov	sp, r7
 80020ba:	b002      	add	sp, #8
 80020bc:	bd80      	pop	{r7, pc}
	...

080020c0 <_Z41__static_initialization_and_destruction_0ii>:
  {
  }
  /* USER CODE END Error_Handler_Debug */
}
 80020c0:	b590      	push	{r4, r7, lr}
 80020c2:	b087      	sub	sp, #28
 80020c4:	af02      	add	r7, sp, #8
 80020c6:	6078      	str	r0, [r7, #4]
 80020c8:	6039      	str	r1, [r7, #0]
 80020ca:	687b      	ldr	r3, [r7, #4]
 80020cc:	2b01      	cmp	r3, #1
 80020ce:	d11d      	bne.n	800210c <_Z41__static_initialization_and_destruction_0ii+0x4c>
 80020d0:	683b      	ldr	r3, [r7, #0]
 80020d2:	4a18      	ldr	r2, [pc, #96]	; (8002134 <_Z41__static_initialization_and_destruction_0ii+0x74>)
 80020d4:	4293      	cmp	r3, r2
 80020d6:	d119      	bne.n	800210c <_Z41__static_initialization_and_destruction_0ii+0x4c>
TouchBoardGroup touchGroup0 = TouchBoardGroup(NUM_BOARDS, 0, htim2, TIM_CHANNEL_1, hdma_tim2_ch1);
 80020d8:	4a17      	ldr	r2, [pc, #92]	; (8002138 <_Z41__static_initialization_and_destruction_0ii+0x78>)
 80020da:	4818      	ldr	r0, [pc, #96]	; (800213c <_Z41__static_initialization_and_destruction_0ii+0x7c>)
 80020dc:	4b18      	ldr	r3, [pc, #96]	; (8002140 <_Z41__static_initialization_and_destruction_0ii+0x80>)
 80020de:	9301      	str	r3, [sp, #4]
 80020e0:	2300      	movs	r3, #0
 80020e2:	9300      	str	r3, [sp, #0]
 80020e4:	0013      	movs	r3, r2
 80020e6:	2200      	movs	r2, #0
 80020e8:	2118      	movs	r1, #24
 80020ea:	f7fe fa85 	bl	80005f8 <_ZN15TouchBoardGroupC1EhhR17TIM_HandleTypeDefmR19__DMA_HandleTypeDef>
std::vector<TouchState_enum> touchStates(NUM_BOARDS);
 80020ee:	240c      	movs	r4, #12
 80020f0:	193b      	adds	r3, r7, r4
 80020f2:	0018      	movs	r0, r3
 80020f4:	f7fe fc93 	bl	8000a1e <_ZNSaI15TouchState_enumEC1Ev>
 80020f8:	193a      	adds	r2, r7, r4
 80020fa:	4b12      	ldr	r3, [pc, #72]	; (8002144 <_Z41__static_initialization_and_destruction_0ii+0x84>)
 80020fc:	2118      	movs	r1, #24
 80020fe:	0018      	movs	r0, r3
 8002100:	f7fe fca7 	bl	8000a52 <_ZNSt6vectorI15TouchState_enumSaIS0_EEC1EjRKS1_>
 8002104:	193b      	adds	r3, r7, r4
 8002106:	0018      	movs	r0, r3
 8002108:	f7fe fc96 	bl	8000a38 <_ZNSaI15TouchState_enumED1Ev>
 800210c:	687b      	ldr	r3, [r7, #4]
 800210e:	2b00      	cmp	r3, #0
 8002110:	d10b      	bne.n	800212a <_Z41__static_initialization_and_destruction_0ii+0x6a>
 8002112:	683b      	ldr	r3, [r7, #0]
 8002114:	4a07      	ldr	r2, [pc, #28]	; (8002134 <_Z41__static_initialization_and_destruction_0ii+0x74>)
 8002116:	4293      	cmp	r3, r2
 8002118:	d107      	bne.n	800212a <_Z41__static_initialization_and_destruction_0ii+0x6a>
 800211a:	4b0a      	ldr	r3, [pc, #40]	; (8002144 <_Z41__static_initialization_and_destruction_0ii+0x84>)
 800211c:	0018      	movs	r0, r3
 800211e:	f7fe fcb6 	bl	8000a8e <_ZNSt6vectorI15TouchState_enumSaIS0_EED1Ev>
TouchBoardGroup touchGroup0 = TouchBoardGroup(NUM_BOARDS, 0, htim2, TIM_CHANNEL_1, hdma_tim2_ch1);
 8002122:	4b06      	ldr	r3, [pc, #24]	; (800213c <_Z41__static_initialization_and_destruction_0ii+0x7c>)
 8002124:	0018      	movs	r0, r3
 8002126:	f7fe faf7 	bl	8000718 <_ZN15TouchBoardGroupD1Ev>
}
 800212a:	46c0      	nop			; (mov r8, r8)
 800212c:	46bd      	mov	sp, r7
 800212e:	b005      	add	sp, #20
 8002130:	bd90      	pop	{r4, r7, pc}
 8002132:	46c0      	nop			; (mov r8, r8)
 8002134:	0000ffff 	.word	0x0000ffff
 8002138:	20000210 	.word	0x20000210
 800213c:	20000590 	.word	0x20000590
 8002140:	2000024c 	.word	0x2000024c
 8002144:	20000a50 	.word	0x20000a50

08002148 <_GLOBAL__sub_I_wav_buf>:
 8002148:	b580      	push	{r7, lr}
 800214a:	af00      	add	r7, sp, #0
 800214c:	4b03      	ldr	r3, [pc, #12]	; (800215c <_GLOBAL__sub_I_wav_buf+0x14>)
 800214e:	0019      	movs	r1, r3
 8002150:	2001      	movs	r0, #1
 8002152:	f7ff ffb5 	bl	80020c0 <_Z41__static_initialization_and_destruction_0ii>
 8002156:	46bd      	mov	sp, r7
 8002158:	bd80      	pop	{r7, pc}
 800215a:	46c0      	nop			; (mov r8, r8)
 800215c:	0000ffff 	.word	0x0000ffff

08002160 <_GLOBAL__sub_D_wav_buf>:
 8002160:	b580      	push	{r7, lr}
 8002162:	af00      	add	r7, sp, #0
 8002164:	4b03      	ldr	r3, [pc, #12]	; (8002174 <_GLOBAL__sub_D_wav_buf+0x14>)
 8002166:	0019      	movs	r1, r3
 8002168:	2000      	movs	r0, #0
 800216a:	f7ff ffa9 	bl	80020c0 <_Z41__static_initialization_and_destruction_0ii>
 800216e:	46bd      	mov	sp, r7
 8002170:	bd80      	pop	{r7, pc}
 8002172:	46c0      	nop			; (mov r8, r8)
 8002174:	0000ffff 	.word	0x0000ffff

08002178 <HAL_MspInit>:
{
  /* USER CODE BEGIN MspInit 0 */

  /* USER CODE END MspInit 0 */

  __HAL_RCC_SYSCFG_CLK_ENABLE();
 8002178:	2201      	movs	r2, #1
 800217a:	4b05      	ldr	r3, [pc, #20]	; (8002190 <HAL_MspInit+0x18>)
 800217c:	6b59      	ldr	r1, [r3, #52]	; 0x34
 800217e:	430a      	orrs	r2, r1
 8002180:	635a      	str	r2, [r3, #52]	; 0x34
  __HAL_RCC_PWR_CLK_ENABLE();
 8002182:	2280      	movs	r2, #128	; 0x80
 8002184:	6b99      	ldr	r1, [r3, #56]	; 0x38
 8002186:	0552      	lsls	r2, r2, #21
 8002188:	430a      	orrs	r2, r1
 800218a:	639a      	str	r2, [r3, #56]	; 0x38
  /* System interrupt init*/

  /* USER CODE BEGIN MspInit 1 */

  /* USER CODE END MspInit 1 */
}
 800218c:	4770      	bx	lr
 800218e:	46c0      	nop			; (mov r8, r8)
 8002190:	40021000 	.word	0x40021000

08002194 <HAL_I2S_MspInit>:
* This function configures the hardware resources used in this example
* @param hi2s: I2S handle pointer
* @retval None
*/
void HAL_I2S_MspInit(I2S_HandleTypeDef* hi2s)
{
 8002194:	b5f0      	push	{r4, r5, r6, r7, lr}
 8002196:	0006      	movs	r6, r0
 8002198:	b089      	sub	sp, #36	; 0x24
  GPIO_InitTypeDef GPIO_InitStruct = {0};
 800219a:	2214      	movs	r2, #20
 800219c:	2100      	movs	r1, #0
 800219e:	a803      	add	r0, sp, #12
 80021a0:	f003 f99a 	bl	80054d8 <memset>
  if(hi2s->Instance==SPI2)
 80021a4:	4b25      	ldr	r3, [pc, #148]	; (800223c <HAL_I2S_MspInit+0xa8>)
 80021a6:	6832      	ldr	r2, [r6, #0]
 80021a8:	429a      	cmp	r2, r3
 80021aa:	d145      	bne.n	8002238 <HAL_I2S_MspInit+0xa4>
  {
  /* USER CODE BEGIN SPI2_MspInit 0 */

  /* USER CODE END SPI2_MspInit 0 */
    /* Peripheral clock enable */
    __HAL_RCC_SPI2_CLK_ENABLE();
 80021ac:	2280      	movs	r2, #128	; 0x80

    __HAL_RCC_GPIOB_CLK_ENABLE();
 80021ae:	2502      	movs	r5, #2
    __HAL_RCC_SPI2_CLK_ENABLE();
 80021b0:	4b23      	ldr	r3, [pc, #140]	; (8002240 <HAL_I2S_MspInit+0xac>)
 80021b2:	01d2      	lsls	r2, r2, #7
 80021b4:	6b99      	ldr	r1, [r3, #56]	; 0x38
    PD0     ------> I2S2_WS
    PD1     ------> I2S2_CK
    */
    GPIO_InitStruct.Pin = I2S_SPI2_SD_Pin;
    GPIO_InitStruct.Mode = GPIO_MODE_AF_PP;
    GPIO_InitStruct.Pull = GPIO_NOPULL;
 80021b6:	2700      	movs	r7, #0
    __HAL_RCC_SPI2_CLK_ENABLE();
 80021b8:	430a      	orrs	r2, r1
    __HAL_RCC_GPIOD_CLK_ENABLE();
 80021ba:	2108      	movs	r1, #8
    __HAL_RCC_SPI2_CLK_ENABLE();
 80021bc:	639a      	str	r2, [r3, #56]	; 0x38
    __HAL_RCC_GPIOB_CLK_ENABLE();
 80021be:	6ada      	ldr	r2, [r3, #44]	; 0x2c
    GPIO_InitStruct.Speed = GPIO_SPEED_FREQ_HIGH;
    GPIO_InitStruct.Alternate = GPIO_AF0_SPI2;
    HAL_GPIO_Init(I2S_SPI2_SD_GPIO_Port, &GPIO_InitStruct);
 80021c0:	4820      	ldr	r0, [pc, #128]	; (8002244 <HAL_I2S_MspInit+0xb0>)
    __HAL_RCC_GPIOB_CLK_ENABLE();
 80021c2:	432a      	orrs	r2, r5
 80021c4:	62da      	str	r2, [r3, #44]	; 0x2c
 80021c6:	6ada      	ldr	r2, [r3, #44]	; 0x2c
 80021c8:	402a      	ands	r2, r5
 80021ca:	9201      	str	r2, [sp, #4]
 80021cc:	9a01      	ldr	r2, [sp, #4]
    __HAL_RCC_GPIOD_CLK_ENABLE();
 80021ce:	6ada      	ldr	r2, [r3, #44]	; 0x2c
 80021d0:	430a      	orrs	r2, r1
 80021d2:	62da      	str	r2, [r3, #44]	; 0x2c
 80021d4:	6adb      	ldr	r3, [r3, #44]	; 0x2c
    GPIO_InitStruct.Mode = GPIO_MODE_AF_PP;
 80021d6:	9504      	str	r5, [sp, #16]
    __HAL_RCC_GPIOD_CLK_ENABLE();
 80021d8:	400b      	ands	r3, r1
 80021da:	9302      	str	r3, [sp, #8]
 80021dc:	9b02      	ldr	r3, [sp, #8]
    GPIO_InitStruct.Pin = I2S_SPI2_SD_Pin;
 80021de:	2380      	movs	r3, #128	; 0x80
    HAL_GPIO_Init(I2S_SPI2_SD_GPIO_Port, &GPIO_InitStruct);
 80021e0:	a903      	add	r1, sp, #12
    GPIO_InitStruct.Pin = I2S_SPI2_SD_Pin;
 80021e2:	021b      	lsls	r3, r3, #8
 80021e4:	9303      	str	r3, [sp, #12]
    GPIO_InitStruct.Pull = GPIO_NOPULL;
 80021e6:	9705      	str	r7, [sp, #20]
    GPIO_InitStruct.Speed = GPIO_SPEED_FREQ_HIGH;
 80021e8:	9506      	str	r5, [sp, #24]
    GPIO_InitStruct.Alternate = GPIO_AF0_SPI2;
 80021ea:	9707      	str	r7, [sp, #28]
    HAL_GPIO_Init(I2S_SPI2_SD_GPIO_Port, &GPIO_InitStruct);
 80021ec:	f000 fbd0 	bl	8002990 <HAL_GPIO_Init>

    GPIO_InitStruct.Pin = I2S_SPI2_WS_Pin|I2S_SPI2_CK_Pin;
 80021f0:	2303      	movs	r3, #3
    GPIO_InitStruct.Mode = GPIO_MODE_AF_PP;
    GPIO_InitStruct.Pull = GPIO_NOPULL;
    GPIO_InitStruct.Speed = GPIO_SPEED_FREQ_HIGH;
    GPIO_InitStruct.Alternate = GPIO_AF1_SPI2;
    HAL_GPIO_Init(GPIOD, &GPIO_InitStruct);
 80021f2:	4815      	ldr	r0, [pc, #84]	; (8002248 <HAL_I2S_MspInit+0xb4>)
    GPIO_InitStruct.Pin = I2S_SPI2_WS_Pin|I2S_SPI2_CK_Pin;
 80021f4:	9303      	str	r3, [sp, #12]
    HAL_GPIO_Init(GPIOD, &GPIO_InitStruct);
 80021f6:	a903      	add	r1, sp, #12
    GPIO_InitStruct.Alternate = GPIO_AF1_SPI2;
 80021f8:	3b02      	subs	r3, #2
 80021fa:	9307      	str	r3, [sp, #28]
    GPIO_InitStruct.Mode = GPIO_MODE_AF_PP;
 80021fc:	9504      	str	r5, [sp, #16]
    GPIO_InitStruct.Pull = GPIO_NOPULL;
 80021fe:	9705      	str	r7, [sp, #20]
    GPIO_InitStruct.Speed = GPIO_SPEED_FREQ_HIGH;
 8002200:	9506      	str	r5, [sp, #24]
    HAL_GPIO_Init(GPIOD, &GPIO_InitStruct);
 8002202:	f000 fbc5 	bl	8002990 <HAL_GPIO_Init>

    /* I2S2 DMA Init */
    /* SPI2_TX Init */
    hdma_spi2_tx.Instance = DMA1_Channel7;
 8002206:	4c11      	ldr	r4, [pc, #68]	; (800224c <HAL_I2S_MspInit+0xb8>)
 8002208:	4b11      	ldr	r3, [pc, #68]	; (8002250 <HAL_I2S_MspInit+0xbc>)
    hdma_spi2_tx.Init.MemInc = DMA_MINC_ENABLE;
    hdma_spi2_tx.Init.PeriphDataAlignment = DMA_PDATAALIGN_HALFWORD;
    hdma_spi2_tx.Init.MemDataAlignment = DMA_MDATAALIGN_HALFWORD;
    hdma_spi2_tx.Init.Mode = DMA_NORMAL;
    hdma_spi2_tx.Init.Priority = DMA_PRIORITY_LOW;
    if (HAL_DMA_Init(&hdma_spi2_tx) != HAL_OK)
 800220a:	0020      	movs	r0, r4
    hdma_spi2_tx.Instance = DMA1_Channel7;
 800220c:	6023      	str	r3, [r4, #0]
    hdma_spi2_tx.Init.Direction = DMA_MEMORY_TO_PERIPH;
 800220e:	2310      	movs	r3, #16
 8002210:	60a3      	str	r3, [r4, #8]
    hdma_spi2_tx.Init.MemInc = DMA_MINC_ENABLE;
 8002212:	3370      	adds	r3, #112	; 0x70
 8002214:	6123      	str	r3, [r4, #16]
    hdma_spi2_tx.Init.PeriphDataAlignment = DMA_PDATAALIGN_HALFWORD;
 8002216:	3380      	adds	r3, #128	; 0x80
 8002218:	6163      	str	r3, [r4, #20]
    hdma_spi2_tx.Init.MemDataAlignment = DMA_MDATAALIGN_HALFWORD;
 800221a:	2380      	movs	r3, #128	; 0x80
 800221c:	00db      	lsls	r3, r3, #3
    hdma_spi2_tx.Init.Request = DMA_REQUEST_2;
 800221e:	6065      	str	r5, [r4, #4]
    hdma_spi2_tx.Init.PeriphInc = DMA_PINC_DISABLE;
 8002220:	60e7      	str	r7, [r4, #12]
    hdma_spi2_tx.Init.MemDataAlignment = DMA_MDATAALIGN_HALFWORD;
 8002222:	61a3      	str	r3, [r4, #24]
    hdma_spi2_tx.Init.Mode = DMA_NORMAL;
 8002224:	61e7      	str	r7, [r4, #28]
    hdma_spi2_tx.Init.Priority = DMA_PRIORITY_LOW;
 8002226:	6227      	str	r7, [r4, #32]
    if (HAL_DMA_Init(&hdma_spi2_tx) != HAL_OK)
 8002228:	f000 fae2 	bl	80027f0 <HAL_DMA_Init>
 800222c:	42b8      	cmp	r0, r7
 800222e:	d001      	beq.n	8002234 <HAL_I2S_MspInit+0xa0>
    {
      Error_Handler();
 8002230:	f7ff fe56 	bl	8001ee0 <Error_Handler>
    }

    __HAL_LINKDMA(hi2s,hdmatx,hdma_spi2_tx);
 8002234:	62f4      	str	r4, [r6, #44]	; 0x2c
 8002236:	62a6      	str	r6, [r4, #40]	; 0x28
  /* USER CODE BEGIN SPI2_MspInit 1 */

  /* USER CODE END SPI2_MspInit 1 */
  }

}
 8002238:	b009      	add	sp, #36	; 0x24
 800223a:	bdf0      	pop	{r4, r5, r6, r7, pc}
 800223c:	40003800 	.word	0x40003800
 8002240:	40021000 	.word	0x40021000
 8002244:	50000400 	.word	0x50000400
 8002248:	50000c00 	.word	0x50000c00
 800224c:	200000e0 	.word	0x200000e0
 8002250:	40020080 	.word	0x40020080

08002254 <HAL_SPI_MspInit>:
* This function configures the hardware resources used in this example
* @param hspi: SPI handle pointer
* @retval None
*/
void HAL_SPI_MspInit(SPI_HandleTypeDef* hspi)
{
 8002254:	b570      	push	{r4, r5, r6, lr}
 8002256:	0005      	movs	r5, r0
 8002258:	b086      	sub	sp, #24
  GPIO_InitTypeDef GPIO_InitStruct = {0};
 800225a:	2214      	movs	r2, #20
 800225c:	2100      	movs	r1, #0
 800225e:	a801      	add	r0, sp, #4
 8002260:	f003 f93a 	bl	80054d8 <memset>
  if(hspi->Instance==SPI1)
 8002264:	4b27      	ldr	r3, [pc, #156]	; (8002304 <HAL_SPI_MspInit+0xb0>)
 8002266:	682a      	ldr	r2, [r5, #0]
 8002268:	429a      	cmp	r2, r3
 800226a:	d149      	bne.n	8002300 <HAL_SPI_MspInit+0xac>
  {
  /* USER CODE BEGIN SPI1_MspInit 0 */

  /* USER CODE END SPI1_MspInit 0 */
    /* Peripheral clock enable */
    __HAL_RCC_SPI1_CLK_ENABLE();
 800226c:	2280      	movs	r2, #128	; 0x80
 800226e:	4b26      	ldr	r3, [pc, #152]	; (8002308 <HAL_SPI_MspInit+0xb4>)
 8002270:	0152      	lsls	r2, r2, #5
 8002272:	6b59      	ldr	r1, [r3, #52]	; 0x34
    PE14     ------> SPI1_MISO
    PE15     ------> SPI1_MOSI
    */
    GPIO_InitStruct.Pin = SD_SPI1_SCK_Pin|SD_SPI1_MISO_Pin|SD_SPI1_MOSI_Pin;
    GPIO_InitStruct.Mode = GPIO_MODE_AF_PP;
    GPIO_InitStruct.Pull = GPIO_NOPULL;
 8002274:	2600      	movs	r6, #0
    __HAL_RCC_SPI1_CLK_ENABLE();
 8002276:	430a      	orrs	r2, r1
    __HAL_RCC_GPIOE_CLK_ENABLE();
 8002278:	2110      	movs	r1, #16
    __HAL_RCC_SPI1_CLK_ENABLE();
 800227a:	635a      	str	r2, [r3, #52]	; 0x34
    __HAL_RCC_GPIOE_CLK_ENABLE();
 800227c:	6ada      	ldr	r2, [r3, #44]	; 0x2c
    GPIO_InitStruct.Speed = GPIO_SPEED_FREQ_VERY_HIGH;
    GPIO_InitStruct.Alternate = GPIO_AF2_SPI1;
    HAL_GPIO_Init(GPIOE, &GPIO_InitStruct);
 800227e:	4823      	ldr	r0, [pc, #140]	; (800230c <HAL_SPI_MspInit+0xb8>)
    __HAL_RCC_GPIOE_CLK_ENABLE();
 8002280:	430a      	orrs	r2, r1
 8002282:	62da      	str	r2, [r3, #44]	; 0x2c
 8002284:	6adb      	ldr	r3, [r3, #44]	; 0x2c
    GPIO_InitStruct.Speed = GPIO_SPEED_FREQ_VERY_HIGH;
 8002286:	2203      	movs	r2, #3
    __HAL_RCC_GPIOE_CLK_ENABLE();
 8002288:	400b      	ands	r3, r1
 800228a:	9300      	str	r3, [sp, #0]
 800228c:	9b00      	ldr	r3, [sp, #0]
    GPIO_InitStruct.Pin = SD_SPI1_SCK_Pin|SD_SPI1_MISO_Pin|SD_SPI1_MOSI_Pin;
 800228e:	23e0      	movs	r3, #224	; 0xe0
 8002290:	021b      	lsls	r3, r3, #8
 8002292:	9301      	str	r3, [sp, #4]
    GPIO_InitStruct.Mode = GPIO_MODE_AF_PP;
 8002294:	2302      	movs	r3, #2
    HAL_GPIO_Init(GPIOE, &GPIO_InitStruct);
 8002296:	a901      	add	r1, sp, #4
    GPIO_InitStruct.Mode = GPIO_MODE_AF_PP;
 8002298:	9302      	str	r3, [sp, #8]
    GPIO_InitStruct.Alternate = GPIO_AF2_SPI1;
 800229a:	9305      	str	r3, [sp, #20]
    GPIO_InitStruct.Pull = GPIO_NOPULL;
 800229c:	9603      	str	r6, [sp, #12]
    GPIO_InitStruct.Speed = GPIO_SPEED_FREQ_VERY_HIGH;
 800229e:	9204      	str	r2, [sp, #16]
    HAL_GPIO_Init(GPIOE, &GPIO_InitStruct);
 80022a0:	f000 fb76 	bl	8002990 <HAL_GPIO_Init>

    /* SPI1 DMA Init */
    /* SPI1_RX Init */
    hdma_spi1_rx.Instance = DMA1_Channel2;
 80022a4:	4c1a      	ldr	r4, [pc, #104]	; (8002310 <HAL_SPI_MspInit+0xbc>)
 80022a6:	4b1b      	ldr	r3, [pc, #108]	; (8002314 <HAL_SPI_MspInit+0xc0>)
    hdma_spi1_rx.Init.MemInc = DMA_MINC_ENABLE;
    hdma_spi1_rx.Init.PeriphDataAlignment = DMA_PDATAALIGN_BYTE;
    hdma_spi1_rx.Init.MemDataAlignment = DMA_MDATAALIGN_BYTE;
    hdma_spi1_rx.Init.Mode = DMA_NORMAL;
    hdma_spi1_rx.Init.Priority = DMA_PRIORITY_LOW;
    if (HAL_DMA_Init(&hdma_spi1_rx) != HAL_OK)
 80022a8:	0020      	movs	r0, r4
    hdma_spi1_rx.Instance = DMA1_Channel2;
 80022aa:	6023      	str	r3, [r4, #0]
    hdma_spi1_rx.Init.Request = DMA_REQUEST_1;
 80022ac:	2301      	movs	r3, #1
 80022ae:	6063      	str	r3, [r4, #4]
    hdma_spi1_rx.Init.MemInc = DMA_MINC_ENABLE;
 80022b0:	337f      	adds	r3, #127	; 0x7f
    hdma_spi1_rx.Init.Direction = DMA_PERIPH_TO_MEMORY;
 80022b2:	60a6      	str	r6, [r4, #8]
    hdma_spi1_rx.Init.PeriphInc = DMA_PINC_DISABLE;
 80022b4:	60e6      	str	r6, [r4, #12]
    hdma_spi1_rx.Init.MemInc = DMA_MINC_ENABLE;
 80022b6:	6123      	str	r3, [r4, #16]
    hdma_spi1_rx.Init.PeriphDataAlignment = DMA_PDATAALIGN_BYTE;
 80022b8:	6166      	str	r6, [r4, #20]
    hdma_spi1_rx.Init.MemDataAlignment = DMA_MDATAALIGN_BYTE;
 80022ba:	61a6      	str	r6, [r4, #24]
    hdma_spi1_rx.Init.Mode = DMA_NORMAL;
 80022bc:	61e6      	str	r6, [r4, #28]
    hdma_spi1_rx.Init.Priority = DMA_PRIORITY_LOW;
 80022be:	6226      	str	r6, [r4, #32]
    if (HAL_DMA_Init(&hdma_spi1_rx) != HAL_OK)
 80022c0:	f000 fa96 	bl	80027f0 <HAL_DMA_Init>
 80022c4:	42b0      	cmp	r0, r6
 80022c6:	d001      	beq.n	80022cc <HAL_SPI_MspInit+0x78>
    {
      Error_Handler();
 80022c8:	f7ff fe0a 	bl	8001ee0 <Error_Handler>
    }

    __HAL_LINKDMA(hspi,hdmarx,hdma_spi1_rx);

    /* SPI1_TX Init */
    hdma_spi1_tx.Instance = DMA1_Channel3;
 80022cc:	4b12      	ldr	r3, [pc, #72]	; (8002318 <HAL_SPI_MspInit+0xc4>)
    __HAL_LINKDMA(hspi,hdmarx,hdma_spi1_rx);
 80022ce:	64ec      	str	r4, [r5, #76]	; 0x4c
 80022d0:	62a5      	str	r5, [r4, #40]	; 0x28
    hdma_spi1_tx.Instance = DMA1_Channel3;
 80022d2:	4c12      	ldr	r4, [pc, #72]	; (800231c <HAL_SPI_MspInit+0xc8>)
    hdma_spi1_tx.Init.Request = DMA_REQUEST_1;
    hdma_spi1_tx.Init.Direction = DMA_MEMORY_TO_PERIPH;
    hdma_spi1_tx.Init.PeriphInc = DMA_PINC_DISABLE;
    hdma_spi1_tx.Init.MemInc = DMA_MINC_ENABLE;
 80022d4:	2280      	movs	r2, #128	; 0x80
    hdma_spi1_tx.Instance = DMA1_Channel3;
 80022d6:	6023      	str	r3, [r4, #0]
    hdma_spi1_tx.Init.Request = DMA_REQUEST_1;
 80022d8:	2301      	movs	r3, #1
 80022da:	6063      	str	r3, [r4, #4]
    hdma_spi1_tx.Init.Direction = DMA_MEMORY_TO_PERIPH;
 80022dc:	330f      	adds	r3, #15
 80022de:	60a3      	str	r3, [r4, #8]
    hdma_spi1_tx.Init.PeriphInc = DMA_PINC_DISABLE;
 80022e0:	2300      	movs	r3, #0
    hdma_spi1_tx.Init.PeriphDataAlignment = DMA_PDATAALIGN_BYTE;
    hdma_spi1_tx.Init.MemDataAlignment = DMA_MDATAALIGN_BYTE;
    hdma_spi1_tx.Init.Mode = DMA_NORMAL;
    hdma_spi1_tx.Init.Priority = DMA_PRIORITY_LOW;
    if (HAL_DMA_Init(&hdma_spi1_tx) != HAL_OK)
 80022e2:	0020      	movs	r0, r4
    hdma_spi1_tx.Init.PeriphInc = DMA_PINC_DISABLE;
 80022e4:	60e3      	str	r3, [r4, #12]
    hdma_spi1_tx.Init.MemInc = DMA_MINC_ENABLE;
 80022e6:	6122      	str	r2, [r4, #16]
    hdma_spi1_tx.Init.PeriphDataAlignment = DMA_PDATAALIGN_BYTE;
 80022e8:	6163      	str	r3, [r4, #20]
    hdma_spi1_tx.Init.MemDataAlignment = DMA_MDATAALIGN_BYTE;
 80022ea:	61a3      	str	r3, [r4, #24]
    hdma_spi1_tx.Init.Mode = DMA_NORMAL;
 80022ec:	61e3      	str	r3, [r4, #28]
    hdma_spi1_tx.Init.Priority = DMA_PRIORITY_LOW;
 80022ee:	6223      	str	r3, [r4, #32]
    if (HAL_DMA_Init(&hdma_spi1_tx) != HAL_OK)
 80022f0:	f000 fa7e 	bl	80027f0 <HAL_DMA_Init>
 80022f4:	2800      	cmp	r0, #0
 80022f6:	d001      	beq.n	80022fc <HAL_SPI_MspInit+0xa8>
    {
      Error_Handler();
 80022f8:	f7ff fdf2 	bl	8001ee0 <Error_Handler>
    }

    __HAL_LINKDMA(hspi,hdmatx,hdma_spi1_tx);
 80022fc:	64ac      	str	r4, [r5, #72]	; 0x48
 80022fe:	62a5      	str	r5, [r4, #40]	; 0x28
  /* USER CODE BEGIN SPI1_MspInit 1 */

  /* USER CODE END SPI1_MspInit 1 */
  }

}
 8002300:	b006      	add	sp, #24
 8002302:	bd70      	pop	{r4, r5, r6, pc}
 8002304:	40013000 	.word	0x40013000
 8002308:	40021000 	.word	0x40021000
 800230c:	50001000 	.word	0x50001000
 8002310:	20000180 	.word	0x20000180
 8002314:	4002001c 	.word	0x4002001c
 8002318:	40020030 	.word	0x40020030
 800231c:	200001c8 	.word	0x200001c8

08002320 <HAL_TIM_Base_MspInit>:
* @param htim_base: TIM_Base handle pointer
* @retval None
*/
void HAL_TIM_Base_MspInit(TIM_HandleTypeDef* htim_base)
{
  if(htim_base->Instance==TIM2)
 8002320:	2380      	movs	r3, #128	; 0x80
 8002322:	6802      	ldr	r2, [r0, #0]
{
 8002324:	b570      	push	{r4, r5, r6, lr}
  if(htim_base->Instance==TIM2)
 8002326:	05db      	lsls	r3, r3, #23
{
 8002328:	0005      	movs	r5, r0
  if(htim_base->Instance==TIM2)
 800232a:	429a      	cmp	r2, r3
 800232c:	d152      	bne.n	80023d4 <HAL_TIM_Base_MspInit+0xb4>
  {
  /* USER CODE BEGIN TIM2_MspInit 0 */

  /* USER CODE END TIM2_MspInit 0 */
    /* Peripheral clock enable */
    __HAL_RCC_TIM2_CLK_ENABLE();
 800232e:	2301      	movs	r3, #1
 8002330:	4a29      	ldr	r2, [pc, #164]	; (80023d8 <HAL_TIM_Base_MspInit+0xb8>)

    /* TIM2 DMA Init */
    /* TIM2_CH1 Init */
    hdma_tim2_ch1.Instance = DMA1_Channel5;
 8002332:	4c2a      	ldr	r4, [pc, #168]	; (80023dc <HAL_TIM_Base_MspInit+0xbc>)
    __HAL_RCC_TIM2_CLK_ENABLE();
 8002334:	6b91      	ldr	r1, [r2, #56]	; 0x38
    hdma_tim2_ch1.Init.MemInc = DMA_MINC_ENABLE;
    hdma_tim2_ch1.Init.PeriphDataAlignment = DMA_PDATAALIGN_WORD;
    hdma_tim2_ch1.Init.MemDataAlignment = DMA_MDATAALIGN_BYTE;
    hdma_tim2_ch1.Init.Mode = DMA_NORMAL;
    hdma_tim2_ch1.Init.Priority = DMA_PRIORITY_LOW;
    if (HAL_DMA_Init(&hdma_tim2_ch1) != HAL_OK)
 8002336:	0020      	movs	r0, r4
    __HAL_RCC_TIM2_CLK_ENABLE();
 8002338:	430b      	orrs	r3, r1
 800233a:	6393      	str	r3, [r2, #56]	; 0x38
    hdma_tim2_ch1.Instance = DMA1_Channel5;
 800233c:	4b28      	ldr	r3, [pc, #160]	; (80023e0 <HAL_TIM_Base_MspInit+0xc0>)
    hdma_tim2_ch1.Init.MemInc = DMA_MINC_ENABLE;
 800233e:	2280      	movs	r2, #128	; 0x80
    hdma_tim2_ch1.Instance = DMA1_Channel5;
 8002340:	6023      	str	r3, [r4, #0]
    hdma_tim2_ch1.Init.Request = DMA_REQUEST_8;
 8002342:	2308      	movs	r3, #8
 8002344:	6063      	str	r3, [r4, #4]
    hdma_tim2_ch1.Init.Direction = DMA_MEMORY_TO_PERIPH;
 8002346:	18db      	adds	r3, r3, r3
 8002348:	60a3      	str	r3, [r4, #8]
    hdma_tim2_ch1.Init.PeriphInc = DMA_PINC_DISABLE;
 800234a:	2300      	movs	r3, #0
    hdma_tim2_ch1.Init.MemInc = DMA_MINC_ENABLE;
 800234c:	6122      	str	r2, [r4, #16]
    hdma_tim2_ch1.Init.PeriphDataAlignment = DMA_PDATAALIGN_WORD;
 800234e:	3281      	adds	r2, #129	; 0x81
 8002350:	32ff      	adds	r2, #255	; 0xff
    hdma_tim2_ch1.Init.PeriphInc = DMA_PINC_DISABLE;
 8002352:	60e3      	str	r3, [r4, #12]
    hdma_tim2_ch1.Init.PeriphDataAlignment = DMA_PDATAALIGN_WORD;
 8002354:	6162      	str	r2, [r4, #20]
    hdma_tim2_ch1.Init.MemDataAlignment = DMA_MDATAALIGN_BYTE;
 8002356:	61a3      	str	r3, [r4, #24]
    hdma_tim2_ch1.Init.Mode = DMA_NORMAL;
 8002358:	61e3      	str	r3, [r4, #28]
    hdma_tim2_ch1.Init.Priority = DMA_PRIORITY_LOW;
 800235a:	6223      	str	r3, [r4, #32]
    if (HAL_DMA_Init(&hdma_tim2_ch1) != HAL_OK)
 800235c:	f000 fa48 	bl	80027f0 <HAL_DMA_Init>
 8002360:	2800      	cmp	r0, #0
 8002362:	d001      	beq.n	8002368 <HAL_TIM_Base_MspInit+0x48>
    {
      Error_Handler();
 8002364:	f7ff fdbc 	bl	8001ee0 <Error_Handler>
    }

    __HAL_LINKDMA(htim_base,hdma[TIM_DMA_ID_CC1],hdma_tim2_ch1);
 8002368:	622c      	str	r4, [r5, #32]

    /* TIM2_CH3 Init */
    hdma_tim2_ch3.Instance = DMA1_Channel1;
 800236a:	4b1e      	ldr	r3, [pc, #120]	; (80023e4 <HAL_TIM_Base_MspInit+0xc4>)
    __HAL_LINKDMA(htim_base,hdma[TIM_DMA_ID_CC1],hdma_tim2_ch1);
 800236c:	62a5      	str	r5, [r4, #40]	; 0x28
    hdma_tim2_ch3.Instance = DMA1_Channel1;
 800236e:	4c1e      	ldr	r4, [pc, #120]	; (80023e8 <HAL_TIM_Base_MspInit+0xc8>)
    hdma_tim2_ch3.Init.Request = DMA_REQUEST_8;
    hdma_tim2_ch3.Init.Direction = DMA_MEMORY_TO_PERIPH;
    hdma_tim2_ch3.Init.PeriphInc = DMA_PINC_DISABLE;
    hdma_tim2_ch3.Init.MemInc = DMA_MINC_ENABLE;
 8002370:	2280      	movs	r2, #128	; 0x80
    hdma_tim2_ch3.Instance = DMA1_Channel1;
 8002372:	6023      	str	r3, [r4, #0]
    hdma_tim2_ch3.Init.Request = DMA_REQUEST_8;
 8002374:	2308      	movs	r3, #8
 8002376:	6063      	str	r3, [r4, #4]
    hdma_tim2_ch3.Init.Direction = DMA_MEMORY_TO_PERIPH;
 8002378:	18db      	adds	r3, r3, r3
 800237a:	60a3      	str	r3, [r4, #8]
    hdma_tim2_ch3.Init.PeriphInc = DMA_PINC_DISABLE;
 800237c:	2300      	movs	r3, #0
    hdma_tim2_ch3.Init.MemInc = DMA_MINC_ENABLE;
 800237e:	6122      	str	r2, [r4, #16]
    hdma_tim2_ch3.Init.PeriphDataAlignment = DMA_PDATAALIGN_WORD;
 8002380:	3281      	adds	r2, #129	; 0x81
 8002382:	32ff      	adds	r2, #255	; 0xff
    hdma_tim2_ch3.Init.MemDataAlignment = DMA_MDATAALIGN_BYTE;
    hdma_tim2_ch3.Init.Mode = DMA_NORMAL;
    hdma_tim2_ch3.Init.Priority = DMA_PRIORITY_LOW;
    if (HAL_DMA_Init(&hdma_tim2_ch3) != HAL_OK)
 8002384:	0020      	movs	r0, r4
    hdma_tim2_ch3.Init.PeriphInc = DMA_PINC_DISABLE;
 8002386:	60e3      	str	r3, [r4, #12]
    hdma_tim2_ch3.Init.PeriphDataAlignment = DMA_PDATAALIGN_WORD;
 8002388:	6162      	str	r2, [r4, #20]
    hdma_tim2_ch3.Init.MemDataAlignment = DMA_MDATAALIGN_BYTE;
 800238a:	61a3      	str	r3, [r4, #24]
    hdma_tim2_ch3.Init.Mode = DMA_NORMAL;
 800238c:	61e3      	str	r3, [r4, #28]
    hdma_tim2_ch3.Init.Priority = DMA_PRIORITY_LOW;
 800238e:	6223      	str	r3, [r4, #32]
    if (HAL_DMA_Init(&hdma_tim2_ch3) != HAL_OK)
 8002390:	f000 fa2e 	bl	80027f0 <HAL_DMA_Init>
 8002394:	2800      	cmp	r0, #0
 8002396:	d001      	beq.n	800239c <HAL_TIM_Base_MspInit+0x7c>
    {
      Error_Handler();
 8002398:	f7ff fda2 	bl	8001ee0 <Error_Handler>
    }

    __HAL_LINKDMA(htim_base,hdma[TIM_DMA_ID_CC3],hdma_tim2_ch3);

    /* TIM2_CH4 Init */
    hdma_tim2_ch4.Instance = DMA1_Channel4;
 800239c:	4b13      	ldr	r3, [pc, #76]	; (80023ec <HAL_TIM_Base_MspInit+0xcc>)
    __HAL_LINKDMA(htim_base,hdma[TIM_DMA_ID_CC3],hdma_tim2_ch3);
 800239e:	62ac      	str	r4, [r5, #40]	; 0x28
 80023a0:	62a5      	str	r5, [r4, #40]	; 0x28
    hdma_tim2_ch4.Instance = DMA1_Channel4;
 80023a2:	4c13      	ldr	r4, [pc, #76]	; (80023f0 <HAL_TIM_Base_MspInit+0xd0>)
    hdma_tim2_ch4.Init.Request = DMA_REQUEST_8;
    hdma_tim2_ch4.Init.Direction = DMA_MEMORY_TO_PERIPH;
    hdma_tim2_ch4.Init.PeriphInc = DMA_PINC_DISABLE;
    hdma_tim2_ch4.Init.MemInc = DMA_MINC_ENABLE;
 80023a4:	2280      	movs	r2, #128	; 0x80
    hdma_tim2_ch4.Instance = DMA1_Channel4;
 80023a6:	6023      	str	r3, [r4, #0]
    hdma_tim2_ch4.Init.Request = DMA_REQUEST_8;
 80023a8:	2308      	movs	r3, #8
 80023aa:	6063      	str	r3, [r4, #4]
    hdma_tim2_ch4.Init.Direction = DMA_MEMORY_TO_PERIPH;
 80023ac:	18db      	adds	r3, r3, r3
 80023ae:	60a3      	str	r3, [r4, #8]
    hdma_tim2_ch4.Init.PeriphInc = DMA_PINC_DISABLE;
 80023b0:	2300      	movs	r3, #0
    hdma_tim2_ch4.Init.MemInc = DMA_MINC_ENABLE;
 80023b2:	6122      	str	r2, [r4, #16]
    hdma_tim2_ch4.Init.PeriphDataAlignment = DMA_PDATAALIGN_WORD;
 80023b4:	3281      	adds	r2, #129	; 0x81
 80023b6:	32ff      	adds	r2, #255	; 0xff
    hdma_tim2_ch4.Init.MemDataAlignment = DMA_MDATAALIGN_BYTE;
    hdma_tim2_ch4.Init.Mode = DMA_NORMAL;
    hdma_tim2_ch4.Init.Priority = DMA_PRIORITY_LOW;
    if (HAL_DMA_Init(&hdma_tim2_ch4) != HAL_OK)
 80023b8:	0020      	movs	r0, r4
    hdma_tim2_ch4.Init.PeriphInc = DMA_PINC_DISABLE;
 80023ba:	60e3      	str	r3, [r4, #12]
    hdma_tim2_ch4.Init.PeriphDataAlignment = DMA_PDATAALIGN_WORD;
 80023bc:	6162      	str	r2, [r4, #20]
    hdma_tim2_ch4.Init.MemDataAlignment = DMA_MDATAALIGN_BYTE;
 80023be:	61a3      	str	r3, [r4, #24]
    hdma_tim2_ch4.Init.Mode = DMA_NORMAL;
 80023c0:	61e3      	str	r3, [r4, #28]
    hdma_tim2_ch4.Init.Priority = DMA_PRIORITY_LOW;
 80023c2:	6223      	str	r3, [r4, #32]
    if (HAL_DMA_Init(&hdma_tim2_ch4) != HAL_OK)
 80023c4:	f000 fa14 	bl	80027f0 <HAL_DMA_Init>
 80023c8:	2800      	cmp	r0, #0
 80023ca:	d001      	beq.n	80023d0 <HAL_TIM_Base_MspInit+0xb0>
    {
      Error_Handler();
 80023cc:	f7ff fd88 	bl	8001ee0 <Error_Handler>
    }

    __HAL_LINKDMA(htim_base,hdma[TIM_DMA_ID_CC4],hdma_tim2_ch4);
 80023d0:	62ec      	str	r4, [r5, #44]	; 0x2c
 80023d2:	62a5      	str	r5, [r4, #40]	; 0x28
  /* USER CODE BEGIN TIM2_MspInit 1 */

  /* USER CODE END TIM2_MspInit 1 */
  }

}
 80023d4:	bd70      	pop	{r4, r5, r6, pc}
 80023d6:	46c0      	nop			; (mov r8, r8)
 80023d8:	40021000 	.word	0x40021000
 80023dc:	2000024c 	.word	0x2000024c
 80023e0:	40020058 	.word	0x40020058
 80023e4:	40020008 	.word	0x40020008
 80023e8:	20000294 	.word	0x20000294
 80023ec:	40020044 	.word	0x40020044
 80023f0:	200002dc 	.word	0x200002dc

080023f4 <HAL_TIM_MspPostInit>:

void HAL_TIM_MspPostInit(TIM_HandleTypeDef* htim)
{
 80023f4:	b510      	push	{r4, lr}
 80023f6:	0004      	movs	r4, r0
 80023f8:	b086      	sub	sp, #24
  GPIO_InitTypeDef GPIO_InitStruct = {0};
 80023fa:	2214      	movs	r2, #20
 80023fc:	2100      	movs	r1, #0
 80023fe:	a801      	add	r0, sp, #4
 8002400:	f003 f86a 	bl	80054d8 <memset>
  if(htim->Instance==TIM2)
 8002404:	2380      	movs	r3, #128	; 0x80
 8002406:	6822      	ldr	r2, [r4, #0]
 8002408:	05db      	lsls	r3, r3, #23
 800240a:	429a      	cmp	r2, r3
 800240c:	d115      	bne.n	800243a <HAL_TIM_MspPostInit+0x46>
  {
  /* USER CODE BEGIN TIM2_MspPostInit 0 */

  /* USER CODE END TIM2_MspPostInit 0 */

    __HAL_RCC_GPIOE_CLK_ENABLE();
 800240e:	2010      	movs	r0, #16
 8002410:	4a0b      	ldr	r2, [pc, #44]	; (8002440 <HAL_TIM_MspPostInit+0x4c>)
 8002412:	6ad1      	ldr	r1, [r2, #44]	; 0x2c
 8002414:	4301      	orrs	r1, r0
 8002416:	62d1      	str	r1, [r2, #44]	; 0x2c
 8002418:	6ad3      	ldr	r3, [r2, #44]	; 0x2c
    GPIO_InitStruct.Pin = NEOPIX_STARS_Pin|NEOPIX_ROCKET_L_Pin|NEOPIX_ROCKET_R_Pin;
    GPIO_InitStruct.Mode = GPIO_MODE_AF_PP;
    GPIO_InitStruct.Pull = GPIO_NOPULL;
    GPIO_InitStruct.Speed = GPIO_SPEED_FREQ_LOW;
    GPIO_InitStruct.Alternate = GPIO_AF0_TIM2;
    HAL_GPIO_Init(GPIOE, &GPIO_InitStruct);
 800241a:	a901      	add	r1, sp, #4
    __HAL_RCC_GPIOE_CLK_ENABLE();
 800241c:	4003      	ands	r3, r0
 800241e:	9300      	str	r3, [sp, #0]
 8002420:	9b00      	ldr	r3, [sp, #0]
    GPIO_InitStruct.Pin = NEOPIX_STARS_Pin|NEOPIX_ROCKET_L_Pin|NEOPIX_ROCKET_R_Pin;
 8002422:	23d0      	movs	r3, #208	; 0xd0
 8002424:	015b      	lsls	r3, r3, #5
 8002426:	9301      	str	r3, [sp, #4]
    GPIO_InitStruct.Mode = GPIO_MODE_AF_PP;
 8002428:	2302      	movs	r3, #2
 800242a:	9302      	str	r3, [sp, #8]
    GPIO_InitStruct.Pull = GPIO_NOPULL;
 800242c:	2300      	movs	r3, #0
    HAL_GPIO_Init(GPIOE, &GPIO_InitStruct);
 800242e:	4805      	ldr	r0, [pc, #20]	; (8002444 <HAL_TIM_MspPostInit+0x50>)
    GPIO_InitStruct.Pull = GPIO_NOPULL;
 8002430:	9303      	str	r3, [sp, #12]
    GPIO_InitStruct.Speed = GPIO_SPEED_FREQ_LOW;
 8002432:	9304      	str	r3, [sp, #16]
    GPIO_InitStruct.Alternate = GPIO_AF0_TIM2;
 8002434:	9305      	str	r3, [sp, #20]
    HAL_GPIO_Init(GPIOE, &GPIO_InitStruct);
 8002436:	f000 faab 	bl	8002990 <HAL_GPIO_Init>
  /* USER CODE BEGIN TIM2_MspPostInit 1 */

  /* USER CODE END TIM2_MspPostInit 1 */
  }

}
 800243a:	b006      	add	sp, #24
 800243c:	bd10      	pop	{r4, pc}
 800243e:	46c0      	nop			; (mov r8, r8)
 8002440:	40021000 	.word	0x40021000
 8002444:	50001000 	.word	0x50001000

08002448 <HAL_TSC_MspInit>:
* This function configures the hardware resources used in this example
* @param htsc: TSC handle pointer
* @retval None
*/
void HAL_TSC_MspInit(TSC_HandleTypeDef* htsc)
{
 8002448:	b5f0      	push	{r4, r5, r6, r7, lr}
 800244a:	0004      	movs	r4, r0
 800244c:	b08b      	sub	sp, #44	; 0x2c
  GPIO_InitTypeDef GPIO_InitStruct = {0};
 800244e:	2214      	movs	r2, #20
 8002450:	2100      	movs	r1, #0
 8002452:	a805      	add	r0, sp, #20
 8002454:	f003 f840 	bl	80054d8 <memset>
  if(htsc->Instance==TSC)
 8002458:	4b34      	ldr	r3, [pc, #208]	; (800252c <HAL_TSC_MspInit+0xe4>)
 800245a:	6822      	ldr	r2, [r4, #0]
 800245c:	429a      	cmp	r2, r3
 800245e:	d162      	bne.n	8002526 <HAL_TSC_MspInit+0xde>
  {
  /* USER CODE BEGIN TSC_MspInit 0 */

  /* USER CODE END TSC_MspInit 0 */
    /* Peripheral clock enable */
    __HAL_RCC_TSC_CLK_ENABLE();
 8002460:	2080      	movs	r0, #128	; 0x80
 8002462:	4b33      	ldr	r3, [pc, #204]	; (8002530 <HAL_TSC_MspInit+0xe8>)
 8002464:	0240      	lsls	r0, r0, #9
 8002466:	6b19      	ldr	r1, [r3, #48]	; 0x30

    __HAL_RCC_GPIOC_CLK_ENABLE();
    __HAL_RCC_GPIOA_CLK_ENABLE();
    __HAL_RCC_GPIOB_CLK_ENABLE();
 8002468:	2602      	movs	r6, #2
    __HAL_RCC_TSC_CLK_ENABLE();
 800246a:	4301      	orrs	r1, r0
 800246c:	6319      	str	r1, [r3, #48]	; 0x30
 800246e:	6b1a      	ldr	r2, [r3, #48]	; 0x30
    PB6     ------> TSC_G5_IO3
    PB7     ------> TSC_G5_IO4
    */
    GPIO_InitStruct.Pin = TOUCH_G7_1_SAMP_Pin|GPIO_PIN_5|GPIO_PIN_6;
    GPIO_InitStruct.Mode = GPIO_MODE_AF_OD;
    GPIO_InitStruct.Pull = GPIO_NOPULL;
 8002470:	2400      	movs	r4, #0
    __HAL_RCC_TSC_CLK_ENABLE();
 8002472:	4002      	ands	r2, r0
    __HAL_RCC_GPIOC_CLK_ENABLE();
 8002474:	2004      	movs	r0, #4
    __HAL_RCC_TSC_CLK_ENABLE();
 8002476:	9201      	str	r2, [sp, #4]
 8002478:	9a01      	ldr	r2, [sp, #4]
    __HAL_RCC_GPIOC_CLK_ENABLE();
 800247a:	6ad9      	ldr	r1, [r3, #44]	; 0x2c
    GPIO_InitStruct.Speed = GPIO_SPEED_FREQ_LOW;
    GPIO_InitStruct.Alternate = GPIO_AF3_TSC;
 800247c:	2503      	movs	r5, #3
    __HAL_RCC_GPIOC_CLK_ENABLE();
 800247e:	4301      	orrs	r1, r0
 8002480:	62d9      	str	r1, [r3, #44]	; 0x2c
 8002482:	6ada      	ldr	r2, [r3, #44]	; 0x2c
    GPIO_InitStruct.Mode = GPIO_MODE_AF_OD;
 8002484:	2712      	movs	r7, #18
    __HAL_RCC_GPIOC_CLK_ENABLE();
 8002486:	4002      	ands	r2, r0
 8002488:	9202      	str	r2, [sp, #8]
 800248a:	9a02      	ldr	r2, [sp, #8]
    __HAL_RCC_GPIOA_CLK_ENABLE();
 800248c:	6ad9      	ldr	r1, [r3, #44]	; 0x2c
 800248e:	3803      	subs	r0, #3
 8002490:	4301      	orrs	r1, r0
 8002492:	62d9      	str	r1, [r3, #44]	; 0x2c
 8002494:	6ada      	ldr	r2, [r3, #44]	; 0x2c
    HAL_GPIO_Init(GPIOC, &GPIO_InitStruct);
 8002496:	a905      	add	r1, sp, #20
    __HAL_RCC_GPIOA_CLK_ENABLE();
 8002498:	4002      	ands	r2, r0
 800249a:	9203      	str	r2, [sp, #12]
 800249c:	9a03      	ldr	r2, [sp, #12]
    __HAL_RCC_GPIOB_CLK_ENABLE();
 800249e:	6ada      	ldr	r2, [r3, #44]	; 0x2c
    HAL_GPIO_Init(GPIOC, &GPIO_InitStruct);
 80024a0:	4824      	ldr	r0, [pc, #144]	; (8002534 <HAL_TSC_MspInit+0xec>)
    __HAL_RCC_GPIOB_CLK_ENABLE();
 80024a2:	4332      	orrs	r2, r6
 80024a4:	62da      	str	r2, [r3, #44]	; 0x2c
 80024a6:	6adb      	ldr	r3, [r3, #44]	; 0x2c
    GPIO_InitStruct.Mode = GPIO_MODE_AF_OD;
 80024a8:	9706      	str	r7, [sp, #24]
    __HAL_RCC_GPIOB_CLK_ENABLE();
 80024aa:	4033      	ands	r3, r6
 80024ac:	9304      	str	r3, [sp, #16]
 80024ae:	9b04      	ldr	r3, [sp, #16]
    GPIO_InitStruct.Pin = TOUCH_G7_1_SAMP_Pin|GPIO_PIN_5|GPIO_PIN_6;
 80024b0:	2361      	movs	r3, #97	; 0x61
    GPIO_InitStruct.Pull = GPIO_NOPULL;
 80024b2:	9407      	str	r4, [sp, #28]
    GPIO_InitStruct.Pin = TOUCH_G7_1_SAMP_Pin|GPIO_PIN_5|GPIO_PIN_6;
 80024b4:	9305      	str	r3, [sp, #20]
    GPIO_InitStruct.Speed = GPIO_SPEED_FREQ_LOW;
 80024b6:	9408      	str	r4, [sp, #32]
    GPIO_InitStruct.Alternate = GPIO_AF3_TSC;
 80024b8:	9509      	str	r5, [sp, #36]	; 0x24
    HAL_GPIO_Init(GPIOC, &GPIO_InitStruct);
 80024ba:	f000 fa69 	bl	8002990 <HAL_GPIO_Init>

    GPIO_InitStruct.Pin = TOUCH_G7_2_STAR_0_Pin|GPIO_PIN_2|GPIO_PIN_3|GPIO_PIN_7
 80024be:	4b1e      	ldr	r3, [pc, #120]	; (8002538 <HAL_TSC_MspInit+0xf0>)
                          |GPIO_PIN_8|GPIO_PIN_9;
    GPIO_InitStruct.Mode = GPIO_MODE_AF_PP;
    GPIO_InitStruct.Pull = GPIO_NOPULL;
    GPIO_InitStruct.Speed = GPIO_SPEED_FREQ_LOW;
    GPIO_InitStruct.Alternate = GPIO_AF3_TSC;
    HAL_GPIO_Init(GPIOC, &GPIO_InitStruct);
 80024c0:	481c      	ldr	r0, [pc, #112]	; (8002534 <HAL_TSC_MspInit+0xec>)
 80024c2:	a905      	add	r1, sp, #20
    GPIO_InitStruct.Pin = TOUCH_G7_2_STAR_0_Pin|GPIO_PIN_2|GPIO_PIN_3|GPIO_PIN_7
 80024c4:	9305      	str	r3, [sp, #20]
    GPIO_InitStruct.Mode = GPIO_MODE_AF_PP;
 80024c6:	9606      	str	r6, [sp, #24]
    GPIO_InitStruct.Pull = GPIO_NOPULL;
 80024c8:	9407      	str	r4, [sp, #28]
    GPIO_InitStruct.Speed = GPIO_SPEED_FREQ_LOW;
 80024ca:	9408      	str	r4, [sp, #32]
    GPIO_InitStruct.Alternate = GPIO_AF3_TSC;
 80024cc:	9509      	str	r5, [sp, #36]	; 0x24
    HAL_GPIO_Init(GPIOC, &GPIO_InitStruct);
 80024ce:	f000 fa5f 	bl	8002990 <HAL_GPIO_Init>
    GPIO_InitStruct.Pin = GPIO_PIN_0|GPIO_PIN_4|GPIO_PIN_9;
    GPIO_InitStruct.Mode = GPIO_MODE_AF_OD;
    GPIO_InitStruct.Pull = GPIO_NOPULL;
    GPIO_InitStruct.Speed = GPIO_SPEED_FREQ_LOW;
    GPIO_InitStruct.Alternate = GPIO_AF3_TSC;
    HAL_GPIO_Init(GPIOA, &GPIO_InitStruct);
 80024d2:	20a0      	movs	r0, #160	; 0xa0
    GPIO_InitStruct.Pin = GPIO_PIN_0|GPIO_PIN_4|GPIO_PIN_9;
 80024d4:	4b19      	ldr	r3, [pc, #100]	; (800253c <HAL_TSC_MspInit+0xf4>)
    HAL_GPIO_Init(GPIOA, &GPIO_InitStruct);
 80024d6:	a905      	add	r1, sp, #20
 80024d8:	05c0      	lsls	r0, r0, #23
    GPIO_InitStruct.Pin = GPIO_PIN_0|GPIO_PIN_4|GPIO_PIN_9;
 80024da:	9305      	str	r3, [sp, #20]
    GPIO_InitStruct.Mode = GPIO_MODE_AF_OD;
 80024dc:	9706      	str	r7, [sp, #24]
    GPIO_InitStruct.Pull = GPIO_NOPULL;
 80024de:	9407      	str	r4, [sp, #28]
    GPIO_InitStruct.Speed = GPIO_SPEED_FREQ_LOW;
 80024e0:	9408      	str	r4, [sp, #32]
    GPIO_InitStruct.Alternate = GPIO_AF3_TSC;
 80024e2:	9509      	str	r5, [sp, #36]	; 0x24
    HAL_GPIO_Init(GPIOA, &GPIO_InitStruct);
 80024e4:	f000 fa54 	bl	8002990 <HAL_GPIO_Init>
                          |GPIO_PIN_12;
    GPIO_InitStruct.Mode = GPIO_MODE_AF_PP;
    GPIO_InitStruct.Pull = GPIO_NOPULL;
    GPIO_InitStruct.Speed = GPIO_SPEED_FREQ_LOW;
    GPIO_InitStruct.Alternate = GPIO_AF3_TSC;
    HAL_GPIO_Init(GPIOA, &GPIO_InitStruct);
 80024e8:	20a0      	movs	r0, #160	; 0xa0
    GPIO_InitStruct.Pin = GPIO_PIN_1|GPIO_PIN_2|GPIO_PIN_3|GPIO_PIN_5
 80024ea:	4b15      	ldr	r3, [pc, #84]	; (8002540 <HAL_TSC_MspInit+0xf8>)
    HAL_GPIO_Init(GPIOA, &GPIO_InitStruct);
 80024ec:	a905      	add	r1, sp, #20
 80024ee:	05c0      	lsls	r0, r0, #23
    GPIO_InitStruct.Pin = GPIO_PIN_1|GPIO_PIN_2|GPIO_PIN_3|GPIO_PIN_5
 80024f0:	9305      	str	r3, [sp, #20]
    GPIO_InitStruct.Mode = GPIO_MODE_AF_PP;
 80024f2:	9606      	str	r6, [sp, #24]
    GPIO_InitStruct.Pull = GPIO_NOPULL;
 80024f4:	9407      	str	r4, [sp, #28]
    GPIO_InitStruct.Speed = GPIO_SPEED_FREQ_LOW;
 80024f6:	9408      	str	r4, [sp, #32]
    GPIO_InitStruct.Alternate = GPIO_AF3_TSC;
 80024f8:	9509      	str	r5, [sp, #36]	; 0x24
    HAL_GPIO_Init(GPIOA, &GPIO_InitStruct);
 80024fa:	f000 fa49 	bl	8002990 <HAL_GPIO_Init>

    GPIO_InitStruct.Pin = GPIO_PIN_0|GPIO_PIN_1|GPIO_PIN_2|GPIO_PIN_12
 80024fe:	4b11      	ldr	r3, [pc, #68]	; (8002544 <HAL_TSC_MspInit+0xfc>)
                          |GPIO_PIN_7;
    GPIO_InitStruct.Mode = GPIO_MODE_AF_PP;
    GPIO_InitStruct.Pull = GPIO_NOPULL;
    GPIO_InitStruct.Speed = GPIO_SPEED_FREQ_LOW;
    GPIO_InitStruct.Alternate = GPIO_AF3_TSC;
    HAL_GPIO_Init(GPIOB, &GPIO_InitStruct);
 8002500:	4811      	ldr	r0, [pc, #68]	; (8002548 <HAL_TSC_MspInit+0x100>)
 8002502:	a905      	add	r1, sp, #20
    GPIO_InitStruct.Pin = GPIO_PIN_0|GPIO_PIN_1|GPIO_PIN_2|GPIO_PIN_12
 8002504:	9305      	str	r3, [sp, #20]
    GPIO_InitStruct.Mode = GPIO_MODE_AF_PP;
 8002506:	9606      	str	r6, [sp, #24]
    GPIO_InitStruct.Pull = GPIO_NOPULL;
 8002508:	9407      	str	r4, [sp, #28]
    GPIO_InitStruct.Speed = GPIO_SPEED_FREQ_LOW;
 800250a:	9408      	str	r4, [sp, #32]
    GPIO_InitStruct.Alternate = GPIO_AF3_TSC;
 800250c:	9509      	str	r5, [sp, #36]	; 0x24
    HAL_GPIO_Init(GPIOB, &GPIO_InitStruct);
 800250e:	f000 fa3f 	bl	8002990 <HAL_GPIO_Init>

    GPIO_InitStruct.Pin = GPIO_PIN_11|GPIO_PIN_3;
 8002512:	4b0e      	ldr	r3, [pc, #56]	; (800254c <HAL_TSC_MspInit+0x104>)
    GPIO_InitStruct.Mode = GPIO_MODE_AF_OD;
    GPIO_InitStruct.Pull = GPIO_NOPULL;
    GPIO_InitStruct.Speed = GPIO_SPEED_FREQ_LOW;
    GPIO_InitStruct.Alternate = GPIO_AF3_TSC;
    HAL_GPIO_Init(GPIOB, &GPIO_InitStruct);
 8002514:	480c      	ldr	r0, [pc, #48]	; (8002548 <HAL_TSC_MspInit+0x100>)
 8002516:	a905      	add	r1, sp, #20
    GPIO_InitStruct.Pin = GPIO_PIN_11|GPIO_PIN_3;
 8002518:	9305      	str	r3, [sp, #20]
    GPIO_InitStruct.Mode = GPIO_MODE_AF_OD;
 800251a:	9706      	str	r7, [sp, #24]
    GPIO_InitStruct.Pull = GPIO_NOPULL;
 800251c:	9407      	str	r4, [sp, #28]
    GPIO_InitStruct.Speed = GPIO_SPEED_FREQ_LOW;
 800251e:	9408      	str	r4, [sp, #32]
    GPIO_InitStruct.Alternate = GPIO_AF3_TSC;
 8002520:	9509      	str	r5, [sp, #36]	; 0x24
    HAL_GPIO_Init(GPIOB, &GPIO_InitStruct);
 8002522:	f000 fa35 	bl	8002990 <HAL_GPIO_Init>
  /* USER CODE BEGIN TSC_MspInit 1 */

  /* USER CODE END TSC_MspInit 1 */
  }

}
 8002526:	b00b      	add	sp, #44	; 0x2c
 8002528:	bdf0      	pop	{r4, r5, r6, r7, pc}
 800252a:	46c0      	nop			; (mov r8, r8)
 800252c:	40024000 	.word	0x40024000
 8002530:	40021000 	.word	0x40021000
 8002534:	50000800 	.word	0x50000800
 8002538:	0000038e 	.word	0x0000038e
 800253c:	00000211 	.word	0x00000211
 8002540:	00001cee 	.word	0x00001cee
 8002544:	000070d7 	.word	0x000070d7
 8002548:	50000400 	.word	0x50000400
 800254c:	00000808 	.word	0x00000808

08002550 <NMI_Handler>:

  /* USER CODE END NonMaskableInt_IRQn 0 */
  /* USER CODE BEGIN NonMaskableInt_IRQn 1 */

  /* USER CODE END NonMaskableInt_IRQn 1 */
}
 8002550:	4770      	bx	lr

08002552 <HardFault_Handler>:
void HardFault_Handler(void)
{
  /* USER CODE BEGIN HardFault_IRQn 0 */

  /* USER CODE END HardFault_IRQn 0 */
  while (1)
 8002552:	e7fe      	b.n	8002552 <HardFault_Handler>

08002554 <SVC_Handler>:
 8002554:	4770      	bx	lr

08002556 <PendSV_Handler>:
 8002556:	4770      	bx	lr

08002558 <SysTick_Handler>:

/**
  * @brief This function handles System tick timer.
  */
void SysTick_Handler(void)
{
 8002558:	b510      	push	{r4, lr}
  /* USER CODE BEGIN SysTick_IRQn 0 */

  /* USER CODE END SysTick_IRQn 0 */
  HAL_IncTick();
 800255a:	f000 f8dd 	bl	8002718 <HAL_IncTick>
  /* TSL timing for ECS, DTO */
  TSL_tim_ProcessIT();
 800255e:	f001 ffbd 	bl	80044dc <TSL_tim_ProcessIT>
  /* USER CODE BEGIN SysTick_IRQn 1 */

  /* USER CODE END SysTick_IRQn 1 */
}
 8002562:	bd10      	pop	{r4, pc}

08002564 <DMA1_Channel1_IRQHandler>:

/**
  * @brief This function handles DMA1 channel 1 interrupt.
  */
void DMA1_Channel1_IRQHandler(void)
{
 8002564:	b510      	push	{r4, lr}
  /* USER CODE BEGIN DMA1_Channel1_IRQn 0 */

  /* USER CODE END DMA1_Channel1_IRQn 0 */
  HAL_DMA_IRQHandler(&hdma_tim2_ch3);
 8002566:	4802      	ldr	r0, [pc, #8]	; (8002570 <DMA1_Channel1_IRQHandler+0xc>)
 8002568:	f000 f9c6 	bl	80028f8 <HAL_DMA_IRQHandler>
  /* USER CODE BEGIN DMA1_Channel1_IRQn 1 */

  /* USER CODE END DMA1_Channel1_IRQn 1 */
}
 800256c:	bd10      	pop	{r4, pc}
 800256e:	46c0      	nop			; (mov r8, r8)
 8002570:	20000294 	.word	0x20000294

08002574 <DMA1_Channel2_3_IRQHandler>:

/**
  * @brief This function handles DMA1 channel 2 and channel 3 interrupts.
  */
void DMA1_Channel2_3_IRQHandler(void)
{
 8002574:	b510      	push	{r4, lr}
  /* USER CODE BEGIN DMA1_Channel2_3_IRQn 0 */

  /* USER CODE END DMA1_Channel2_3_IRQn 0 */
  HAL_DMA_IRQHandler(&hdma_spi1_rx);
 8002576:	4803      	ldr	r0, [pc, #12]	; (8002584 <DMA1_Channel2_3_IRQHandler+0x10>)
 8002578:	f000 f9be 	bl	80028f8 <HAL_DMA_IRQHandler>
  HAL_DMA_IRQHandler(&hdma_spi1_tx);
 800257c:	4802      	ldr	r0, [pc, #8]	; (8002588 <DMA1_Channel2_3_IRQHandler+0x14>)
 800257e:	f000 f9bb 	bl	80028f8 <HAL_DMA_IRQHandler>
  /* USER CODE BEGIN DMA1_Channel2_3_IRQn 1 */

  /* USER CODE END DMA1_Channel2_3_IRQn 1 */
}
 8002582:	bd10      	pop	{r4, pc}
 8002584:	20000180 	.word	0x20000180
 8002588:	200001c8 	.word	0x200001c8

0800258c <DMA1_Channel4_5_6_7_IRQHandler>:

/**
  * @brief This function handles DMA1 channel 4, channel 5, channel 6 and channel 7 interrupts.
  */
void DMA1_Channel4_5_6_7_IRQHandler(void)
{
 800258c:	b510      	push	{r4, lr}
  /* USER CODE BEGIN DMA1_Channel4_5_6_7_IRQn 0 */

  /* USER CODE END DMA1_Channel4_5_6_7_IRQn 0 */
  HAL_DMA_IRQHandler(&hdma_tim2_ch4);
 800258e:	4805      	ldr	r0, [pc, #20]	; (80025a4 <DMA1_Channel4_5_6_7_IRQHandler+0x18>)
 8002590:	f000 f9b2 	bl	80028f8 <HAL_DMA_IRQHandler>
  HAL_DMA_IRQHandler(&hdma_tim2_ch1);
 8002594:	4804      	ldr	r0, [pc, #16]	; (80025a8 <DMA1_Channel4_5_6_7_IRQHandler+0x1c>)
 8002596:	f000 f9af 	bl	80028f8 <HAL_DMA_IRQHandler>
  HAL_DMA_IRQHandler(&hdma_spi2_tx);
 800259a:	4804      	ldr	r0, [pc, #16]	; (80025ac <DMA1_Channel4_5_6_7_IRQHandler+0x20>)
 800259c:	f000 f9ac 	bl	80028f8 <HAL_DMA_IRQHandler>
  /* USER CODE BEGIN DMA1_Channel4_5_6_7_IRQn 1 */

  /* USER CODE END DMA1_Channel4_5_6_7_IRQn 1 */
}
 80025a0:	bd10      	pop	{r4, pc}
 80025a2:	46c0      	nop			; (mov r8, r8)
 80025a4:	200002dc 	.word	0x200002dc
 80025a8:	2000024c 	.word	0x2000024c
 80025ac:	200000e0 	.word	0x200000e0

080025b0 <_getpid>:
}

int _getpid(void)
{
	return 1;
}
 80025b0:	2001      	movs	r0, #1
 80025b2:	4770      	bx	lr

080025b4 <_kill>:

int _kill(int pid, int sig)
{
 80025b4:	b510      	push	{r4, lr}
	errno = EINVAL;
 80025b6:	f002 ff35 	bl	8005424 <__errno>
 80025ba:	2316      	movs	r3, #22
 80025bc:	6003      	str	r3, [r0, #0]
	return -1;
 80025be:	2001      	movs	r0, #1
}
 80025c0:	4240      	negs	r0, r0
 80025c2:	bd10      	pop	{r4, pc}

080025c4 <_exit>:

void _exit (int status)
{
 80025c4:	b510      	push	{r4, lr}
	errno = EINVAL;
 80025c6:	f002 ff2d 	bl	8005424 <__errno>
 80025ca:	2316      	movs	r3, #22
 80025cc:	6003      	str	r3, [r0, #0]
	_kill(status, -1);
	while (1) {}		/* Make sure we hang here */
 80025ce:	e7fe      	b.n	80025ce <_exit+0xa>

080025d0 <_sbrk>:
void *_sbrk(ptrdiff_t incr)
{
  extern uint8_t _end; /* Symbol defined in the linker script */
  extern uint8_t _estack; /* Symbol defined in the linker script */
  extern uint32_t _Min_Stack_Size; /* Symbol defined in the linker script */
  const uint32_t stack_limit = (uint32_t)&_estack - (uint32_t)&_Min_Stack_Size;
 80025d0:	4a0b      	ldr	r2, [pc, #44]	; (8002600 <_sbrk+0x30>)
 80025d2:	490c      	ldr	r1, [pc, #48]	; (8002604 <_sbrk+0x34>)
{
 80025d4:	0003      	movs	r3, r0
  const uint32_t stack_limit = (uint32_t)&_estack - (uint32_t)&_Min_Stack_Size;
 80025d6:	1a89      	subs	r1, r1, r2
  const uint8_t *max_heap = (uint8_t *)stack_limit;
  uint8_t *prev_heap_end;

  /* Initalize heap end at first call */
  if (NULL == __sbrk_heap_end)
 80025d8:	4a0b      	ldr	r2, [pc, #44]	; (8002608 <_sbrk+0x38>)
{
 80025da:	b510      	push	{r4, lr}
  if (NULL == __sbrk_heap_end)
 80025dc:	6810      	ldr	r0, [r2, #0]
 80025de:	2800      	cmp	r0, #0
 80025e0:	d101      	bne.n	80025e6 <_sbrk+0x16>
  {
    __sbrk_heap_end = &_end;
 80025e2:	480a      	ldr	r0, [pc, #40]	; (800260c <_sbrk+0x3c>)
 80025e4:	6010      	str	r0, [r2, #0]
  }

  /* Protect heap from growing into the reserved MSP stack */
  if (__sbrk_heap_end + incr > max_heap)
 80025e6:	6810      	ldr	r0, [r2, #0]
 80025e8:	18c3      	adds	r3, r0, r3
 80025ea:	428b      	cmp	r3, r1
 80025ec:	d906      	bls.n	80025fc <_sbrk+0x2c>
  {
    errno = ENOMEM;
 80025ee:	f002 ff19 	bl	8005424 <__errno>
 80025f2:	230c      	movs	r3, #12
 80025f4:	6003      	str	r3, [r0, #0]
    return (void *)-1;
 80025f6:	2001      	movs	r0, #1
 80025f8:	4240      	negs	r0, r0

  prev_heap_end = __sbrk_heap_end;
  __sbrk_heap_end += incr;

  return (void *)prev_heap_end;
}
 80025fa:	bd10      	pop	{r4, pc}
  __sbrk_heap_end += incr;
 80025fc:	6013      	str	r3, [r2, #0]
  return (void *)prev_heap_end;
 80025fe:	e7fc      	b.n	80025fa <_sbrk+0x2a>
 8002600:	00000400 	.word	0x00000400
 8002604:	20005000 	.word	0x20005000
 8002608:	20000a5c 	.word	0x20000a5c
 800260c:	20000cf0 	.word	0x20000cf0

08002610 <SystemInit>:
  * @retval None
  */
void SystemInit (void)
{
/*!< Set MSION bit */
  RCC->CR |= (uint32_t)0x00000100U;
 8002610:	2280      	movs	r2, #128	; 0x80
 8002612:	4b10      	ldr	r3, [pc, #64]	; (8002654 <SystemInit+0x44>)
 8002614:	0052      	lsls	r2, r2, #1
 8002616:	6819      	ldr	r1, [r3, #0]
 8002618:	430a      	orrs	r2, r1
 800261a:	601a      	str	r2, [r3, #0]

  /*!< Reset SW[1:0], HPRE[3:0], PPRE1[2:0], PPRE2[2:0], MCOSEL[2:0] and MCOPRE[2:0] bits */
  RCC->CFGR &= (uint32_t) 0x88FF400CU;
 800261c:	68da      	ldr	r2, [r3, #12]
 800261e:	490e      	ldr	r1, [pc, #56]	; (8002658 <SystemInit+0x48>)
 8002620:	400a      	ands	r2, r1
 8002622:	60da      	str	r2, [r3, #12]

  /*!< Reset HSION, HSIDIVEN, HSEON, CSSON and PLLON bits */
  RCC->CR &= (uint32_t)0xFEF6FFF6U;
 8002624:	681a      	ldr	r2, [r3, #0]
 8002626:	490d      	ldr	r1, [pc, #52]	; (800265c <SystemInit+0x4c>)
 8002628:	400a      	ands	r2, r1

  /*!< Reset HSI48ON  bit */
  RCC->CRRCR &= (uint32_t)0xFFFFFFFEU;
 800262a:	2101      	movs	r1, #1
  RCC->CR &= (uint32_t)0xFEF6FFF6U;
 800262c:	601a      	str	r2, [r3, #0]
  RCC->CRRCR &= (uint32_t)0xFFFFFFFEU;
 800262e:	689a      	ldr	r2, [r3, #8]
 8002630:	438a      	bics	r2, r1
 8002632:	609a      	str	r2, [r3, #8]

  /*!< Reset HSEBYP bit */
  RCC->CR &= (uint32_t)0xFFFBFFFFU;
 8002634:	681a      	ldr	r2, [r3, #0]
 8002636:	490a      	ldr	r1, [pc, #40]	; (8002660 <SystemInit+0x50>)
 8002638:	400a      	ands	r2, r1
 800263a:	601a      	str	r2, [r3, #0]

  /*!< Reset PLLSRC, PLLMUL[3:0] and PLLDIV[1:0] bits */
  RCC->CFGR &= (uint32_t)0xFF02FFFFU;
 800263c:	68da      	ldr	r2, [r3, #12]
 800263e:	4909      	ldr	r1, [pc, #36]	; (8002664 <SystemInit+0x54>)
 8002640:	400a      	ands	r2, r1
 8002642:	60da      	str	r2, [r3, #12]

  /*!< Disable all interrupts */
  RCC->CIER = 0x00000000U;
 8002644:	2200      	movs	r2, #0
 8002646:	611a      	str	r2, [r3, #16]

  /* Configure the Vector Table location add offset address ------------------*/
#ifdef VECT_TAB_SRAM
  SCB->VTOR = SRAM_BASE | VECT_TAB_OFFSET; /* Vector Table Relocation in Internal SRAM */
#else
  SCB->VTOR = FLASH_BASE | VECT_TAB_OFFSET; /* Vector Table Relocation in Internal FLASH */
 8002648:	2280      	movs	r2, #128	; 0x80
 800264a:	4b07      	ldr	r3, [pc, #28]	; (8002668 <SystemInit+0x58>)
 800264c:	0512      	lsls	r2, r2, #20
 800264e:	609a      	str	r2, [r3, #8]
#endif
}
 8002650:	4770      	bx	lr
 8002652:	46c0      	nop			; (mov r8, r8)
 8002654:	40021000 	.word	0x40021000
 8002658:	88ff400c 	.word	0x88ff400c
 800265c:	fef6fff6 	.word	0xfef6fff6
 8002660:	fffbffff 	.word	0xfffbffff
 8002664:	ff02ffff 	.word	0xff02ffff
 8002668:	e000ed00 	.word	0xe000ed00

0800266c <Reset_Handler>:

    .section  .text.Reset_Handler
  .weak  Reset_Handler
  .type  Reset_Handler, %function
Reset_Handler:  
   ldr   r0, =_estack
 800266c:	480d      	ldr	r0, [pc, #52]	; (80026a4 <LoopForever+0x2>)
   mov   sp, r0          /* set stack pointer */
 800266e:	4685      	mov	sp, r0

/* Copy the data segment initializers from flash to SRAM */
  movs  r1, #0
 8002670:	2100      	movs	r1, #0
  b  LoopCopyDataInit
 8002672:	e003      	b.n	800267c <LoopCopyDataInit>

08002674 <CopyDataInit>:

CopyDataInit:
  ldr  r3, =_sidata
 8002674:	4b0c      	ldr	r3, [pc, #48]	; (80026a8 <LoopForever+0x6>)
  ldr  r3, [r3, r1]
 8002676:	585b      	ldr	r3, [r3, r1]
  str  r3, [r0, r1]
 8002678:	5043      	str	r3, [r0, r1]
  adds  r1, r1, #4
 800267a:	3104      	adds	r1, #4

0800267c <LoopCopyDataInit>:

LoopCopyDataInit:
  ldr  r0, =_sdata
 800267c:	480b      	ldr	r0, [pc, #44]	; (80026ac <LoopForever+0xa>)
  ldr  r3, =_edata
 800267e:	4b0c      	ldr	r3, [pc, #48]	; (80026b0 <LoopForever+0xe>)
  adds  r2, r0, r1
 8002680:	1842      	adds	r2, r0, r1
  cmp  r2, r3
 8002682:	429a      	cmp	r2, r3
  bcc  CopyDataInit
 8002684:	d3f6      	bcc.n	8002674 <CopyDataInit>
  ldr  r2, =_sbss
 8002686:	4a0b      	ldr	r2, [pc, #44]	; (80026b4 <LoopForever+0x12>)
  b  LoopFillZerobss
 8002688:	e002      	b.n	8002690 <LoopFillZerobss>

0800268a <FillZerobss>:
/* Zero fill the bss segment. */
FillZerobss:
  movs  r3, #0
 800268a:	2300      	movs	r3, #0
  str  r3, [r2]
 800268c:	6013      	str	r3, [r2, #0]
  adds r2, r2, #4
 800268e:	3204      	adds	r2, #4

08002690 <LoopFillZerobss>:


LoopFillZerobss:
  ldr  r3, = _ebss
 8002690:	4b09      	ldr	r3, [pc, #36]	; (80026b8 <LoopForever+0x16>)
  cmp  r2, r3
 8002692:	429a      	cmp	r2, r3
  bcc  FillZerobss
 8002694:	d3f9      	bcc.n	800268a <FillZerobss>

/* Call the clock system intitialization function.*/
  bl  SystemInit
 8002696:	f7ff ffbb 	bl	8002610 <SystemInit>
/* Call static constructors */
    bl __libc_init_array
 800269a:	f002 fec9 	bl	8005430 <__libc_init_array>
/* Call the application's entry point.*/
  bl  main
 800269e:	f7ff f837 	bl	8001710 <main>

080026a2 <LoopForever>:

LoopForever:
    b LoopForever
 80026a2:	e7fe      	b.n	80026a2 <LoopForever>
   ldr   r0, =_estack
 80026a4:	20005000 	.word	0x20005000
  ldr  r3, =_sidata
 80026a8:	08005be0 	.word	0x08005be0
  ldr  r0, =_sdata
 80026ac:	20000000 	.word	0x20000000
  ldr  r3, =_edata
 80026b0:	20000088 	.word	0x20000088
  ldr  r2, =_sbss
 80026b4:	20000088 	.word	0x20000088
  ldr  r3, = _ebss
 80026b8:	20000cec 	.word	0x20000cec

080026bc <ADC1_COMP_IRQHandler>:
 * @retval : None
*/
    .section  .text.Default_Handler,"ax",%progbits
Default_Handler:
Infinite_Loop:
  b  Infinite_Loop
 80026bc:	e7fe      	b.n	80026bc <ADC1_COMP_IRQHandler>
	...

080026c0 <HAL_InitTick>:
__weak HAL_StatusTypeDef HAL_InitTick(uint32_t TickPriority)
{
  HAL_StatusTypeDef  status = HAL_OK;

  /*Configure the SysTick to have interrupt in 1ms time basis*/
  if (HAL_SYSTICK_Config(SystemCoreClock/1000UL) != 0U)
 80026c0:	21fa      	movs	r1, #250	; 0xfa
 80026c2:	4b0a      	ldr	r3, [pc, #40]	; (80026ec <HAL_InitTick+0x2c>)
{
 80026c4:	b570      	push	{r4, r5, r6, lr}
  if (HAL_SYSTICK_Config(SystemCoreClock/1000UL) != 0U)
 80026c6:	0089      	lsls	r1, r1, #2
{
 80026c8:	0005      	movs	r5, r0
  if (HAL_SYSTICK_Config(SystemCoreClock/1000UL) != 0U)
 80026ca:	6818      	ldr	r0, [r3, #0]
 80026cc:	f7fd fd26 	bl	800011c <__udivsi3>
 80026d0:	f000 f874 	bl	80027bc <HAL_SYSTICK_Config>
 80026d4:	0004      	movs	r4, r0
  {
    status = HAL_ERROR;
 80026d6:	2001      	movs	r0, #1
  if (HAL_SYSTICK_Config(SystemCoreClock/1000UL) != 0U)
 80026d8:	2c00      	cmp	r4, #0
 80026da:	d105      	bne.n	80026e8 <HAL_InitTick+0x28>
  }
  else
  {
    /*Configure the SysTick IRQ priority */
    HAL_NVIC_SetPriority(SysTick_IRQn, TickPriority, 0);
 80026dc:	3802      	subs	r0, #2
 80026de:	0022      	movs	r2, r4
 80026e0:	0029      	movs	r1, r5
 80026e2:	f000 f837 	bl	8002754 <HAL_NVIC_SetPriority>
 80026e6:	0020      	movs	r0, r4
  }

  /* Return function status */
  return status;
}
 80026e8:	bd70      	pop	{r4, r5, r6, pc}
 80026ea:	46c0      	nop			; (mov r8, r8)
 80026ec:	20000000 	.word	0x20000000

080026f0 <HAL_Init>:
  __HAL_FLASH_PREREAD_BUFFER_ENABLE();
 80026f0:	2340      	movs	r3, #64	; 0x40
 80026f2:	4a08      	ldr	r2, [pc, #32]	; (8002714 <HAL_Init+0x24>)
{
 80026f4:	b510      	push	{r4, lr}
  __HAL_FLASH_PREREAD_BUFFER_ENABLE();
 80026f6:	6811      	ldr	r1, [r2, #0]
  if (HAL_InitTick(TICK_INT_PRIORITY) != HAL_OK)
 80026f8:	2000      	movs	r0, #0
  __HAL_FLASH_PREREAD_BUFFER_ENABLE();
 80026fa:	430b      	orrs	r3, r1
 80026fc:	6013      	str	r3, [r2, #0]
  if (HAL_InitTick(TICK_INT_PRIORITY) != HAL_OK)
 80026fe:	f7ff ffdf 	bl	80026c0 <HAL_InitTick>
 8002702:	1e04      	subs	r4, r0, #0
 8002704:	d103      	bne.n	800270e <HAL_Init+0x1e>
    HAL_MspInit();
 8002706:	f7ff fd37 	bl	8002178 <HAL_MspInit>
}
 800270a:	0020      	movs	r0, r4
 800270c:	bd10      	pop	{r4, pc}
    status = HAL_ERROR;
 800270e:	2401      	movs	r4, #1
 8002710:	e7fb      	b.n	800270a <HAL_Init+0x1a>
 8002712:	46c0      	nop			; (mov r8, r8)
 8002714:	40022000 	.word	0x40022000

08002718 <HAL_IncTick>:
  *      implementations in user file.
  * @retval None
  */
__weak void HAL_IncTick(void)
{
  uwTick++;
 8002718:	4a02      	ldr	r2, [pc, #8]	; (8002724 <HAL_IncTick+0xc>)
 800271a:	6813      	ldr	r3, [r2, #0]
 800271c:	3301      	adds	r3, #1
 800271e:	6013      	str	r3, [r2, #0]
}
 8002720:	4770      	bx	lr
 8002722:	46c0      	nop			; (mov r8, r8)
 8002724:	20000a84 	.word	0x20000a84

08002728 <HAL_GetTick>:
  *       implementations in user file.
  * @retval tick value
  */
__weak uint32_t HAL_GetTick(void)
{
  return uwTick;
 8002728:	4b01      	ldr	r3, [pc, #4]	; (8002730 <HAL_GetTick+0x8>)
 800272a:	6818      	ldr	r0, [r3, #0]
}
 800272c:	4770      	bx	lr
 800272e:	46c0      	nop			; (mov r8, r8)
 8002730:	20000a84 	.word	0x20000a84

08002734 <HAL_Delay>:
  *       implementations in user file.
  * @param Delay specifies the delay time length, in milliseconds.
  * @retval None
  */
__weak void HAL_Delay(uint32_t Delay)
{
 8002734:	b570      	push	{r4, r5, r6, lr}
 8002736:	0004      	movs	r4, r0
  uint32_t tickstart = HAL_GetTick();
 8002738:	f7ff fff6 	bl	8002728 <HAL_GetTick>
  uint32_t wait = Delay;

  /* Add a period to guaranty minimum wait */
  if (wait < HAL_MAX_DELAY)
  {
    wait++;
 800273c:	1c63      	adds	r3, r4, #1
 800273e:	1e5a      	subs	r2, r3, #1
 8002740:	4193      	sbcs	r3, r2
  uint32_t tickstart = HAL_GetTick();
 8002742:	0005      	movs	r5, r0
    wait++;
 8002744:	18e4      	adds	r4, r4, r3
  }

  while((HAL_GetTick() - tickstart) < wait)
 8002746:	f7ff ffef 	bl	8002728 <HAL_GetTick>
 800274a:	1b40      	subs	r0, r0, r5
 800274c:	42a0      	cmp	r0, r4
 800274e:	d3fa      	bcc.n	8002746 <HAL_Delay+0x12>
  {
  }
}
 8002750:	bd70      	pop	{r4, r5, r6, pc}
	...

08002754 <HAL_NVIC_SetPriority>:
  *         with stm32l0xx devices, this parameter is a dummy value and it is ignored, because 
  *         no subpriority supported in Cortex M0+ based products.   
  * @retval None
  */
void HAL_NVIC_SetPriority(IRQn_Type IRQn, uint32_t PreemptPriority, uint32_t SubPriority)
{ 
 8002754:	b530      	push	{r4, r5, lr}
 8002756:	25ff      	movs	r5, #255	; 0xff
 8002758:	2403      	movs	r4, #3
 800275a:	002a      	movs	r2, r5
 800275c:	4004      	ands	r4, r0
 800275e:	00e4      	lsls	r4, r4, #3
 8002760:	40a2      	lsls	r2, r4
 8002762:	0189      	lsls	r1, r1, #6
 8002764:	4029      	ands	r1, r5
 8002766:	43d2      	mvns	r2, r2
 8002768:	40a1      	lsls	r1, r4
 800276a:	b2c3      	uxtb	r3, r0
  \param [in]      IRQn  Interrupt number.
  \param [in]  priority  Priority to set.
 */
__STATIC_INLINE void NVIC_SetPriority(IRQn_Type IRQn, uint32_t priority)
{
  if ((int32_t)(IRQn) < 0)
 800276c:	2800      	cmp	r0, #0
 800276e:	da0b      	bge.n	8002788 <HAL_NVIC_SetPriority+0x34>
  {
    SCB->SHP[_SHP_IDX(IRQn)] = ((uint32_t)(SCB->SHP[_SHP_IDX(IRQn)] & ~(0xFFUL << _BIT_SHIFT(IRQn))) |
 8002770:	200f      	movs	r0, #15
 8002772:	4003      	ands	r3, r0
 8002774:	3b08      	subs	r3, #8
 8002776:	480a      	ldr	r0, [pc, #40]	; (80027a0 <HAL_NVIC_SetPriority+0x4c>)
 8002778:	089b      	lsrs	r3, r3, #2
 800277a:	009b      	lsls	r3, r3, #2
 800277c:	181b      	adds	r3, r3, r0
 800277e:	69d8      	ldr	r0, [r3, #28]
 8002780:	4002      	ands	r2, r0
 8002782:	4311      	orrs	r1, r2
 8002784:	61d9      	str	r1, [r3, #28]
    /* Check the parameters */
  assert_param(IS_NVIC_PREEMPTION_PRIORITY(PreemptPriority));
  NVIC_SetPriority(IRQn,PreemptPriority);
}
 8002786:	bd30      	pop	{r4, r5, pc}
       (((priority << (8U - __NVIC_PRIO_BITS)) & (uint32_t)0xFFUL) << _BIT_SHIFT(IRQn)));
  }
  else
  {
    NVIC->IP[_IP_IDX(IRQn)]  = ((uint32_t)(NVIC->IP[_IP_IDX(IRQn)]  & ~(0xFFUL << _BIT_SHIFT(IRQn))) |
 8002788:	4b06      	ldr	r3, [pc, #24]	; (80027a4 <HAL_NVIC_SetPriority+0x50>)
 800278a:	0880      	lsrs	r0, r0, #2
 800278c:	0080      	lsls	r0, r0, #2
 800278e:	18c0      	adds	r0, r0, r3
 8002790:	23c0      	movs	r3, #192	; 0xc0
 8002792:	009b      	lsls	r3, r3, #2
 8002794:	58c4      	ldr	r4, [r0, r3]
 8002796:	4022      	ands	r2, r4
 8002798:	4311      	orrs	r1, r2
 800279a:	50c1      	str	r1, [r0, r3]
 800279c:	e7f3      	b.n	8002786 <HAL_NVIC_SetPriority+0x32>
 800279e:	46c0      	nop			; (mov r8, r8)
 80027a0:	e000ed00 	.word	0xe000ed00
 80027a4:	e000e100 	.word	0xe000e100

080027a8 <HAL_NVIC_EnableIRQ>:
  NVIC->ISER[0U] = (uint32_t)(1UL << (((uint32_t)(int32_t)IRQn) & 0x1FUL));
 80027a8:	231f      	movs	r3, #31
 80027aa:	4018      	ands	r0, r3
 80027ac:	3b1e      	subs	r3, #30
 80027ae:	4083      	lsls	r3, r0
 80027b0:	4a01      	ldr	r2, [pc, #4]	; (80027b8 <HAL_NVIC_EnableIRQ+0x10>)
 80027b2:	6013      	str	r3, [r2, #0]
  /* Check the parameters */
  assert_param(IS_NVIC_DEVICE_IRQ(IRQn));
  
  /* Enable interrupt */
  NVIC_EnableIRQ(IRQn);
}
 80027b4:	4770      	bx	lr
 80027b6:	46c0      	nop			; (mov r8, r8)
 80027b8:	e000e100 	.word	0xe000e100

080027bc <HAL_SYSTICK_Config>:
           function <b>SysTick_Config</b> is not included. In this case, the file <b><i>device</i>.h</b>
           must contain a vendor-specific implementation of this function.
 */
__STATIC_INLINE uint32_t SysTick_Config(uint32_t ticks)
{
  if ((ticks - 1UL) > SysTick_LOAD_RELOAD_Msk)
 80027bc:	2280      	movs	r2, #128	; 0x80
 80027be:	1e43      	subs	r3, r0, #1
 80027c0:	0452      	lsls	r2, r2, #17
  {
    return (1UL);                                                   /* Reload value impossible */
 80027c2:	2001      	movs	r0, #1
  if ((ticks - 1UL) > SysTick_LOAD_RELOAD_Msk)
 80027c4:	4293      	cmp	r3, r2
 80027c6:	d20d      	bcs.n	80027e4 <HAL_SYSTICK_Config+0x28>
    SCB->SHP[_SHP_IDX(IRQn)] = ((uint32_t)(SCB->SHP[_SHP_IDX(IRQn)] & ~(0xFFUL << _BIT_SHIFT(IRQn))) |
 80027c8:	21c0      	movs	r1, #192	; 0xc0
  }

  SysTick->LOAD  = (uint32_t)(ticks - 1UL);                         /* set reload register */
 80027ca:	4a07      	ldr	r2, [pc, #28]	; (80027e8 <HAL_SYSTICK_Config+0x2c>)
    SCB->SHP[_SHP_IDX(IRQn)] = ((uint32_t)(SCB->SHP[_SHP_IDX(IRQn)] & ~(0xFFUL << _BIT_SHIFT(IRQn))) |
 80027cc:	4807      	ldr	r0, [pc, #28]	; (80027ec <HAL_SYSTICK_Config+0x30>)
  SysTick->LOAD  = (uint32_t)(ticks - 1UL);                         /* set reload register */
 80027ce:	6053      	str	r3, [r2, #4]
    SCB->SHP[_SHP_IDX(IRQn)] = ((uint32_t)(SCB->SHP[_SHP_IDX(IRQn)] & ~(0xFFUL << _BIT_SHIFT(IRQn))) |
 80027d0:	6a03      	ldr	r3, [r0, #32]
 80027d2:	0609      	lsls	r1, r1, #24
 80027d4:	021b      	lsls	r3, r3, #8
 80027d6:	0a1b      	lsrs	r3, r3, #8
 80027d8:	430b      	orrs	r3, r1
 80027da:	6203      	str	r3, [r0, #32]
  NVIC_SetPriority (SysTick_IRQn, (1UL << __NVIC_PRIO_BITS) - 1UL); /* set Priority for Systick Interrupt */
  SysTick->VAL   = 0UL;                                             /* Load the SysTick Counter Value */
 80027dc:	2000      	movs	r0, #0
  SysTick->CTRL  = SysTick_CTRL_CLKSOURCE_Msk |
 80027de:	2307      	movs	r3, #7
  SysTick->VAL   = 0UL;                                             /* Load the SysTick Counter Value */
 80027e0:	6090      	str	r0, [r2, #8]
  SysTick->CTRL  = SysTick_CTRL_CLKSOURCE_Msk |
 80027e2:	6013      	str	r3, [r2, #0]
  *                  - 1  Function failed.
  */
uint32_t HAL_SYSTICK_Config(uint32_t TicksNumb)
{
   return SysTick_Config(TicksNumb);
}
 80027e4:	4770      	bx	lr
 80027e6:	46c0      	nop			; (mov r8, r8)
 80027e8:	e000e010 	.word	0xe000e010
 80027ec:	e000ed00 	.word	0xe000ed00

080027f0 <HAL_DMA_Init>:
  * @param  hdma Pointer to a DMA_HandleTypeDef structure that contains
  *               the configuration information for the specified DMA Channel.
  * @retval HAL status
  */
HAL_StatusTypeDef HAL_DMA_Init(DMA_HandleTypeDef *hdma)
{
 80027f0:	b5f8      	push	{r3, r4, r5, r6, r7, lr}
 80027f2:	0004      	movs	r4, r0
  uint32_t tmp;

  /* Check the DMA handle allocation */
  if(hdma == NULL)
  {
    return HAL_ERROR;
 80027f4:	2001      	movs	r0, #1
  if(hdma == NULL)
 80027f6:	2c00      	cmp	r4, #0
 80027f8:	d035      	beq.n	8002866 <HAL_DMA_Init+0x76>
  assert_param(IS_DMA_MODE(hdma->Init.Mode));
  assert_param(IS_DMA_PRIORITY(hdma->Init.Priority));

  /* Compute the channel index */
  /* Only one DMA: DMA1 */
  hdma->ChannelIndex = (((uint32_t)hdma->Instance - (uint32_t)DMA1_Channel1) / ((uint32_t)DMA1_Channel2 - (uint32_t)DMA1_Channel1)) << 2;
 80027fa:	6825      	ldr	r5, [r4, #0]
 80027fc:	4b1a      	ldr	r3, [pc, #104]	; (8002868 <HAL_DMA_Init+0x78>)
 80027fe:	2114      	movs	r1, #20
 8002800:	18e8      	adds	r0, r5, r3
 8002802:	f7fd fc8b 	bl	800011c <__udivsi3>
  hdma->DmaBaseAddress = DMA1;
 8002806:	4b19      	ldr	r3, [pc, #100]	; (800286c <HAL_DMA_Init+0x7c>)
  hdma->ChannelIndex = (((uint32_t)hdma->Instance - (uint32_t)DMA1_Channel1) / ((uint32_t)DMA1_Channel2 - (uint32_t)DMA1_Channel1)) << 2;
 8002808:	0080      	lsls	r0, r0, #2
  hdma->DmaBaseAddress = DMA1;
 800280a:	6423      	str	r3, [r4, #64]	; 0x40

  /* Change DMA peripheral state */
  hdma->State = HAL_DMA_STATE_BUSY;
 800280c:	2302      	movs	r3, #2
 800280e:	1da2      	adds	r2, r4, #6
  hdma->ChannelIndex = (((uint32_t)hdma->Instance - (uint32_t)DMA1_Channel1) / ((uint32_t)DMA1_Channel2 - (uint32_t)DMA1_Channel1)) << 2;
 8002810:	6460      	str	r0, [r4, #68]	; 0x44
  hdma->State = HAL_DMA_STATE_BUSY;
 8002812:	77d3      	strb	r3, [r2, #31]

  /* Get the CR register value */
  tmp = hdma->Instance->CCR;
 8002814:	682e      	ldr	r6, [r5, #0]

  /* Clear PL, MSIZE, PSIZE, MINC, PINC, CIRC, DIR and MEM2MEM bits */
  tmp &= ((uint32_t)~(DMA_CCR_PL    | DMA_CCR_MSIZE  | DMA_CCR_PSIZE  |
 8002816:	4b16      	ldr	r3, [pc, #88]	; (8002870 <HAL_DMA_Init+0x80>)
                      DMA_CCR_MINC  | DMA_CCR_PINC   | DMA_CCR_CIRC   |
                      DMA_CCR_DIR   | DMA_CCR_MEM2MEM));

  /* Prepare the DMA Channel configuration */
  tmp |=  hdma->Init.Direction        |
 8002818:	68a1      	ldr	r1, [r4, #8]
  tmp &= ((uint32_t)~(DMA_CCR_PL    | DMA_CCR_MSIZE  | DMA_CCR_PSIZE  |
 800281a:	401e      	ands	r6, r3
  tmp |=  hdma->Init.Direction        |
 800281c:	68e3      	ldr	r3, [r4, #12]
          hdma->Init.PeriphInc           | hdma->Init.MemInc           |
 800281e:	6927      	ldr	r7, [r4, #16]
  tmp |=  hdma->Init.Direction        |
 8002820:	430b      	orrs	r3, r1
          hdma->Init.PeriphInc           | hdma->Init.MemInc           |
 8002822:	433b      	orrs	r3, r7
 8002824:	6967      	ldr	r7, [r4, #20]
 8002826:	433b      	orrs	r3, r7
          hdma->Init.PeriphDataAlignment | hdma->Init.MemDataAlignment |
 8002828:	69a7      	ldr	r7, [r4, #24]
 800282a:	433b      	orrs	r3, r7
 800282c:	69e7      	ldr	r7, [r4, #28]
 800282e:	433b      	orrs	r3, r7
          hdma->Init.Mode                | hdma->Init.Priority;
 8002830:	6a27      	ldr	r7, [r4, #32]
 8002832:	433b      	orrs	r3, r7
  tmp |=  hdma->Init.Direction        |
 8002834:	4333      	orrs	r3, r6

  /* Write to DMA Channel CR register */
  hdma->Instance->CCR = tmp;
 8002836:	602b      	str	r3, [r5, #0]

  /* Set request selection */
  if(hdma->Init.Direction != DMA_MEMORY_TO_MEMORY)
 8002838:	2380      	movs	r3, #128	; 0x80
 800283a:	01db      	lsls	r3, r3, #7
 800283c:	4299      	cmp	r1, r3
 800283e:	d00c      	beq.n	800285a <HAL_DMA_Init+0x6a>
  {
    /* Write to DMA channel selection register */
    /* Reset request selection for DMA1 Channelx */
    DMA1_CSELR->CSELR &= ~(DMA_CSELR_C1S << (hdma->ChannelIndex & 0x1cU));
 8002840:	251c      	movs	r5, #28
 8002842:	4028      	ands	r0, r5
 8002844:	3d0d      	subs	r5, #13
 8002846:	4085      	lsls	r5, r0
 8002848:	490a      	ldr	r1, [pc, #40]	; (8002874 <HAL_DMA_Init+0x84>)
 800284a:	680b      	ldr	r3, [r1, #0]
 800284c:	43ab      	bics	r3, r5
 800284e:	600b      	str	r3, [r1, #0]

    /* Configure request selection for DMA1 Channelx */
    DMA1_CSELR->CSELR |= (uint32_t) (hdma->Init.Request << (hdma->ChannelIndex & 0x1cU));
 8002850:	6863      	ldr	r3, [r4, #4]
 8002852:	680d      	ldr	r5, [r1, #0]
 8002854:	4083      	lsls	r3, r0
 8002856:	432b      	orrs	r3, r5
 8002858:	600b      	str	r3, [r1, #0]
  }

  /* Initialise the error code */
  hdma->ErrorCode = HAL_DMA_ERROR_NONE;
 800285a:	2000      	movs	r0, #0

  /* Initialize the DMA state*/
  hdma->State  = HAL_DMA_STATE_READY;
 800285c:	2301      	movs	r3, #1
  hdma->ErrorCode = HAL_DMA_ERROR_NONE;
 800285e:	63e0      	str	r0, [r4, #60]	; 0x3c

  /* Allocate lock resource and initialize it */
  hdma->Lock = HAL_UNLOCKED;
 8002860:	3405      	adds	r4, #5
  hdma->State  = HAL_DMA_STATE_READY;
 8002862:	77d3      	strb	r3, [r2, #31]
  hdma->Lock = HAL_UNLOCKED;
 8002864:	77e0      	strb	r0, [r4, #31]

  return HAL_OK;
}
 8002866:	bdf8      	pop	{r3, r4, r5, r6, r7, pc}
 8002868:	bffdfff8 	.word	0xbffdfff8
 800286c:	40020000 	.word	0x40020000
 8002870:	ffff800f 	.word	0xffff800f
 8002874:	400200a8 	.word	0x400200a8

08002878 <HAL_DMA_Start_IT>:
  * @param  DstAddress The destination memory Buffer address
  * @param  DataLength The length of data to be transferred from source to destination
  * @retval HAL status
  */
HAL_StatusTypeDef HAL_DMA_Start_IT(DMA_HandleTypeDef *hdma, uint32_t SrcAddress, uint32_t DstAddress, uint32_t DataLength)
{
 8002878:	b5f7      	push	{r0, r1, r2, r4, r5, r6, r7, lr}

  /* Check the parameters */
  assert_param(IS_DMA_BUFFER_SIZE(DataLength));

  /* Process locked */
  __HAL_LOCK(hdma);
 800287a:	1d45      	adds	r5, r0, #5
{
 800287c:	9301      	str	r3, [sp, #4]
  __HAL_LOCK(hdma);
 800287e:	7feb      	ldrb	r3, [r5, #31]
{
 8002880:	0004      	movs	r4, r0
  __HAL_LOCK(hdma);
 8002882:	2002      	movs	r0, #2
 8002884:	2b01      	cmp	r3, #1
 8002886:	d029      	beq.n	80028dc <HAL_DMA_Start_IT+0x64>
 8002888:	2301      	movs	r3, #1

  if(HAL_DMA_STATE_READY == hdma->State)
 800288a:	1da7      	adds	r7, r4, #6
  __HAL_LOCK(hdma);
 800288c:	77eb      	strb	r3, [r5, #31]
  if(HAL_DMA_STATE_READY == hdma->State)
 800288e:	7ffb      	ldrb	r3, [r7, #31]
 8002890:	2600      	movs	r6, #0
 8002892:	469c      	mov	ip, r3
 8002894:	4660      	mov	r0, ip
 8002896:	b2db      	uxtb	r3, r3
 8002898:	2801      	cmp	r0, #1
 800289a:	d12a      	bne.n	80028f2 <HAL_DMA_Start_IT+0x7a>
  {
    /* Change DMA peripheral state */
    hdma->State = HAL_DMA_STATE_BUSY;
 800289c:	3001      	adds	r0, #1
 800289e:	77f8      	strb	r0, [r7, #31]
    hdma->ErrorCode = HAL_DMA_ERROR_NONE;

    /* Disable the peripheral */
    __HAL_DMA_DISABLE(hdma);
 80028a0:	6820      	ldr	r0, [r4, #0]
    hdma->ErrorCode = HAL_DMA_ERROR_NONE;
 80028a2:	63e6      	str	r6, [r4, #60]	; 0x3c
  * @retval HAL status
  */
static void DMA_SetConfig(DMA_HandleTypeDef *hdma, uint32_t SrcAddress, uint32_t DstAddress, uint32_t DataLength)
{
  /* Clear all flags */
  hdma->DmaBaseAddress->IFCR = (DMA_ISR_GIF1 << (hdma->ChannelIndex & 0x1cU));
 80028a4:	6c67      	ldr	r7, [r4, #68]	; 0x44
    __HAL_DMA_DISABLE(hdma);
 80028a6:	6805      	ldr	r5, [r0, #0]
  hdma->DmaBaseAddress->IFCR = (DMA_ISR_GIF1 << (hdma->ChannelIndex & 0x1cU));
 80028a8:	361c      	adds	r6, #28
 80028aa:	403e      	ands	r6, r7
    __HAL_DMA_DISABLE(hdma);
 80028ac:	439d      	bics	r5, r3
  hdma->DmaBaseAddress->IFCR = (DMA_ISR_GIF1 << (hdma->ChannelIndex & 0x1cU));
 80028ae:	40b3      	lsls	r3, r6
    __HAL_DMA_DISABLE(hdma);
 80028b0:	6005      	str	r5, [r0, #0]
  hdma->DmaBaseAddress->IFCR = (DMA_ISR_GIF1 << (hdma->ChannelIndex & 0x1cU));
 80028b2:	6c25      	ldr	r5, [r4, #64]	; 0x40
 80028b4:	606b      	str	r3, [r5, #4]

  /* Configure DMA Channel data length */
  hdma->Instance->CNDTR = DataLength;
 80028b6:	9b01      	ldr	r3, [sp, #4]
 80028b8:	6043      	str	r3, [r0, #4]

  /* Memory to Peripheral */
  if((hdma->Init.Direction) == DMA_MEMORY_TO_PERIPH)
 80028ba:	68a3      	ldr	r3, [r4, #8]
 80028bc:	2b10      	cmp	r3, #16
 80028be:	d10e      	bne.n	80028de <HAL_DMA_Start_IT+0x66>
  {
    /* Configure DMA Channel destination address */
    hdma->Instance->CPAR = DstAddress;
 80028c0:	6082      	str	r2, [r0, #8]

    /* Configure DMA Channel source address */
    hdma->Instance->CMAR = SrcAddress;
 80028c2:	60c1      	str	r1, [r0, #12]
    if(NULL != hdma->XferHalfCpltCallback )
 80028c4:	6b23      	ldr	r3, [r4, #48]	; 0x30
 80028c6:	2b00      	cmp	r3, #0
 80028c8:	d00c      	beq.n	80028e4 <HAL_DMA_Start_IT+0x6c>
      __HAL_DMA_ENABLE_IT(hdma, (DMA_IT_TC | DMA_IT_HT | DMA_IT_TE));
 80028ca:	230e      	movs	r3, #14
 80028cc:	6802      	ldr	r2, [r0, #0]
      __HAL_DMA_ENABLE_IT(hdma, (DMA_IT_TC | DMA_IT_TE));
 80028ce:	4313      	orrs	r3, r2
 80028d0:	6003      	str	r3, [r0, #0]
    __HAL_DMA_ENABLE(hdma);
 80028d2:	2301      	movs	r3, #1
 80028d4:	6802      	ldr	r2, [r0, #0]
 80028d6:	4313      	orrs	r3, r2
 80028d8:	6003      	str	r3, [r0, #0]
  HAL_StatusTypeDef status = HAL_OK;
 80028da:	2000      	movs	r0, #0
}
 80028dc:	bdfe      	pop	{r1, r2, r3, r4, r5, r6, r7, pc}
  }
  /* Peripheral to Memory */
  else
  {
    /* Configure DMA Channel source address */
    hdma->Instance->CPAR = SrcAddress;
 80028de:	6081      	str	r1, [r0, #8]

    /* Configure DMA Channel destination address */
    hdma->Instance->CMAR = DstAddress;
 80028e0:	60c2      	str	r2, [r0, #12]
 80028e2:	e7ef      	b.n	80028c4 <HAL_DMA_Start_IT+0x4c>
      __HAL_DMA_DISABLE_IT(hdma, DMA_IT_HT);
 80028e4:	2204      	movs	r2, #4
 80028e6:	6803      	ldr	r3, [r0, #0]
 80028e8:	4393      	bics	r3, r2
 80028ea:	6003      	str	r3, [r0, #0]
      __HAL_DMA_ENABLE_IT(hdma, (DMA_IT_TC | DMA_IT_TE));
 80028ec:	6802      	ldr	r2, [r0, #0]
 80028ee:	230a      	movs	r3, #10
 80028f0:	e7ed      	b.n	80028ce <HAL_DMA_Start_IT+0x56>
    status = HAL_BUSY;
 80028f2:	2002      	movs	r0, #2
    __HAL_UNLOCK(hdma);
 80028f4:	77ee      	strb	r6, [r5, #31]
    status = HAL_BUSY;
 80028f6:	e7f1      	b.n	80028dc <HAL_DMA_Start_IT+0x64>

080028f8 <HAL_DMA_IRQHandler>:
{
 80028f8:	b5f8      	push	{r3, r4, r5, r6, r7, lr}
  if ((0U != (flag_it & (DMA_FLAG_HT1 << (hdma->ChannelIndex & 0x1cU)))) && (0U != (source_it & DMA_IT_HT)))
 80028fa:	221c      	movs	r2, #28
 80028fc:	2704      	movs	r7, #4
 80028fe:	6c46      	ldr	r6, [r0, #68]	; 0x44
  uint32_t flag_it = hdma->DmaBaseAddress->ISR;
 8002900:	6c01      	ldr	r1, [r0, #64]	; 0x40
  if ((0U != (flag_it & (DMA_FLAG_HT1 << (hdma->ChannelIndex & 0x1cU)))) && (0U != (source_it & DMA_IT_HT)))
 8002902:	4032      	ands	r2, r6
 8002904:	003e      	movs	r6, r7
 8002906:	4096      	lsls	r6, r2
  uint32_t flag_it = hdma->DmaBaseAddress->ISR;
 8002908:	680d      	ldr	r5, [r1, #0]
  uint32_t source_it = hdma->Instance->CCR;
 800290a:	6803      	ldr	r3, [r0, #0]
 800290c:	681c      	ldr	r4, [r3, #0]
  if ((0U != (flag_it & (DMA_FLAG_HT1 << (hdma->ChannelIndex & 0x1cU)))) && (0U != (source_it & DMA_IT_HT)))
 800290e:	4235      	tst	r5, r6
 8002910:	d00d      	beq.n	800292e <HAL_DMA_IRQHandler+0x36>
 8002912:	423c      	tst	r4, r7
 8002914:	d00b      	beq.n	800292e <HAL_DMA_IRQHandler+0x36>
      if((hdma->Instance->CCR & DMA_CCR_CIRC) == 0U)
 8002916:	681a      	ldr	r2, [r3, #0]
 8002918:	0692      	lsls	r2, r2, #26
 800291a:	d402      	bmi.n	8002922 <HAL_DMA_IRQHandler+0x2a>
        __HAL_DMA_DISABLE_IT(hdma, DMA_IT_HT);
 800291c:	681a      	ldr	r2, [r3, #0]
 800291e:	43ba      	bics	r2, r7
 8002920:	601a      	str	r2, [r3, #0]
     if(hdma->XferHalfCpltCallback != NULL)
 8002922:	6b03      	ldr	r3, [r0, #48]	; 0x30
      hdma->DmaBaseAddress->IFCR = DMA_ISR_HTIF1 << (hdma->ChannelIndex & 0x1cU);
 8002924:	604e      	str	r6, [r1, #4]
     if(hdma->XferHalfCpltCallback != NULL)
 8002926:	2b00      	cmp	r3, #0
 8002928:	d019      	beq.n	800295e <HAL_DMA_IRQHandler+0x66>
      hdma->XferErrorCallback(hdma);
 800292a:	4798      	blx	r3
  return;
 800292c:	e017      	b.n	800295e <HAL_DMA_IRQHandler+0x66>
  else if ((0U != (flag_it & (DMA_FLAG_TC1 << (hdma->ChannelIndex & 0x1cU)))) && (0U != (source_it & DMA_IT_TC)))
 800292e:	2702      	movs	r7, #2
 8002930:	003e      	movs	r6, r7
 8002932:	4096      	lsls	r6, r2
 8002934:	4235      	tst	r5, r6
 8002936:	d013      	beq.n	8002960 <HAL_DMA_IRQHandler+0x68>
 8002938:	423c      	tst	r4, r7
 800293a:	d011      	beq.n	8002960 <HAL_DMA_IRQHandler+0x68>
    if((hdma->Instance->CCR & DMA_CCR_CIRC) == 0U)
 800293c:	681a      	ldr	r2, [r3, #0]
 800293e:	0692      	lsls	r2, r2, #26
 8002940:	d406      	bmi.n	8002950 <HAL_DMA_IRQHandler+0x58>
      __HAL_DMA_DISABLE_IT(hdma, DMA_IT_TE | DMA_IT_TC);
 8002942:	240a      	movs	r4, #10
 8002944:	681a      	ldr	r2, [r3, #0]
 8002946:	43a2      	bics	r2, r4
 8002948:	601a      	str	r2, [r3, #0]
      hdma->State = HAL_DMA_STATE_READY;
 800294a:	2201      	movs	r2, #1
 800294c:	1d83      	adds	r3, r0, #6
 800294e:	77da      	strb	r2, [r3, #31]
    __HAL_UNLOCK(hdma);
 8002950:	2200      	movs	r2, #0
 8002952:	1d43      	adds	r3, r0, #5
    hdma->DmaBaseAddress->IFCR = (DMA_ISR_TCIF1 << (hdma->ChannelIndex & 0x1cU));
 8002954:	604e      	str	r6, [r1, #4]
    __HAL_UNLOCK(hdma);
 8002956:	77da      	strb	r2, [r3, #31]
    if(hdma->XferCpltCallback != NULL)
 8002958:	6ac3      	ldr	r3, [r0, #44]	; 0x2c
    if (hdma->XferErrorCallback != NULL)
 800295a:	4293      	cmp	r3, r2
 800295c:	d1e5      	bne.n	800292a <HAL_DMA_IRQHandler+0x32>
}
 800295e:	bdf8      	pop	{r3, r4, r5, r6, r7, pc}
  else if ((0U != (flag_it & (DMA_FLAG_TE1 << (hdma->ChannelIndex & 0x1cU)))) && (0U != (source_it & DMA_IT_TE)))
 8002960:	2608      	movs	r6, #8
 8002962:	0037      	movs	r7, r6
 8002964:	4097      	lsls	r7, r2
 8002966:	423d      	tst	r5, r7
 8002968:	d0f9      	beq.n	800295e <HAL_DMA_IRQHandler+0x66>
 800296a:	4234      	tst	r4, r6
 800296c:	d0f7      	beq.n	800295e <HAL_DMA_IRQHandler+0x66>
    __HAL_DMA_DISABLE_IT(hdma, (DMA_IT_TC | DMA_IT_HT | DMA_IT_TE));
 800296e:	250e      	movs	r5, #14
 8002970:	681c      	ldr	r4, [r3, #0]
 8002972:	43ac      	bics	r4, r5
 8002974:	601c      	str	r4, [r3, #0]
    hdma->DmaBaseAddress->IFCR = (DMA_ISR_GIF1 << (hdma->ChannelIndex & 0x1cU));
 8002976:	2301      	movs	r3, #1
 8002978:	001c      	movs	r4, r3
 800297a:	4094      	lsls	r4, r2
    hdma->State = HAL_DMA_STATE_READY;
 800297c:	1d82      	adds	r2, r0, #6
    hdma->DmaBaseAddress->IFCR = (DMA_ISR_GIF1 << (hdma->ChannelIndex & 0x1cU));
 800297e:	604c      	str	r4, [r1, #4]
    hdma->ErrorCode = HAL_DMA_ERROR_TE;
 8002980:	63c3      	str	r3, [r0, #60]	; 0x3c
    hdma->State = HAL_DMA_STATE_READY;
 8002982:	77d3      	strb	r3, [r2, #31]
    __HAL_UNLOCK(hdma);
 8002984:	2200      	movs	r2, #0
 8002986:	1d43      	adds	r3, r0, #5
 8002988:	77da      	strb	r2, [r3, #31]
    if (hdma->XferErrorCallback != NULL)
 800298a:	6b43      	ldr	r3, [r0, #52]	; 0x34
 800298c:	e7e5      	b.n	800295a <HAL_DMA_IRQHandler+0x62>
	...

08002990 <HAL_GPIO_Init>:
        /* Enable SYSCFG Clock */
        __HAL_RCC_SYSCFG_CLK_ENABLE();
        
        temp = SYSCFG->EXTICR[position >> 2U];
        CLEAR_BIT(temp, ((uint32_t)0x0FU) << (4U * (position & 0x03U)));
        SET_BIT(temp, (GPIO_GET_INDEX(GPIOx)) << (4 * (position & 0x03U)));
 8002990:	4a56      	ldr	r2, [pc, #344]	; (8002aec <HAL_GPIO_Init+0x15c>)
{
 8002992:	b5f0      	push	{r4, r5, r6, r7, lr}
        SET_BIT(temp, (GPIO_GET_INDEX(GPIOx)) << (4 * (position & 0x03U)));
 8002994:	1882      	adds	r2, r0, r2
 8002996:	1e54      	subs	r4, r2, #1
 8002998:	41a2      	sbcs	r2, r4
  uint32_t position = 0x00U;
 800299a:	2300      	movs	r3, #0
{
 800299c:	b085      	sub	sp, #20
        SET_BIT(temp, (GPIO_GET_INDEX(GPIOx)) << (4 * (position & 0x03U)));
 800299e:	3205      	adds	r2, #5
 80029a0:	9203      	str	r2, [sp, #12]
  while (((GPIO_Init->Pin) >> position) != 0)
 80029a2:	680a      	ldr	r2, [r1, #0]
 80029a4:	0014      	movs	r4, r2
 80029a6:	40dc      	lsrs	r4, r3
 80029a8:	d101      	bne.n	80029ae <HAL_GPIO_Init+0x1e>
        EXTI->FTSR = temp;
      }
    }
    position++;
  }
}
 80029aa:	b005      	add	sp, #20
 80029ac:	bdf0      	pop	{r4, r5, r6, r7, pc}
    iocurrent = (GPIO_Init->Pin) & (1U << position);
 80029ae:	2501      	movs	r5, #1
 80029b0:	0014      	movs	r4, r2
 80029b2:	409d      	lsls	r5, r3
 80029b4:	402c      	ands	r4, r5
 80029b6:	9401      	str	r4, [sp, #4]
    if(iocurrent)
 80029b8:	422a      	tst	r2, r5
 80029ba:	d100      	bne.n	80029be <HAL_GPIO_Init+0x2e>
 80029bc:	e093      	b.n	8002ae6 <HAL_GPIO_Init+0x156>
      if((GPIO_Init->Mode == GPIO_MODE_AF_PP) || (GPIO_Init->Mode == GPIO_MODE_AF_OD)) 
 80029be:	684a      	ldr	r2, [r1, #4]
 80029c0:	9200      	str	r2, [sp, #0]
 80029c2:	2210      	movs	r2, #16
 80029c4:	9e00      	ldr	r6, [sp, #0]
 80029c6:	4396      	bics	r6, r2
 80029c8:	2e02      	cmp	r6, #2
 80029ca:	d10f      	bne.n	80029ec <HAL_GPIO_Init+0x5c>
        temp = GPIOx->AFR[position >> 3U];
 80029cc:	08da      	lsrs	r2, r3, #3
        temp &= ~((uint32_t)0xFU << ((uint32_t)(position & (uint32_t)0x07U) * 4U)) ;
 80029ce:	2407      	movs	r4, #7
 80029d0:	0092      	lsls	r2, r2, #2
 80029d2:	1882      	adds	r2, r0, r2
        temp = GPIOx->AFR[position >> 3U];
 80029d4:	6a17      	ldr	r7, [r2, #32]
        temp &= ~((uint32_t)0xFU << ((uint32_t)(position & (uint32_t)0x07U) * 4U)) ;
 80029d6:	9202      	str	r2, [sp, #8]
 80029d8:	220f      	movs	r2, #15
 80029da:	401c      	ands	r4, r3
 80029dc:	00a4      	lsls	r4, r4, #2
 80029de:	40a2      	lsls	r2, r4
 80029e0:	4397      	bics	r7, r2
        temp |= ((uint32_t)(GPIO_Init->Alternate) << (((uint32_t)position & (uint32_t)0x07U) * 4U)) ;
 80029e2:	690a      	ldr	r2, [r1, #16]
 80029e4:	40a2      	lsls	r2, r4
 80029e6:	4317      	orrs	r7, r2
        GPIOx->AFR[position >> 3U] = temp;
 80029e8:	9a02      	ldr	r2, [sp, #8]
 80029ea:	6217      	str	r7, [r2, #32]
      if((GPIO_Init->Mode == GPIO_MODE_OUTPUT_PP) || (GPIO_Init->Mode == GPIO_MODE_AF_PP) ||
 80029ec:	2203      	movs	r2, #3
 80029ee:	005c      	lsls	r4, r3, #1
 80029f0:	40a2      	lsls	r2, r4
 80029f2:	3e01      	subs	r6, #1
 80029f4:	43d2      	mvns	r2, r2
 80029f6:	2e01      	cmp	r6, #1
 80029f8:	d80d      	bhi.n	8002a16 <HAL_GPIO_Init+0x86>
        temp |= (GPIO_Init->Speed << (position * 2U));
 80029fa:	68ce      	ldr	r6, [r1, #12]
        temp = GPIOx->OSPEEDR;
 80029fc:	6887      	ldr	r7, [r0, #8]
        temp |= (GPIO_Init->Speed << (position * 2U));
 80029fe:	40a6      	lsls	r6, r4
        temp &= ~(GPIO_OSPEEDER_OSPEED0 << (position * 2U));
 8002a00:	4017      	ands	r7, r2
        temp |= (GPIO_Init->Speed << (position * 2U));
 8002a02:	433e      	orrs	r6, r7
        GPIOx->OSPEEDR = temp;
 8002a04:	6086      	str	r6, [r0, #8]
        temp= GPIOx->OTYPER;
 8002a06:	6846      	ldr	r6, [r0, #4]
        temp &= ~(GPIO_OTYPER_OT_0 << position) ;
 8002a08:	43ae      	bics	r6, r5
        temp |= (((GPIO_Init->Mode & GPIO_OUTPUT_TYPE) >> 4U) << position);
 8002a0a:	9d00      	ldr	r5, [sp, #0]
 8002a0c:	06ed      	lsls	r5, r5, #27
 8002a0e:	0fed      	lsrs	r5, r5, #31
 8002a10:	409d      	lsls	r5, r3
 8002a12:	4335      	orrs	r5, r6
        GPIOx->OTYPER = temp;
 8002a14:	6045      	str	r5, [r0, #4]
      temp |= ((GPIO_Init->Mode & GPIO_MODE) << (position * 2U));
 8002a16:	2503      	movs	r5, #3
 8002a18:	9e00      	ldr	r6, [sp, #0]
      temp = GPIOx->MODER;
 8002a1a:	6807      	ldr	r7, [r0, #0]
      temp |= ((GPIO_Init->Mode & GPIO_MODE) << (position * 2U));
 8002a1c:	402e      	ands	r6, r5
 8002a1e:	40a6      	lsls	r6, r4
      temp &= ~(GPIO_MODER_MODE0 << (position * 2U));
 8002a20:	4017      	ands	r7, r2
      temp |= ((GPIO_Init->Mode & GPIO_MODE) << (position * 2U));
 8002a22:	433e      	orrs	r6, r7
      GPIOx->MODER = temp;
 8002a24:	6006      	str	r6, [r0, #0]
      temp = GPIOx->PUPDR;
 8002a26:	68c6      	ldr	r6, [r0, #12]
      temp &= ~(GPIO_PUPDR_PUPD0 << (position * 2U));
 8002a28:	4032      	ands	r2, r6
      temp |= ((GPIO_Init->Pull) << (position * 2U)); 
 8002a2a:	688e      	ldr	r6, [r1, #8]
 8002a2c:	40a6      	lsls	r6, r4
 8002a2e:	4332      	orrs	r2, r6
      GPIOx->PUPDR = temp;
 8002a30:	60c2      	str	r2, [r0, #12]
      if((GPIO_Init->Mode & EXTI_MODE) == EXTI_MODE) 
 8002a32:	9a00      	ldr	r2, [sp, #0]
 8002a34:	00d2      	lsls	r2, r2, #3
 8002a36:	d556      	bpl.n	8002ae6 <HAL_GPIO_Init+0x156>
        CLEAR_BIT(temp, ((uint32_t)0x0FU) << (4U * (position & 0x03U)));
 8002a38:	001e      	movs	r6, r3
        __HAL_RCC_SYSCFG_CLK_ENABLE();
 8002a3a:	2701      	movs	r7, #1
        CLEAR_BIT(temp, ((uint32_t)0x0FU) << (4U * (position & 0x03U)));
 8002a3c:	402e      	ands	r6, r5
 8002a3e:	00b6      	lsls	r6, r6, #2
 8002a40:	46b4      	mov	ip, r6
        __HAL_RCC_SYSCFG_CLK_ENABLE();
 8002a42:	4c2b      	ldr	r4, [pc, #172]	; (8002af0 <HAL_GPIO_Init+0x160>)
        CLEAR_BIT(temp, ((uint32_t)0x0FU) << (4U * (position & 0x03U)));
 8002a44:	260f      	movs	r6, #15
        __HAL_RCC_SYSCFG_CLK_ENABLE();
 8002a46:	6b62      	ldr	r2, [r4, #52]	; 0x34
 8002a48:	433a      	orrs	r2, r7
 8002a4a:	6362      	str	r2, [r4, #52]	; 0x34
        temp = SYSCFG->EXTICR[position >> 2U];
 8002a4c:	4a29      	ldr	r2, [pc, #164]	; (8002af4 <HAL_GPIO_Init+0x164>)
 8002a4e:	089c      	lsrs	r4, r3, #2
 8002a50:	00a4      	lsls	r4, r4, #2
 8002a52:	18a4      	adds	r4, r4, r2
 8002a54:	68a2      	ldr	r2, [r4, #8]
 8002a56:	9202      	str	r2, [sp, #8]
        CLEAR_BIT(temp, ((uint32_t)0x0FU) << (4U * (position & 0x03U)));
 8002a58:	4662      	mov	r2, ip
 8002a5a:	4096      	lsls	r6, r2
 8002a5c:	9a02      	ldr	r2, [sp, #8]
 8002a5e:	43b2      	bics	r2, r6
        SET_BIT(temp, (GPIO_GET_INDEX(GPIOx)) << (4 * (position & 0x03U)));
 8002a60:	26a0      	movs	r6, #160	; 0xa0
        CLEAR_BIT(temp, ((uint32_t)0x0FU) << (4U * (position & 0x03U)));
 8002a62:	9202      	str	r2, [sp, #8]
        SET_BIT(temp, (GPIO_GET_INDEX(GPIOx)) << (4 * (position & 0x03U)));
 8002a64:	05f6      	lsls	r6, r6, #23
 8002a66:	2200      	movs	r2, #0
 8002a68:	42b0      	cmp	r0, r6
 8002a6a:	d010      	beq.n	8002a8e <HAL_GPIO_Init+0xfe>
 8002a6c:	4e22      	ldr	r6, [pc, #136]	; (8002af8 <HAL_GPIO_Init+0x168>)
 8002a6e:	003a      	movs	r2, r7
 8002a70:	42b0      	cmp	r0, r6
 8002a72:	d00c      	beq.n	8002a8e <HAL_GPIO_Init+0xfe>
 8002a74:	4e21      	ldr	r6, [pc, #132]	; (8002afc <HAL_GPIO_Init+0x16c>)
 8002a76:	19fa      	adds	r2, r7, r7
 8002a78:	42b0      	cmp	r0, r6
 8002a7a:	d008      	beq.n	8002a8e <HAL_GPIO_Init+0xfe>
 8002a7c:	4e20      	ldr	r6, [pc, #128]	; (8002b00 <HAL_GPIO_Init+0x170>)
 8002a7e:	002a      	movs	r2, r5
 8002a80:	42b0      	cmp	r0, r6
 8002a82:	d004      	beq.n	8002a8e <HAL_GPIO_Init+0xfe>
 8002a84:	4d1f      	ldr	r5, [pc, #124]	; (8002b04 <HAL_GPIO_Init+0x174>)
 8002a86:	19d2      	adds	r2, r2, r7
 8002a88:	42a8      	cmp	r0, r5
 8002a8a:	d000      	beq.n	8002a8e <HAL_GPIO_Init+0xfe>
 8002a8c:	9a03      	ldr	r2, [sp, #12]
 8002a8e:	4665      	mov	r5, ip
 8002a90:	40aa      	lsls	r2, r5
 8002a92:	9d02      	ldr	r5, [sp, #8]
        if((GPIO_Init->Mode & GPIO_MODE_IT) == GPIO_MODE_IT)
 8002a94:	9f00      	ldr	r7, [sp, #0]
        SET_BIT(temp, (GPIO_GET_INDEX(GPIOx)) << (4 * (position & 0x03U)));
 8002a96:	432a      	orrs	r2, r5
        SYSCFG->EXTICR[position >> 2U] = temp;
 8002a98:	60a2      	str	r2, [r4, #8]
        temp = EXTI->IMR;
 8002a9a:	4a1b      	ldr	r2, [pc, #108]	; (8002b08 <HAL_GPIO_Init+0x178>)
        temp &= ~((uint32_t)iocurrent);
 8002a9c:	9c01      	ldr	r4, [sp, #4]
        temp = EXTI->IMR;
 8002a9e:	6816      	ldr	r6, [r2, #0]
          temp |= iocurrent;
 8002aa0:	9d01      	ldr	r5, [sp, #4]
        temp &= ~((uint32_t)iocurrent);
 8002aa2:	43e4      	mvns	r4, r4
          temp |= iocurrent;
 8002aa4:	4335      	orrs	r5, r6
        if((GPIO_Init->Mode & GPIO_MODE_IT) == GPIO_MODE_IT)
 8002aa6:	03ff      	lsls	r7, r7, #15
 8002aa8:	d401      	bmi.n	8002aae <HAL_GPIO_Init+0x11e>
        temp &= ~((uint32_t)iocurrent);
 8002aaa:	0035      	movs	r5, r6
 8002aac:	4025      	ands	r5, r4
        EXTI->IMR = temp;
 8002aae:	6015      	str	r5, [r2, #0]
        temp = EXTI->EMR;
 8002ab0:	6856      	ldr	r6, [r2, #4]
          temp |= iocurrent;
 8002ab2:	9d01      	ldr	r5, [sp, #4]
        if((GPIO_Init->Mode & GPIO_MODE_EVT) == GPIO_MODE_EVT)
 8002ab4:	9f00      	ldr	r7, [sp, #0]
          temp |= iocurrent;
 8002ab6:	4335      	orrs	r5, r6
        if((GPIO_Init->Mode & GPIO_MODE_EVT) == GPIO_MODE_EVT)
 8002ab8:	03bf      	lsls	r7, r7, #14
 8002aba:	d401      	bmi.n	8002ac0 <HAL_GPIO_Init+0x130>
        temp &= ~((uint32_t)iocurrent);
 8002abc:	0035      	movs	r5, r6
 8002abe:	4025      	ands	r5, r4
        EXTI->EMR = temp;
 8002ac0:	6055      	str	r5, [r2, #4]
        temp = EXTI->RTSR;
 8002ac2:	6896      	ldr	r6, [r2, #8]
          temp |= iocurrent;
 8002ac4:	9d01      	ldr	r5, [sp, #4]
        if((GPIO_Init->Mode & RISING_EDGE) == RISING_EDGE)
 8002ac6:	9f00      	ldr	r7, [sp, #0]
          temp |= iocurrent;
 8002ac8:	4335      	orrs	r5, r6
        if((GPIO_Init->Mode & RISING_EDGE) == RISING_EDGE)
 8002aca:	02ff      	lsls	r7, r7, #11
 8002acc:	d401      	bmi.n	8002ad2 <HAL_GPIO_Init+0x142>
        temp &= ~((uint32_t)iocurrent);
 8002ace:	0035      	movs	r5, r6
 8002ad0:	4025      	ands	r5, r4
        EXTI->RTSR = temp;
 8002ad2:	6095      	str	r5, [r2, #8]
        temp = EXTI->FTSR;
 8002ad4:	68d5      	ldr	r5, [r2, #12]
          temp |= iocurrent;
 8002ad6:	9e01      	ldr	r6, [sp, #4]
        if((GPIO_Init->Mode & FALLING_EDGE) == FALLING_EDGE)
 8002ad8:	9f00      	ldr	r7, [sp, #0]
          temp |= iocurrent;
 8002ada:	432e      	orrs	r6, r5
        if((GPIO_Init->Mode & FALLING_EDGE) == FALLING_EDGE)
 8002adc:	02bf      	lsls	r7, r7, #10
 8002ade:	d401      	bmi.n	8002ae4 <HAL_GPIO_Init+0x154>
        temp &= ~((uint32_t)iocurrent);
 8002ae0:	4025      	ands	r5, r4
 8002ae2:	002e      	movs	r6, r5
        EXTI->FTSR = temp;
 8002ae4:	60d6      	str	r6, [r2, #12]
    position++;
 8002ae6:	3301      	adds	r3, #1
 8002ae8:	e75b      	b.n	80029a2 <HAL_GPIO_Init+0x12>
 8002aea:	46c0      	nop			; (mov r8, r8)
 8002aec:	afffe400 	.word	0xafffe400
 8002af0:	40021000 	.word	0x40021000
 8002af4:	40010000 	.word	0x40010000
 8002af8:	50000400 	.word	0x50000400
 8002afc:	50000800 	.word	0x50000800
 8002b00:	50000c00 	.word	0x50000c00
 8002b04:	50001000 	.word	0x50001000
 8002b08:	40010400 	.word	0x40010400

08002b0c <HAL_GPIO_WritePin>:
{
  /* Check the parameters */
  assert_param(IS_GPIO_PIN_AVAILABLE(GPIOx,GPIO_Pin));
  assert_param(IS_GPIO_PIN_ACTION(PinState));
  
  if(PinState != GPIO_PIN_RESET)
 8002b0c:	2a00      	cmp	r2, #0
 8002b0e:	d001      	beq.n	8002b14 <HAL_GPIO_WritePin+0x8>
  {
    GPIOx->BSRR = GPIO_Pin;
 8002b10:	6181      	str	r1, [r0, #24]
  }
  else
  {
    GPIOx->BRR = GPIO_Pin ;
  }
}
 8002b12:	4770      	bx	lr
    GPIOx->BRR = GPIO_Pin ;
 8002b14:	6281      	str	r1, [r0, #40]	; 0x28
}
 8002b16:	e7fc      	b.n	8002b12 <HAL_GPIO_WritePin+0x6>

08002b18 <HAL_I2S_Init>:
  * @param  hi2s pointer to a I2S_HandleTypeDef structure that contains
  *         the configuration information for I2S module
  * @retval HAL status
  */
HAL_StatusTypeDef HAL_I2S_Init(I2S_HandleTypeDef *hi2s)
{
 8002b18:	b5f7      	push	{r0, r1, r2, r4, r5, r6, r7, lr}
 8002b1a:	0004      	movs	r4, r0
  uint32_t tmp = 0U, i2sclk = 0U;

  /* Check the I2S handle allocation */
  if (hi2s == NULL)
  {
    return HAL_ERROR;
 8002b1c:	2001      	movs	r0, #1
  if (hi2s == NULL)
 8002b1e:	2c00      	cmp	r4, #0
 8002b20:	d046      	beq.n	8002bb0 <HAL_I2S_Init+0x98>
  assert_param(IS_I2S_DATA_FORMAT(hi2s->Init.DataFormat));
  assert_param(IS_I2S_MCLK_OUTPUT(hi2s->Init.MCLKOutput));
  assert_param(IS_I2S_AUDIO_FREQ(hi2s->Init.AudioFreq));
  assert_param(IS_I2S_CPOL(hi2s->Init.CPOL));

  if (hi2s->State == HAL_I2S_STATE_RESET)
 8002b22:	0026      	movs	r6, r4
 8002b24:	3635      	adds	r6, #53	; 0x35
 8002b26:	7833      	ldrb	r3, [r6, #0]
 8002b28:	b2da      	uxtb	r2, r3
 8002b2a:	2b00      	cmp	r3, #0
 8002b2c:	d105      	bne.n	8002b3a <HAL_I2S_Init+0x22>
  {
    /* Allocate lock resource and initialize it */
    hi2s->Lock = HAL_UNLOCKED;
 8002b2e:	0023      	movs	r3, r4
 8002b30:	3334      	adds	r3, #52	; 0x34

    /* Init the low level hardware : GPIO, CLOCK, NVIC... */
    hi2s->MspInitCallback(hi2s);
#else
    /* Init the low level hardware : GPIO, CLOCK, CORTEX...etc */
    HAL_I2S_MspInit(hi2s);
 8002b32:	0020      	movs	r0, r4
    hi2s->Lock = HAL_UNLOCKED;
 8002b34:	701a      	strb	r2, [r3, #0]
    HAL_I2S_MspInit(hi2s);
 8002b36:	f7ff fb2d 	bl	8002194 <HAL_I2S_MspInit>
#endif /* USE_HAL_I2S_REGISTER_CALLBACKS */
  }

  hi2s->State = HAL_I2S_STATE_BUSY;
 8002b3a:	2002      	movs	r0, #2
 8002b3c:	7030      	strb	r0, [r6, #0]

  /*----------------------- SPIx I2SCFGR & I2SPR Configuration ----------------*/
  /* Clear I2SMOD, I2SE, I2SCFG, PCMSYNC, I2SSTD, CKPOL, DATLEN and CHLEN bits */
  CLEAR_BIT(hi2s->Instance->I2SCFGR, (SPI_I2SCFGR_CHLEN | SPI_I2SCFGR_DATLEN | SPI_I2SCFGR_CKPOL | \
 8002b3e:	6823      	ldr	r3, [r4, #0]
 8002b40:	4931      	ldr	r1, [pc, #196]	; (8002c08 <HAL_I2S_Init+0xf0>)
 8002b42:	69da      	ldr	r2, [r3, #28]
 8002b44:	9101      	str	r1, [sp, #4]
 8002b46:	400a      	ands	r2, r1
 8002b48:	61da      	str	r2, [r3, #28]
                                      SPI_I2SCFGR_I2SSTD | SPI_I2SCFGR_PCMSYNC | SPI_I2SCFGR_I2SCFG | \
                                      SPI_I2SCFGR_I2SE | SPI_I2SCFGR_I2SMOD));
  hi2s->Instance->I2SPR = 0x0002U;
 8002b4a:	6218      	str	r0, [r3, #32]

  /*----------------------- I2SPR: I2SDIV and ODD Calculation -----------------*/
  /* If the requested audio frequency is not the default, compute the prescaler */
  if (hi2s->Init.AudioFreq != I2S_AUDIOFREQ_DEFAULT)
 8002b4c:	6963      	ldr	r3, [r4, #20]
 8002b4e:	4283      	cmp	r3, r0
 8002b50:	d036      	beq.n	8002bc0 <HAL_I2S_Init+0xa8>
  {
    /* Check the frame length (For the Prescaler computing) ********************/
    if (hi2s->Init.DataFormat == I2S_DATAFORMAT_16B)
 8002b52:	68e3      	ldr	r3, [r4, #12]
    {
      /* Packet length is 16 bits */
      packetlength = 16U;
 8002b54:	2510      	movs	r5, #16
    if (hi2s->Init.DataFormat == I2S_DATAFORMAT_16B)
 8002b56:	2b00      	cmp	r3, #0
 8002b58:	d000      	beq.n	8002b5c <HAL_I2S_Init+0x44>
    }
    else
    {
      /* Packet length is 32 bits */
      packetlength = 32U;
 8002b5a:	196d      	adds	r5, r5, r5
    }

    /* I2S standard */
    if (hi2s->Init.Standard <= I2S_STANDARD_LSB)
 8002b5c:	68a3      	ldr	r3, [r4, #8]
 8002b5e:	2b20      	cmp	r3, #32
 8002b60:	d800      	bhi.n	8002b64 <HAL_I2S_Init+0x4c>
    {
      /* In I2S standard packet lenght is multiplied by 2 */
      packetlength = packetlength * 2U;
 8002b62:	006d      	lsls	r5, r5, #1
    }

    /* Get the source clock value: based on System Clock value */
    i2sclk = HAL_RCC_GetSysClockFreq();
 8002b64:	f000 f852 	bl	8002c0c <HAL_RCC_GetSysClockFreq>

    /* Compute the Real divider depending on the MCLK output state, with a floating point */
    if (hi2s->Init.MCLKOutput == I2S_MCLKOUTPUT_ENABLE)
 8002b68:	2380      	movs	r3, #128	; 0x80
 8002b6a:	6922      	ldr	r2, [r4, #16]
 8002b6c:	009b      	lsls	r3, r3, #2
 8002b6e:	429a      	cmp	r2, r3
 8002b70:	d11f      	bne.n	8002bb2 <HAL_I2S_Init+0x9a>
    {
      /* MCLK output is enabled */
      if (hi2s->Init.DataFormat != I2S_DATAFORMAT_16B)
 8002b72:	68e3      	ldr	r3, [r4, #12]
 8002b74:	6967      	ldr	r7, [r4, #20]
      {
        tmp = (uint32_t)(((((i2sclk / (packetlength * 4)) * 10) / hi2s->Init.AudioFreq)) + 5);
 8002b76:	00a9      	lsls	r1, r5, #2
      if (hi2s->Init.DataFormat != I2S_DATAFORMAT_16B)
 8002b78:	2b00      	cmp	r3, #0
 8002b7a:	d100      	bne.n	8002b7e <HAL_I2S_Init+0x66>
      }
      else
      {
        tmp = (uint32_t)(((((i2sclk / (packetlength * 8)) * 10) / hi2s->Init.AudioFreq)) + 5);
 8002b7c:	00e9      	lsls	r1, r5, #3
 8002b7e:	f7fd facd 	bl	800011c <__udivsi3>
 8002b82:	230a      	movs	r3, #10
 8002b84:	0039      	movs	r1, r7
 8002b86:	4358      	muls	r0, r3
      }
    }
    else
    {
      /* MCLK output is disabled */
      tmp = (uint32_t)(((((i2sclk / packetlength) * 10) / hi2s->Init.AudioFreq)) + 5);
 8002b88:	f7fd fac8 	bl	800011c <__udivsi3>
    }

    /* Remove the flatting point */
    tmp = tmp / 10U;
 8002b8c:	210a      	movs	r1, #10
      tmp = (uint32_t)(((((i2sclk / packetlength) * 10) / hi2s->Init.AudioFreq)) + 5);
 8002b8e:	3005      	adds	r0, #5
    tmp = tmp / 10U;
 8002b90:	f7fd fac4 	bl	800011c <__udivsi3>
 8002b94:	0002      	movs	r2, r0

    /* Check the parity of the divider */
    i2sodd = (uint32_t)(tmp & (uint32_t)1U);
 8002b96:	2001      	movs	r0, #1
 8002b98:	0011      	movs	r1, r2

    /* Compute the i2sdiv prescaler */
    i2sdiv = (uint32_t)((tmp - i2sodd) / 2U);
 8002b9a:	4382      	bics	r2, r0
 8002b9c:	0853      	lsrs	r3, r2, #1
    i2sodd = (uint32_t)(tmp & (uint32_t)1U);
 8002b9e:	4001      	ands	r1, r0
    i2sdiv = 2U;
    i2sodd = 0U;
  }

  /* Test if the divider is 1 or 0 or greater than 0xFF */
  if ((i2sdiv < 2U) || (i2sdiv > 0xFFU))
 8002ba0:	1e9a      	subs	r2, r3, #2
    i2sodd = (uint32_t)(i2sodd << 8U);
 8002ba2:	0209      	lsls	r1, r1, #8
  if ((i2sdiv < 2U) || (i2sdiv > 0xFFU))
 8002ba4:	2afd      	cmp	r2, #253	; 0xfd
 8002ba6:	d90c      	bls.n	8002bc2 <HAL_I2S_Init+0xaa>
  {
    /* Set the error code and execute error callback*/
    SET_BIT(hi2s->ErrorCode, HAL_I2S_ERROR_PRESCALER);
 8002ba8:	2310      	movs	r3, #16
 8002baa:	6ba2      	ldr	r2, [r4, #56]	; 0x38
 8002bac:	4313      	orrs	r3, r2
 8002bae:	63a3      	str	r3, [r4, #56]	; 0x38

  hi2s->ErrorCode = HAL_I2S_ERROR_NONE;
  hi2s->State     = HAL_I2S_STATE_READY;

  return HAL_OK;
}
 8002bb0:	bdfe      	pop	{r1, r2, r3, r4, r5, r6, r7, pc}
      tmp = (uint32_t)(((((i2sclk / packetlength) * 10) / hi2s->Init.AudioFreq)) + 5);
 8002bb2:	0029      	movs	r1, r5
 8002bb4:	f7fd fab2 	bl	800011c <__udivsi3>
 8002bb8:	230a      	movs	r3, #10
 8002bba:	6961      	ldr	r1, [r4, #20]
 8002bbc:	4358      	muls	r0, r3
 8002bbe:	e7e3      	b.n	8002b88 <HAL_I2S_Init+0x70>
    i2sodd = 0U;
 8002bc0:	2100      	movs	r1, #0
  hi2s->Instance->I2SPR = (uint32_t)((uint32_t)i2sdiv | (uint32_t)(i2sodd | (uint32_t)hi2s->Init.MCLKOutput));
 8002bc2:	430b      	orrs	r3, r1
 8002bc4:	6921      	ldr	r1, [r4, #16]
 8002bc6:	6822      	ldr	r2, [r4, #0]
 8002bc8:	430b      	orrs	r3, r1
 8002bca:	6213      	str	r3, [r2, #32]
  MODIFY_REG(hi2s->Instance->I2SCFGR, (SPI_I2SCFGR_CHLEN | SPI_I2SCFGR_DATLEN | \
 8002bcc:	68a1      	ldr	r1, [r4, #8]
 8002bce:	69d0      	ldr	r0, [r2, #28]
 8002bd0:	6863      	ldr	r3, [r4, #4]
 8002bd2:	9d01      	ldr	r5, [sp, #4]
 8002bd4:	430b      	orrs	r3, r1
 8002bd6:	4028      	ands	r0, r5
 8002bd8:	4303      	orrs	r3, r0
 8002bda:	68e0      	ldr	r0, [r4, #12]
 8002bdc:	4303      	orrs	r3, r0
 8002bde:	69a0      	ldr	r0, [r4, #24]
 8002be0:	4303      	orrs	r3, r0
 8002be2:	2080      	movs	r0, #128	; 0x80
 8002be4:	0100      	lsls	r0, r0, #4
 8002be6:	4303      	orrs	r3, r0
 8002be8:	61d3      	str	r3, [r2, #28]
  if ((hi2s->Init.Standard == I2S_STANDARD_PCM_SHORT) || ((hi2s->Init.Standard == I2S_STANDARD_PCM_LONG)))
 8002bea:	2380      	movs	r3, #128	; 0x80
 8002bec:	4399      	bics	r1, r3
 8002bee:	2930      	cmp	r1, #48	; 0x30
 8002bf0:	d104      	bne.n	8002bfc <HAL_I2S_Init+0xe4>
    SET_BIT(hi2s->Instance->I2SCFGR, SPI_I2SCFGR_ASTRTEN);
 8002bf2:	2380      	movs	r3, #128	; 0x80
 8002bf4:	69d1      	ldr	r1, [r2, #28]
 8002bf6:	015b      	lsls	r3, r3, #5
 8002bf8:	430b      	orrs	r3, r1
 8002bfa:	61d3      	str	r3, [r2, #28]
  hi2s->ErrorCode = HAL_I2S_ERROR_NONE;
 8002bfc:	2000      	movs	r0, #0
  hi2s->State     = HAL_I2S_STATE_READY;
 8002bfe:	2301      	movs	r3, #1
  hi2s->ErrorCode = HAL_I2S_ERROR_NONE;
 8002c00:	63a0      	str	r0, [r4, #56]	; 0x38
  hi2s->State     = HAL_I2S_STATE_READY;
 8002c02:	7033      	strb	r3, [r6, #0]
  return HAL_OK;
 8002c04:	e7d4      	b.n	8002bb0 <HAL_I2S_Init+0x98>
 8002c06:	46c0      	nop			; (mov r8, r8)
 8002c08:	fffff040 	.word	0xfffff040

08002c0c <HAL_RCC_GetSysClockFreq>:
  uint32_t sysclockfreq;

  tmpreg = RCC->CFGR;

  /* Get SYSCLK source -------------------------------------------------------*/
  switch (tmpreg & RCC_CFGR_SWS)
 8002c0c:	220c      	movs	r2, #12
  tmpreg = RCC->CFGR;
 8002c0e:	4b19      	ldr	r3, [pc, #100]	; (8002c74 <HAL_RCC_GetSysClockFreq+0x68>)
{
 8002c10:	b510      	push	{r4, lr}
  tmpreg = RCC->CFGR;
 8002c12:	68d9      	ldr	r1, [r3, #12]
  switch (tmpreg & RCC_CFGR_SWS)
 8002c14:	400a      	ands	r2, r1
 8002c16:	2a08      	cmp	r2, #8
 8002c18:	d029      	beq.n	8002c6e <HAL_RCC_GetSysClockFreq+0x62>
 8002c1a:	2a0c      	cmp	r2, #12
 8002c1c:	d009      	beq.n	8002c32 <HAL_RCC_GetSysClockFreq+0x26>
 8002c1e:	2a04      	cmp	r2, #4
 8002c20:	d11d      	bne.n	8002c5e <HAL_RCC_GetSysClockFreq+0x52>
  {
    case RCC_SYSCLKSOURCE_STATUS_HSI:  /* HSI used as system clock source */
    {
      if ((RCC->CR & RCC_CR_HSIDIVF) != 0U)
 8002c22:	6818      	ldr	r0, [r3, #0]
      {
        sysclockfreq =  (HSI_VALUE >> 2);
      }
      else
      {
        sysclockfreq =  HSI_VALUE;
 8002c24:	4b14      	ldr	r3, [pc, #80]	; (8002c78 <HAL_RCC_GetSysClockFreq+0x6c>)
      if ((RCC->CR & RCC_CR_HSIDIVF) != 0U)
 8002c26:	06c0      	lsls	r0, r0, #27
        sysclockfreq =  HSI_VALUE;
 8002c28:	17c0      	asrs	r0, r0, #31
 8002c2a:	4018      	ands	r0, r3
 8002c2c:	4b13      	ldr	r3, [pc, #76]	; (8002c7c <HAL_RCC_GetSysClockFreq+0x70>)
 8002c2e:	18c0      	adds	r0, r0, r3
      sysclockfreq = (32768U * (1UL << (msiclkrange + 1U)));
      break;
    }
  }
  return sysclockfreq;
}
 8002c30:	bd10      	pop	{r4, pc}
      pllm = PLLMulTable[(uint32_t)(tmpreg & RCC_CFGR_PLLMUL) >> RCC_CFGR_PLLMUL_Pos];
 8002c32:	4813      	ldr	r0, [pc, #76]	; (8002c80 <HAL_RCC_GetSysClockFreq+0x74>)
 8002c34:	028a      	lsls	r2, r1, #10
 8002c36:	0f12      	lsrs	r2, r2, #28
 8002c38:	5c82      	ldrb	r2, [r0, r2]
      plld = ((uint32_t)(tmpreg & RCC_CFGR_PLLDIV) >> RCC_CFGR_PLLDIV_Pos) + 1U;
 8002c3a:	0209      	lsls	r1, r1, #8
      if (__HAL_RCC_GET_PLL_OSCSOURCE() != RCC_PLLSOURCE_HSI)
 8002c3c:	68d8      	ldr	r0, [r3, #12]
      plld = ((uint32_t)(tmpreg & RCC_CFGR_PLLDIV) >> RCC_CFGR_PLLDIV_Pos) + 1U;
 8002c3e:	0f89      	lsrs	r1, r1, #30
 8002c40:	3101      	adds	r1, #1
      if (__HAL_RCC_GET_PLL_OSCSOURCE() != RCC_PLLSOURCE_HSI)
 8002c42:	03c0      	lsls	r0, r0, #15
 8002c44:	d504      	bpl.n	8002c50 <HAL_RCC_GetSysClockFreq+0x44>
        pllvco = (HSE_VALUE * pllm) / plld;
 8002c46:	480f      	ldr	r0, [pc, #60]	; (8002c84 <HAL_RCC_GetSysClockFreq+0x78>)
         pllvco = (HSI_VALUE * pllm) / plld;
 8002c48:	4350      	muls	r0, r2
 8002c4a:	f7fd fa67 	bl	800011c <__udivsi3>
 8002c4e:	e7ef      	b.n	8002c30 <HAL_RCC_GetSysClockFreq+0x24>
        if ((RCC->CR & RCC_CR_HSIDIVF) != 0U)
 8002c50:	681b      	ldr	r3, [r3, #0]
 8002c52:	06db      	lsls	r3, r3, #27
 8002c54:	d501      	bpl.n	8002c5a <HAL_RCC_GetSysClockFreq+0x4e>
          pllvco = ((HSI_VALUE >> 2) * pllm) / plld;
 8002c56:	480c      	ldr	r0, [pc, #48]	; (8002c88 <HAL_RCC_GetSysClockFreq+0x7c>)
 8002c58:	e7f6      	b.n	8002c48 <HAL_RCC_GetSysClockFreq+0x3c>
         pllvco = (HSI_VALUE * pllm) / plld;
 8002c5a:	4808      	ldr	r0, [pc, #32]	; (8002c7c <HAL_RCC_GetSysClockFreq+0x70>)
 8002c5c:	e7f4      	b.n	8002c48 <HAL_RCC_GetSysClockFreq+0x3c>
      sysclockfreq = (32768U * (1UL << (msiclkrange + 1U)));
 8002c5e:	2080      	movs	r0, #128	; 0x80
      msiclkrange = (RCC->ICSCR & RCC_ICSCR_MSIRANGE ) >> RCC_ICSCR_MSIRANGE_Pos;
 8002c60:	685b      	ldr	r3, [r3, #4]
      sysclockfreq = (32768U * (1UL << (msiclkrange + 1U)));
 8002c62:	0200      	lsls	r0, r0, #8
      msiclkrange = (RCC->ICSCR & RCC_ICSCR_MSIRANGE ) >> RCC_ICSCR_MSIRANGE_Pos;
 8002c64:	041b      	lsls	r3, r3, #16
 8002c66:	0f5b      	lsrs	r3, r3, #29
      sysclockfreq = (32768U * (1UL << (msiclkrange + 1U)));
 8002c68:	3301      	adds	r3, #1
 8002c6a:	4098      	lsls	r0, r3
  return sysclockfreq;
 8002c6c:	e7e0      	b.n	8002c30 <HAL_RCC_GetSysClockFreq+0x24>
  switch (tmpreg & RCC_CFGR_SWS)
 8002c6e:	4805      	ldr	r0, [pc, #20]	; (8002c84 <HAL_RCC_GetSysClockFreq+0x78>)
 8002c70:	e7de      	b.n	8002c30 <HAL_RCC_GetSysClockFreq+0x24>
 8002c72:	46c0      	nop			; (mov r8, r8)
 8002c74:	40021000 	.word	0x40021000
 8002c78:	ff48e500 	.word	0xff48e500
 8002c7c:	00f42400 	.word	0x00f42400
 8002c80:	080057a5 	.word	0x080057a5
 8002c84:	007a1200 	.word	0x007a1200
 8002c88:	003d0900 	.word	0x003d0900

08002c8c <HAL_RCC_OscConfig>:
{
 8002c8c:	b5f0      	push	{r4, r5, r6, r7, lr}
 8002c8e:	0005      	movs	r5, r0
 8002c90:	b087      	sub	sp, #28
  if(RCC_OscInitStruct == NULL)
 8002c92:	2800      	cmp	r0, #0
 8002c94:	d058      	beq.n	8002d48 <HAL_RCC_OscConfig+0xbc>
  sysclk_source = __HAL_RCC_GET_SYSCLK_SOURCE();
 8002c96:	230c      	movs	r3, #12
 8002c98:	4cb7      	ldr	r4, [pc, #732]	; (8002f78 <HAL_RCC_OscConfig+0x2ec>)
  if(((RCC_OscInitStruct->OscillatorType) & RCC_OSCILLATORTYPE_HSE) == RCC_OSCILLATORTYPE_HSE)
 8002c9a:	6802      	ldr	r2, [r0, #0]
  sysclk_source = __HAL_RCC_GET_SYSCLK_SOURCE();
 8002c9c:	68e6      	ldr	r6, [r4, #12]
  pll_config = __HAL_RCC_GET_PLL_OSCSOURCE();
 8002c9e:	68e7      	ldr	r7, [r4, #12]
  sysclk_source = __HAL_RCC_GET_SYSCLK_SOURCE();
 8002ca0:	401e      	ands	r6, r3
  pll_config = __HAL_RCC_GET_PLL_OSCSOURCE();
 8002ca2:	2380      	movs	r3, #128	; 0x80
 8002ca4:	025b      	lsls	r3, r3, #9
 8002ca6:	401f      	ands	r7, r3
  if(((RCC_OscInitStruct->OscillatorType) & RCC_OSCILLATORTYPE_HSE) == RCC_OSCILLATORTYPE_HSE)
 8002ca8:	07d2      	lsls	r2, r2, #31
 8002caa:	d441      	bmi.n	8002d30 <HAL_RCC_OscConfig+0xa4>
  if(((RCC_OscInitStruct->OscillatorType) & RCC_OSCILLATORTYPE_HSI) == RCC_OSCILLATORTYPE_HSI)
 8002cac:	682b      	ldr	r3, [r5, #0]
 8002cae:	079b      	lsls	r3, r3, #30
 8002cb0:	d500      	bpl.n	8002cb4 <HAL_RCC_OscConfig+0x28>
 8002cb2:	e08a      	b.n	8002dca <HAL_RCC_OscConfig+0x13e>
  if(((RCC_OscInitStruct->OscillatorType) & RCC_OSCILLATORTYPE_MSI) == RCC_OSCILLATORTYPE_MSI)
 8002cb4:	682b      	ldr	r3, [r5, #0]
 8002cb6:	06db      	lsls	r3, r3, #27
 8002cb8:	d528      	bpl.n	8002d0c <HAL_RCC_OscConfig+0x80>
    if((sysclk_source == RCC_CFGR_SWS_MSI) )
 8002cba:	2e00      	cmp	r6, #0
 8002cbc:	d000      	beq.n	8002cc0 <HAL_RCC_OscConfig+0x34>
 8002cbe:	e0e2      	b.n	8002e86 <HAL_RCC_OscConfig+0x1fa>
      if((__HAL_RCC_GET_FLAG(RCC_FLAG_MSIRDY) != 0U) && (RCC_OscInitStruct->MSIState == RCC_MSI_OFF))
 8002cc0:	6823      	ldr	r3, [r4, #0]
 8002cc2:	059b      	lsls	r3, r3, #22
 8002cc4:	d502      	bpl.n	8002ccc <HAL_RCC_OscConfig+0x40>
 8002cc6:	69eb      	ldr	r3, [r5, #28]
 8002cc8:	2b00      	cmp	r3, #0
 8002cca:	d03d      	beq.n	8002d48 <HAL_RCC_OscConfig+0xbc>
        __HAL_RCC_MSI_RANGE_CONFIG(RCC_OscInitStruct->MSIClockRange);
 8002ccc:	6862      	ldr	r2, [r4, #4]
 8002cce:	49ab      	ldr	r1, [pc, #684]	; (8002f7c <HAL_RCC_OscConfig+0x2f0>)
 8002cd0:	6a6b      	ldr	r3, [r5, #36]	; 0x24
 8002cd2:	400a      	ands	r2, r1
 8002cd4:	431a      	orrs	r2, r3
 8002cd6:	6062      	str	r2, [r4, #4]
        __HAL_RCC_MSI_CALIBRATIONVALUE_ADJUST(RCC_OscInitStruct->MSICalibrationValue);
 8002cd8:	6861      	ldr	r1, [r4, #4]
 8002cda:	6a2a      	ldr	r2, [r5, #32]
 8002cdc:	0209      	lsls	r1, r1, #8
 8002cde:	0a09      	lsrs	r1, r1, #8
 8002ce0:	0612      	lsls	r2, r2, #24
 8002ce2:	430a      	orrs	r2, r1
 8002ce4:	6062      	str	r2, [r4, #4]
        SystemCoreClock =  (32768U * (1UL << ((RCC_OscInitStruct->MSIClockRange >> RCC_ICSCR_MSIRANGE_Pos) + 1U)))
 8002ce6:	2280      	movs	r2, #128	; 0x80
 8002ce8:	0b5b      	lsrs	r3, r3, #13
 8002cea:	3301      	adds	r3, #1
 8002cec:	0212      	lsls	r2, r2, #8
 8002cee:	409a      	lsls	r2, r3
 8002cf0:	0013      	movs	r3, r2
                           >> AHBPrescTable[((RCC->CFGR & RCC_CFGR_HPRE) >> RCC_CFGR_HPRE_Pos)];
 8002cf2:	68e1      	ldr	r1, [r4, #12]
        status = HAL_InitTick (TICK_INT_PRIORITY);
 8002cf4:	2000      	movs	r0, #0
                           >> AHBPrescTable[((RCC->CFGR & RCC_CFGR_HPRE) >> RCC_CFGR_HPRE_Pos)];
 8002cf6:	060a      	lsls	r2, r1, #24
 8002cf8:	49a1      	ldr	r1, [pc, #644]	; (8002f80 <HAL_RCC_OscConfig+0x2f4>)
 8002cfa:	0f12      	lsrs	r2, r2, #28
 8002cfc:	5c8a      	ldrb	r2, [r1, r2]
 8002cfe:	40d3      	lsrs	r3, r2
        SystemCoreClock =  (32768U * (1UL << ((RCC_OscInitStruct->MSIClockRange >> RCC_ICSCR_MSIRANGE_Pos) + 1U)))
 8002d00:	4aa0      	ldr	r2, [pc, #640]	; (8002f84 <HAL_RCC_OscConfig+0x2f8>)
 8002d02:	6013      	str	r3, [r2, #0]
        status = HAL_InitTick (TICK_INT_PRIORITY);
 8002d04:	f7ff fcdc 	bl	80026c0 <HAL_InitTick>
        if(status != HAL_OK)
 8002d08:	2800      	cmp	r0, #0
 8002d0a:	d134      	bne.n	8002d76 <HAL_RCC_OscConfig+0xea>
  if(((RCC_OscInitStruct->OscillatorType) & RCC_OSCILLATORTYPE_LSI) == RCC_OSCILLATORTYPE_LSI)
 8002d0c:	682b      	ldr	r3, [r5, #0]
 8002d0e:	071b      	lsls	r3, r3, #28
 8002d10:	d500      	bpl.n	8002d14 <HAL_RCC_OscConfig+0x88>
 8002d12:	e0ef      	b.n	8002ef4 <HAL_RCC_OscConfig+0x268>
  if(((RCC_OscInitStruct->OscillatorType) & RCC_OSCILLATORTYPE_LSE) == RCC_OSCILLATORTYPE_LSE)
 8002d14:	682b      	ldr	r3, [r5, #0]
 8002d16:	075b      	lsls	r3, r3, #29
 8002d18:	d500      	bpl.n	8002d1c <HAL_RCC_OscConfig+0x90>
 8002d1a:	e111      	b.n	8002f40 <HAL_RCC_OscConfig+0x2b4>
  if(((RCC_OscInitStruct->OscillatorType) & RCC_OSCILLATORTYPE_HSI48) == RCC_OSCILLATORTYPE_HSI48)
 8002d1c:	682b      	ldr	r3, [r5, #0]
 8002d1e:	069b      	lsls	r3, r3, #26
 8002d20:	d500      	bpl.n	8002d24 <HAL_RCC_OscConfig+0x98>
 8002d22:	e196      	b.n	8003052 <HAL_RCC_OscConfig+0x3c6>
  if ((RCC_OscInitStruct->PLL.PLLState) != RCC_PLL_NONE)
 8002d24:	6aab      	ldr	r3, [r5, #40]	; 0x28
 8002d26:	2b00      	cmp	r3, #0
 8002d28:	d000      	beq.n	8002d2c <HAL_RCC_OscConfig+0xa0>
 8002d2a:	e1c5      	b.n	80030b8 <HAL_RCC_OscConfig+0x42c>
  return HAL_OK;
 8002d2c:	2000      	movs	r0, #0
 8002d2e:	e022      	b.n	8002d76 <HAL_RCC_OscConfig+0xea>
    if((sysclk_source == RCC_SYSCLKSOURCE_STATUS_HSE)
 8002d30:	2e08      	cmp	r6, #8
 8002d32:	d003      	beq.n	8002d3c <HAL_RCC_OscConfig+0xb0>
       || ((sysclk_source == RCC_SYSCLKSOURCE_STATUS_PLLCLK) && (pll_config == RCC_PLLSOURCE_HSE)))
 8002d34:	2e0c      	cmp	r6, #12
 8002d36:	d109      	bne.n	8002d4c <HAL_RCC_OscConfig+0xc0>
 8002d38:	2f00      	cmp	r7, #0
 8002d3a:	d007      	beq.n	8002d4c <HAL_RCC_OscConfig+0xc0>
      if((__HAL_RCC_GET_FLAG(RCC_FLAG_HSERDY) != 0U) && (RCC_OscInitStruct->HSEState == RCC_HSE_OFF))
 8002d3c:	6823      	ldr	r3, [r4, #0]
 8002d3e:	039b      	lsls	r3, r3, #14
 8002d40:	d5b4      	bpl.n	8002cac <HAL_RCC_OscConfig+0x20>
 8002d42:	686b      	ldr	r3, [r5, #4]
 8002d44:	2b00      	cmp	r3, #0
 8002d46:	d1b1      	bne.n	8002cac <HAL_RCC_OscConfig+0x20>
          return HAL_ERROR;
 8002d48:	2001      	movs	r0, #1
 8002d4a:	e014      	b.n	8002d76 <HAL_RCC_OscConfig+0xea>
      __HAL_RCC_HSE_CONFIG(RCC_OscInitStruct->HSEState);
 8002d4c:	686a      	ldr	r2, [r5, #4]
 8002d4e:	429a      	cmp	r2, r3
 8002d50:	d113      	bne.n	8002d7a <HAL_RCC_OscConfig+0xee>
 8002d52:	6822      	ldr	r2, [r4, #0]
 8002d54:	4313      	orrs	r3, r2
 8002d56:	6023      	str	r3, [r4, #0]
        tickstart = HAL_GetTick();
 8002d58:	f7ff fce6 	bl	8002728 <HAL_GetTick>
 8002d5c:	9001      	str	r0, [sp, #4]
        while(__HAL_RCC_GET_FLAG(RCC_FLAG_HSERDY) == 0U)
 8002d5e:	2280      	movs	r2, #128	; 0x80
 8002d60:	6823      	ldr	r3, [r4, #0]
 8002d62:	0292      	lsls	r2, r2, #10
 8002d64:	4213      	tst	r3, r2
 8002d66:	d1a1      	bne.n	8002cac <HAL_RCC_OscConfig+0x20>
          if((HAL_GetTick() - tickstart ) > HSE_TIMEOUT_VALUE)
 8002d68:	f7ff fcde 	bl	8002728 <HAL_GetTick>
 8002d6c:	9b01      	ldr	r3, [sp, #4]
 8002d6e:	1ac0      	subs	r0, r0, r3
 8002d70:	2864      	cmp	r0, #100	; 0x64
 8002d72:	d9f4      	bls.n	8002d5e <HAL_RCC_OscConfig+0xd2>
            return HAL_TIMEOUT;
 8002d74:	2003      	movs	r0, #3
}
 8002d76:	b007      	add	sp, #28
 8002d78:	bdf0      	pop	{r4, r5, r6, r7, pc}
      __HAL_RCC_HSE_CONFIG(RCC_OscInitStruct->HSEState);
 8002d7a:	21a0      	movs	r1, #160	; 0xa0
 8002d7c:	02c9      	lsls	r1, r1, #11
 8002d7e:	428a      	cmp	r2, r1
 8002d80:	d105      	bne.n	8002d8e <HAL_RCC_OscConfig+0x102>
 8002d82:	2280      	movs	r2, #128	; 0x80
 8002d84:	6821      	ldr	r1, [r4, #0]
 8002d86:	02d2      	lsls	r2, r2, #11
 8002d88:	430a      	orrs	r2, r1
 8002d8a:	6022      	str	r2, [r4, #0]
 8002d8c:	e7e1      	b.n	8002d52 <HAL_RCC_OscConfig+0xc6>
 8002d8e:	6821      	ldr	r1, [r4, #0]
 8002d90:	487d      	ldr	r0, [pc, #500]	; (8002f88 <HAL_RCC_OscConfig+0x2fc>)
 8002d92:	4001      	ands	r1, r0
 8002d94:	6021      	str	r1, [r4, #0]
 8002d96:	6821      	ldr	r1, [r4, #0]
 8002d98:	400b      	ands	r3, r1
 8002d9a:	9305      	str	r3, [sp, #20]
 8002d9c:	9b05      	ldr	r3, [sp, #20]
 8002d9e:	497b      	ldr	r1, [pc, #492]	; (8002f8c <HAL_RCC_OscConfig+0x300>)
 8002da0:	6823      	ldr	r3, [r4, #0]
 8002da2:	400b      	ands	r3, r1
 8002da4:	6023      	str	r3, [r4, #0]
      if(RCC_OscInitStruct->HSEState != RCC_HSE_OFF)
 8002da6:	2a00      	cmp	r2, #0
 8002da8:	d1d6      	bne.n	8002d58 <HAL_RCC_OscConfig+0xcc>
        tickstart = HAL_GetTick();
 8002daa:	f7ff fcbd 	bl	8002728 <HAL_GetTick>
 8002dae:	9001      	str	r0, [sp, #4]
        while(__HAL_RCC_GET_FLAG(RCC_FLAG_HSERDY) != 0U)
 8002db0:	2280      	movs	r2, #128	; 0x80
 8002db2:	6823      	ldr	r3, [r4, #0]
 8002db4:	0292      	lsls	r2, r2, #10
 8002db6:	4213      	tst	r3, r2
 8002db8:	d100      	bne.n	8002dbc <HAL_RCC_OscConfig+0x130>
 8002dba:	e777      	b.n	8002cac <HAL_RCC_OscConfig+0x20>
           if((HAL_GetTick() - tickstart ) > HSE_TIMEOUT_VALUE)
 8002dbc:	f7ff fcb4 	bl	8002728 <HAL_GetTick>
 8002dc0:	9b01      	ldr	r3, [sp, #4]
 8002dc2:	1ac0      	subs	r0, r0, r3
 8002dc4:	2864      	cmp	r0, #100	; 0x64
 8002dc6:	d9f3      	bls.n	8002db0 <HAL_RCC_OscConfig+0x124>
 8002dc8:	e7d4      	b.n	8002d74 <HAL_RCC_OscConfig+0xe8>
    if((hsi_state & RCC_HSI_OUTEN) != 0U)
 8002dca:	2220      	movs	r2, #32
    hsi_state = RCC_OscInitStruct->HSIState;
 8002dcc:	68eb      	ldr	r3, [r5, #12]
    if((hsi_state & RCC_HSI_OUTEN) != 0U)
 8002dce:	4213      	tst	r3, r2
 8002dd0:	d003      	beq.n	8002dda <HAL_RCC_OscConfig+0x14e>
      SET_BIT(RCC->CR, RCC_CR_HSIOUTEN);
 8002dd2:	6821      	ldr	r1, [r4, #0]
      hsi_state &= ~RCC_CR_HSIOUTEN;
 8002dd4:	4393      	bics	r3, r2
      SET_BIT(RCC->CR, RCC_CR_HSIOUTEN);
 8002dd6:	4311      	orrs	r1, r2
 8002dd8:	6021      	str	r1, [r4, #0]
    if((sysclk_source == RCC_SYSCLKSOURCE_STATUS_HSI)
 8002dda:	2e04      	cmp	r6, #4
 8002ddc:	d003      	beq.n	8002de6 <HAL_RCC_OscConfig+0x15a>
       || ((sysclk_source == RCC_SYSCLKSOURCE_STATUS_PLLCLK) && (pll_config == RCC_PLLSOURCE_HSI)))
 8002dde:	2e0c      	cmp	r6, #12
 8002de0:	d123      	bne.n	8002e2a <HAL_RCC_OscConfig+0x19e>
 8002de2:	2f00      	cmp	r7, #0
 8002de4:	d121      	bne.n	8002e2a <HAL_RCC_OscConfig+0x19e>
      if((__HAL_RCC_GET_FLAG(RCC_FLAG_HSIRDY) != 0U) && (hsi_state == RCC_HSI_OFF))
 8002de6:	6822      	ldr	r2, [r4, #0]
 8002de8:	0752      	lsls	r2, r2, #29
 8002dea:	d501      	bpl.n	8002df0 <HAL_RCC_OscConfig+0x164>
 8002dec:	2b00      	cmp	r3, #0
 8002dee:	d0ab      	beq.n	8002d48 <HAL_RCC_OscConfig+0xbc>
        __HAL_RCC_HSI_CALIBRATIONVALUE_ADJUST(RCC_OscInitStruct->HSICalibrationValue);
 8002df0:	6861      	ldr	r1, [r4, #4]
 8002df2:	692a      	ldr	r2, [r5, #16]
 8002df4:	4866      	ldr	r0, [pc, #408]	; (8002f90 <HAL_RCC_OscConfig+0x304>)
 8002df6:	0212      	lsls	r2, r2, #8
 8002df8:	4001      	ands	r1, r0
 8002dfa:	430a      	orrs	r2, r1
        __HAL_RCC_HSI_CONFIG(hsi_state);
 8002dfc:	2109      	movs	r1, #9
        __HAL_RCC_HSI_CALIBRATIONVALUE_ADJUST(RCC_OscInitStruct->HSICalibrationValue);
 8002dfe:	6062      	str	r2, [r4, #4]
        __HAL_RCC_HSI_CONFIG(hsi_state);
 8002e00:	6822      	ldr	r2, [r4, #0]
 8002e02:	438a      	bics	r2, r1
 8002e04:	4313      	orrs	r3, r2
 8002e06:	6023      	str	r3, [r4, #0]
      SystemCoreClock = HAL_RCC_GetSysClockFreq() >> AHBPrescTable[(RCC->CFGR & RCC_CFGR_HPRE)>> RCC_CFGR_HPRE_Pos];
 8002e08:	f7ff ff00 	bl	8002c0c <HAL_RCC_GetSysClockFreq>
 8002e0c:	68e3      	ldr	r3, [r4, #12]
 8002e0e:	4a5c      	ldr	r2, [pc, #368]	; (8002f80 <HAL_RCC_OscConfig+0x2f4>)
 8002e10:	061b      	lsls	r3, r3, #24
 8002e12:	0f1b      	lsrs	r3, r3, #28
 8002e14:	5cd3      	ldrb	r3, [r2, r3]
 8002e16:	40d8      	lsrs	r0, r3
 8002e18:	4b5a      	ldr	r3, [pc, #360]	; (8002f84 <HAL_RCC_OscConfig+0x2f8>)
 8002e1a:	6018      	str	r0, [r3, #0]
      status = HAL_InitTick (TICK_INT_PRIORITY);
 8002e1c:	2000      	movs	r0, #0
 8002e1e:	f7ff fc4f 	bl	80026c0 <HAL_InitTick>
      if(status != HAL_OK)
 8002e22:	2800      	cmp	r0, #0
 8002e24:	d100      	bne.n	8002e28 <HAL_RCC_OscConfig+0x19c>
 8002e26:	e745      	b.n	8002cb4 <HAL_RCC_OscConfig+0x28>
 8002e28:	e7a5      	b.n	8002d76 <HAL_RCC_OscConfig+0xea>
      if(hsi_state != RCC_HSI_OFF)
 8002e2a:	2b00      	cmp	r3, #0
 8002e2c:	d019      	beq.n	8002e62 <HAL_RCC_OscConfig+0x1d6>
        __HAL_RCC_HSI_CONFIG(hsi_state);
 8002e2e:	2109      	movs	r1, #9
 8002e30:	6822      	ldr	r2, [r4, #0]
 8002e32:	438a      	bics	r2, r1
 8002e34:	4313      	orrs	r3, r2
 8002e36:	6023      	str	r3, [r4, #0]
        tickstart = HAL_GetTick();
 8002e38:	f7ff fc76 	bl	8002728 <HAL_GetTick>
 8002e3c:	0007      	movs	r7, r0
        while(__HAL_RCC_GET_FLAG(RCC_FLAG_HSIRDY) == 0U)
 8002e3e:	2204      	movs	r2, #4
 8002e40:	6823      	ldr	r3, [r4, #0]
 8002e42:	4213      	tst	r3, r2
 8002e44:	d007      	beq.n	8002e56 <HAL_RCC_OscConfig+0x1ca>
        __HAL_RCC_HSI_CALIBRATIONVALUE_ADJUST(RCC_OscInitStruct->HSICalibrationValue);
 8002e46:	6862      	ldr	r2, [r4, #4]
 8002e48:	692b      	ldr	r3, [r5, #16]
 8002e4a:	4951      	ldr	r1, [pc, #324]	; (8002f90 <HAL_RCC_OscConfig+0x304>)
 8002e4c:	021b      	lsls	r3, r3, #8
 8002e4e:	400a      	ands	r2, r1
 8002e50:	4313      	orrs	r3, r2
 8002e52:	6063      	str	r3, [r4, #4]
 8002e54:	e72e      	b.n	8002cb4 <HAL_RCC_OscConfig+0x28>
          if((HAL_GetTick() - tickstart ) > HSI_TIMEOUT_VALUE)
 8002e56:	f7ff fc67 	bl	8002728 <HAL_GetTick>
 8002e5a:	1bc0      	subs	r0, r0, r7
 8002e5c:	2802      	cmp	r0, #2
 8002e5e:	d9ee      	bls.n	8002e3e <HAL_RCC_OscConfig+0x1b2>
 8002e60:	e788      	b.n	8002d74 <HAL_RCC_OscConfig+0xe8>
        __HAL_RCC_HSI_DISABLE();
 8002e62:	2201      	movs	r2, #1
 8002e64:	6823      	ldr	r3, [r4, #0]
 8002e66:	4393      	bics	r3, r2
 8002e68:	6023      	str	r3, [r4, #0]
        tickstart = HAL_GetTick();
 8002e6a:	f7ff fc5d 	bl	8002728 <HAL_GetTick>
 8002e6e:	0007      	movs	r7, r0
        while(__HAL_RCC_GET_FLAG(RCC_FLAG_HSIRDY) != 0U)
 8002e70:	2204      	movs	r2, #4
 8002e72:	6823      	ldr	r3, [r4, #0]
 8002e74:	4213      	tst	r3, r2
 8002e76:	d100      	bne.n	8002e7a <HAL_RCC_OscConfig+0x1ee>
 8002e78:	e71c      	b.n	8002cb4 <HAL_RCC_OscConfig+0x28>
          if((HAL_GetTick() - tickstart ) > HSI_TIMEOUT_VALUE)
 8002e7a:	f7ff fc55 	bl	8002728 <HAL_GetTick>
 8002e7e:	1bc0      	subs	r0, r0, r7
 8002e80:	2802      	cmp	r0, #2
 8002e82:	d9f5      	bls.n	8002e70 <HAL_RCC_OscConfig+0x1e4>
 8002e84:	e776      	b.n	8002d74 <HAL_RCC_OscConfig+0xe8>
      if(RCC_OscInitStruct->MSIState != RCC_MSI_OFF)
 8002e86:	69eb      	ldr	r3, [r5, #28]
 8002e88:	2b00      	cmp	r3, #0
 8002e8a:	d020      	beq.n	8002ece <HAL_RCC_OscConfig+0x242>
        __HAL_RCC_MSI_ENABLE();
 8002e8c:	2380      	movs	r3, #128	; 0x80
 8002e8e:	6822      	ldr	r2, [r4, #0]
 8002e90:	005b      	lsls	r3, r3, #1
 8002e92:	4313      	orrs	r3, r2
 8002e94:	6023      	str	r3, [r4, #0]
        tickstart = HAL_GetTick();
 8002e96:	f7ff fc47 	bl	8002728 <HAL_GetTick>
 8002e9a:	0007      	movs	r7, r0
        while(__HAL_RCC_GET_FLAG(RCC_FLAG_MSIRDY) == 0U)
 8002e9c:	2280      	movs	r2, #128	; 0x80
 8002e9e:	6823      	ldr	r3, [r4, #0]
 8002ea0:	0092      	lsls	r2, r2, #2
 8002ea2:	4213      	tst	r3, r2
 8002ea4:	d00d      	beq.n	8002ec2 <HAL_RCC_OscConfig+0x236>
        __HAL_RCC_MSI_RANGE_CONFIG(RCC_OscInitStruct->MSIClockRange);
 8002ea6:	6863      	ldr	r3, [r4, #4]
 8002ea8:	4a34      	ldr	r2, [pc, #208]	; (8002f7c <HAL_RCC_OscConfig+0x2f0>)
 8002eaa:	4013      	ands	r3, r2
 8002eac:	6a6a      	ldr	r2, [r5, #36]	; 0x24
 8002eae:	4313      	orrs	r3, r2
 8002eb0:	6063      	str	r3, [r4, #4]
        __HAL_RCC_MSI_CALIBRATIONVALUE_ADJUST(RCC_OscInitStruct->MSICalibrationValue);
 8002eb2:	6862      	ldr	r2, [r4, #4]
 8002eb4:	6a2b      	ldr	r3, [r5, #32]
 8002eb6:	0212      	lsls	r2, r2, #8
 8002eb8:	061b      	lsls	r3, r3, #24
 8002eba:	0a12      	lsrs	r2, r2, #8
 8002ebc:	4313      	orrs	r3, r2
 8002ebe:	6063      	str	r3, [r4, #4]
 8002ec0:	e724      	b.n	8002d0c <HAL_RCC_OscConfig+0x80>
          if((HAL_GetTick() - tickstart) > MSI_TIMEOUT_VALUE)
 8002ec2:	f7ff fc31 	bl	8002728 <HAL_GetTick>
 8002ec6:	1bc0      	subs	r0, r0, r7
 8002ec8:	2802      	cmp	r0, #2
 8002eca:	d9e7      	bls.n	8002e9c <HAL_RCC_OscConfig+0x210>
 8002ecc:	e752      	b.n	8002d74 <HAL_RCC_OscConfig+0xe8>
        __HAL_RCC_MSI_DISABLE();
 8002ece:	6823      	ldr	r3, [r4, #0]
 8002ed0:	4a30      	ldr	r2, [pc, #192]	; (8002f94 <HAL_RCC_OscConfig+0x308>)
 8002ed2:	4013      	ands	r3, r2
 8002ed4:	6023      	str	r3, [r4, #0]
        tickstart = HAL_GetTick();
 8002ed6:	f7ff fc27 	bl	8002728 <HAL_GetTick>
 8002eda:	0007      	movs	r7, r0
        while(__HAL_RCC_GET_FLAG(RCC_FLAG_MSIRDY) != 0U)
 8002edc:	2280      	movs	r2, #128	; 0x80
 8002ede:	6823      	ldr	r3, [r4, #0]
 8002ee0:	0092      	lsls	r2, r2, #2
 8002ee2:	4213      	tst	r3, r2
 8002ee4:	d100      	bne.n	8002ee8 <HAL_RCC_OscConfig+0x25c>
 8002ee6:	e711      	b.n	8002d0c <HAL_RCC_OscConfig+0x80>
          if((HAL_GetTick() - tickstart) > MSI_TIMEOUT_VALUE)
 8002ee8:	f7ff fc1e 	bl	8002728 <HAL_GetTick>
 8002eec:	1bc0      	subs	r0, r0, r7
 8002eee:	2802      	cmp	r0, #2
 8002ef0:	d9f4      	bls.n	8002edc <HAL_RCC_OscConfig+0x250>
 8002ef2:	e73f      	b.n	8002d74 <HAL_RCC_OscConfig+0xe8>
    if(RCC_OscInitStruct->LSIState != RCC_LSI_OFF)
 8002ef4:	696a      	ldr	r2, [r5, #20]
 8002ef6:	2301      	movs	r3, #1
 8002ef8:	2a00      	cmp	r2, #0
 8002efa:	d010      	beq.n	8002f1e <HAL_RCC_OscConfig+0x292>
      __HAL_RCC_LSI_ENABLE();
 8002efc:	6d22      	ldr	r2, [r4, #80]	; 0x50
 8002efe:	4313      	orrs	r3, r2
 8002f00:	6523      	str	r3, [r4, #80]	; 0x50
      tickstart = HAL_GetTick();
 8002f02:	f7ff fc11 	bl	8002728 <HAL_GetTick>
 8002f06:	0007      	movs	r7, r0
      while(__HAL_RCC_GET_FLAG(RCC_FLAG_LSIRDY) == 0U)
 8002f08:	2202      	movs	r2, #2
 8002f0a:	6d23      	ldr	r3, [r4, #80]	; 0x50
 8002f0c:	4213      	tst	r3, r2
 8002f0e:	d000      	beq.n	8002f12 <HAL_RCC_OscConfig+0x286>
 8002f10:	e700      	b.n	8002d14 <HAL_RCC_OscConfig+0x88>
        if((HAL_GetTick() - tickstart ) > LSI_TIMEOUT_VALUE)
 8002f12:	f7ff fc09 	bl	8002728 <HAL_GetTick>
 8002f16:	1bc0      	subs	r0, r0, r7
 8002f18:	2802      	cmp	r0, #2
 8002f1a:	d9f5      	bls.n	8002f08 <HAL_RCC_OscConfig+0x27c>
 8002f1c:	e72a      	b.n	8002d74 <HAL_RCC_OscConfig+0xe8>
      __HAL_RCC_LSI_DISABLE();
 8002f1e:	6d22      	ldr	r2, [r4, #80]	; 0x50
 8002f20:	439a      	bics	r2, r3
 8002f22:	6522      	str	r2, [r4, #80]	; 0x50
      tickstart = HAL_GetTick();
 8002f24:	f7ff fc00 	bl	8002728 <HAL_GetTick>
 8002f28:	0007      	movs	r7, r0
      while(__HAL_RCC_GET_FLAG(RCC_FLAG_LSIRDY) != 0U)
 8002f2a:	2202      	movs	r2, #2
 8002f2c:	6d23      	ldr	r3, [r4, #80]	; 0x50
 8002f2e:	4213      	tst	r3, r2
 8002f30:	d100      	bne.n	8002f34 <HAL_RCC_OscConfig+0x2a8>
 8002f32:	e6ef      	b.n	8002d14 <HAL_RCC_OscConfig+0x88>
        if((HAL_GetTick() - tickstart ) > LSI_TIMEOUT_VALUE)
 8002f34:	f7ff fbf8 	bl	8002728 <HAL_GetTick>
 8002f38:	1bc0      	subs	r0, r0, r7
 8002f3a:	2802      	cmp	r0, #2
 8002f3c:	d9f5      	bls.n	8002f2a <HAL_RCC_OscConfig+0x29e>
 8002f3e:	e719      	b.n	8002d74 <HAL_RCC_OscConfig+0xe8>
    if(__HAL_RCC_PWR_IS_CLK_DISABLED())
 8002f40:	2380      	movs	r3, #128	; 0x80
    FlagStatus       pwrclkchanged = RESET;
 8002f42:	2100      	movs	r1, #0
    if(__HAL_RCC_PWR_IS_CLK_DISABLED())
 8002f44:	6ba2      	ldr	r2, [r4, #56]	; 0x38
 8002f46:	055b      	lsls	r3, r3, #21
    FlagStatus       pwrclkchanged = RESET;
 8002f48:	9101      	str	r1, [sp, #4]
    if(__HAL_RCC_PWR_IS_CLK_DISABLED())
 8002f4a:	421a      	tst	r2, r3
 8002f4c:	d104      	bne.n	8002f58 <HAL_RCC_OscConfig+0x2cc>
      __HAL_RCC_PWR_CLK_ENABLE();
 8002f4e:	6ba2      	ldr	r2, [r4, #56]	; 0x38
 8002f50:	4313      	orrs	r3, r2
 8002f52:	63a3      	str	r3, [r4, #56]	; 0x38
      pwrclkchanged = SET;
 8002f54:	2301      	movs	r3, #1
 8002f56:	9301      	str	r3, [sp, #4]
    if(HAL_IS_BIT_CLR(PWR->CR, PWR_CR_DBP))
 8002f58:	2280      	movs	r2, #128	; 0x80
 8002f5a:	4f0f      	ldr	r7, [pc, #60]	; (8002f98 <HAL_RCC_OscConfig+0x30c>)
 8002f5c:	0052      	lsls	r2, r2, #1
 8002f5e:	683b      	ldr	r3, [r7, #0]
 8002f60:	4213      	tst	r3, r2
 8002f62:	d01b      	beq.n	8002f9c <HAL_RCC_OscConfig+0x310>
    __HAL_RCC_LSE_CONFIG(RCC_OscInitStruct->LSEState);
 8002f64:	2280      	movs	r2, #128	; 0x80
 8002f66:	68ab      	ldr	r3, [r5, #8]
 8002f68:	0052      	lsls	r2, r2, #1
 8002f6a:	4293      	cmp	r3, r2
 8002f6c:	d12c      	bne.n	8002fc8 <HAL_RCC_OscConfig+0x33c>
 8002f6e:	6d22      	ldr	r2, [r4, #80]	; 0x50
 8002f70:	4313      	orrs	r3, r2
 8002f72:	6523      	str	r3, [r4, #80]	; 0x50
 8002f74:	e04d      	b.n	8003012 <HAL_RCC_OscConfig+0x386>
 8002f76:	46c0      	nop			; (mov r8, r8)
 8002f78:	40021000 	.word	0x40021000
 8002f7c:	ffff1fff 	.word	0xffff1fff
 8002f80:	08005795 	.word	0x08005795
 8002f84:	20000000 	.word	0x20000000
 8002f88:	fffeffff 	.word	0xfffeffff
 8002f8c:	fffbffff 	.word	0xfffbffff
 8002f90:	ffffe0ff 	.word	0xffffe0ff
 8002f94:	fffffeff 	.word	0xfffffeff
 8002f98:	40007000 	.word	0x40007000
      SET_BIT(PWR->CR, PWR_CR_DBP);
 8002f9c:	2280      	movs	r2, #128	; 0x80
 8002f9e:	683b      	ldr	r3, [r7, #0]
 8002fa0:	0052      	lsls	r2, r2, #1
 8002fa2:	4313      	orrs	r3, r2
 8002fa4:	603b      	str	r3, [r7, #0]
      tickstart = HAL_GetTick();
 8002fa6:	f7ff fbbf 	bl	8002728 <HAL_GetTick>
      while(HAL_IS_BIT_CLR(PWR->CR, PWR_CR_DBP))
 8002faa:	2380      	movs	r3, #128	; 0x80
 8002fac:	005b      	lsls	r3, r3, #1
      tickstart = HAL_GetTick();
 8002fae:	9002      	str	r0, [sp, #8]
      while(HAL_IS_BIT_CLR(PWR->CR, PWR_CR_DBP))
 8002fb0:	9303      	str	r3, [sp, #12]
 8002fb2:	683b      	ldr	r3, [r7, #0]
 8002fb4:	9a03      	ldr	r2, [sp, #12]
 8002fb6:	4213      	tst	r3, r2
 8002fb8:	d1d4      	bne.n	8002f64 <HAL_RCC_OscConfig+0x2d8>
        if((HAL_GetTick() - tickstart) > RCC_DBP_TIMEOUT_VALUE)
 8002fba:	f7ff fbb5 	bl	8002728 <HAL_GetTick>
 8002fbe:	9b02      	ldr	r3, [sp, #8]
 8002fc0:	1ac0      	subs	r0, r0, r3
 8002fc2:	2864      	cmp	r0, #100	; 0x64
 8002fc4:	d9f5      	bls.n	8002fb2 <HAL_RCC_OscConfig+0x326>
 8002fc6:	e6d5      	b.n	8002d74 <HAL_RCC_OscConfig+0xe8>
    __HAL_RCC_LSE_CONFIG(RCC_OscInitStruct->LSEState);
 8002fc8:	2b00      	cmp	r3, #0
 8002fca:	d116      	bne.n	8002ffa <HAL_RCC_OscConfig+0x36e>
 8002fcc:	6d23      	ldr	r3, [r4, #80]	; 0x50
 8002fce:	4a6b      	ldr	r2, [pc, #428]	; (800317c <HAL_RCC_OscConfig+0x4f0>)
 8002fd0:	4013      	ands	r3, r2
 8002fd2:	6523      	str	r3, [r4, #80]	; 0x50
 8002fd4:	6d23      	ldr	r3, [r4, #80]	; 0x50
 8002fd6:	4a6a      	ldr	r2, [pc, #424]	; (8003180 <HAL_RCC_OscConfig+0x4f4>)
 8002fd8:	4013      	ands	r3, r2
 8002fda:	6523      	str	r3, [r4, #80]	; 0x50
      tickstart = HAL_GetTick();
 8002fdc:	f7ff fba4 	bl	8002728 <HAL_GetTick>
 8002fe0:	0007      	movs	r7, r0
      while(__HAL_RCC_GET_FLAG(RCC_FLAG_LSERDY) != 0U)
 8002fe2:	2280      	movs	r2, #128	; 0x80
 8002fe4:	6d23      	ldr	r3, [r4, #80]	; 0x50
 8002fe6:	0092      	lsls	r2, r2, #2
 8002fe8:	4213      	tst	r3, r2
 8002fea:	d01a      	beq.n	8003022 <HAL_RCC_OscConfig+0x396>
        if((HAL_GetTick() - tickstart ) > RCC_LSE_TIMEOUT_VALUE)
 8002fec:	f7ff fb9c 	bl	8002728 <HAL_GetTick>
 8002ff0:	4b64      	ldr	r3, [pc, #400]	; (8003184 <HAL_RCC_OscConfig+0x4f8>)
 8002ff2:	1bc0      	subs	r0, r0, r7
 8002ff4:	4298      	cmp	r0, r3
 8002ff6:	d9f4      	bls.n	8002fe2 <HAL_RCC_OscConfig+0x356>
 8002ff8:	e6bc      	b.n	8002d74 <HAL_RCC_OscConfig+0xe8>
    __HAL_RCC_LSE_CONFIG(RCC_OscInitStruct->LSEState);
 8002ffa:	21a0      	movs	r1, #160	; 0xa0
 8002ffc:	00c9      	lsls	r1, r1, #3
 8002ffe:	428b      	cmp	r3, r1
 8003000:	d118      	bne.n	8003034 <HAL_RCC_OscConfig+0x3a8>
 8003002:	2380      	movs	r3, #128	; 0x80
 8003004:	6d21      	ldr	r1, [r4, #80]	; 0x50
 8003006:	00db      	lsls	r3, r3, #3
 8003008:	430b      	orrs	r3, r1
 800300a:	6523      	str	r3, [r4, #80]	; 0x50
 800300c:	6d23      	ldr	r3, [r4, #80]	; 0x50
 800300e:	431a      	orrs	r2, r3
 8003010:	6522      	str	r2, [r4, #80]	; 0x50
      tickstart = HAL_GetTick();
 8003012:	f7ff fb89 	bl	8002728 <HAL_GetTick>
 8003016:	0007      	movs	r7, r0
      while(__HAL_RCC_GET_FLAG(RCC_FLAG_LSERDY) == 0U)
 8003018:	2280      	movs	r2, #128	; 0x80
 800301a:	6d23      	ldr	r3, [r4, #80]	; 0x50
 800301c:	0092      	lsls	r2, r2, #2
 800301e:	4213      	tst	r3, r2
 8003020:	d010      	beq.n	8003044 <HAL_RCC_OscConfig+0x3b8>
    if(pwrclkchanged == SET)
 8003022:	9b01      	ldr	r3, [sp, #4]
 8003024:	2b01      	cmp	r3, #1
 8003026:	d000      	beq.n	800302a <HAL_RCC_OscConfig+0x39e>
 8003028:	e678      	b.n	8002d1c <HAL_RCC_OscConfig+0x90>
      __HAL_RCC_PWR_CLK_DISABLE();
 800302a:	6ba3      	ldr	r3, [r4, #56]	; 0x38
 800302c:	4a56      	ldr	r2, [pc, #344]	; (8003188 <HAL_RCC_OscConfig+0x4fc>)
 800302e:	4013      	ands	r3, r2
 8003030:	63a3      	str	r3, [r4, #56]	; 0x38
 8003032:	e673      	b.n	8002d1c <HAL_RCC_OscConfig+0x90>
    __HAL_RCC_LSE_CONFIG(RCC_OscInitStruct->LSEState);
 8003034:	6d23      	ldr	r3, [r4, #80]	; 0x50
 8003036:	4a51      	ldr	r2, [pc, #324]	; (800317c <HAL_RCC_OscConfig+0x4f0>)
 8003038:	4013      	ands	r3, r2
 800303a:	6523      	str	r3, [r4, #80]	; 0x50
 800303c:	6d23      	ldr	r3, [r4, #80]	; 0x50
 800303e:	4a50      	ldr	r2, [pc, #320]	; (8003180 <HAL_RCC_OscConfig+0x4f4>)
 8003040:	4013      	ands	r3, r2
 8003042:	e796      	b.n	8002f72 <HAL_RCC_OscConfig+0x2e6>
        if((HAL_GetTick() - tickstart ) > RCC_LSE_TIMEOUT_VALUE)
 8003044:	f7ff fb70 	bl	8002728 <HAL_GetTick>
 8003048:	4b4e      	ldr	r3, [pc, #312]	; (8003184 <HAL_RCC_OscConfig+0x4f8>)
 800304a:	1bc0      	subs	r0, r0, r7
 800304c:	4298      	cmp	r0, r3
 800304e:	d9e3      	bls.n	8003018 <HAL_RCC_OscConfig+0x38c>
 8003050:	e690      	b.n	8002d74 <HAL_RCC_OscConfig+0xe8>
      if(RCC_OscInitStruct->HSI48State != RCC_HSI48_OFF)
 8003052:	69a9      	ldr	r1, [r5, #24]
 8003054:	2301      	movs	r3, #1
 8003056:	4a4d      	ldr	r2, [pc, #308]	; (800318c <HAL_RCC_OscConfig+0x500>)
 8003058:	2900      	cmp	r1, #0
 800305a:	d018      	beq.n	800308e <HAL_RCC_OscConfig+0x402>
        __HAL_RCC_HSI48_ENABLE();
 800305c:	68a1      	ldr	r1, [r4, #8]
 800305e:	4319      	orrs	r1, r3
 8003060:	60a1      	str	r1, [r4, #8]
 8003062:	6b61      	ldr	r1, [r4, #52]	; 0x34
 8003064:	430b      	orrs	r3, r1
 8003066:	6363      	str	r3, [r4, #52]	; 0x34
 8003068:	2380      	movs	r3, #128	; 0x80
 800306a:	6a11      	ldr	r1, [r2, #32]
 800306c:	019b      	lsls	r3, r3, #6
 800306e:	430b      	orrs	r3, r1
 8003070:	6213      	str	r3, [r2, #32]
        tickstart = HAL_GetTick();
 8003072:	f7ff fb59 	bl	8002728 <HAL_GetTick>
 8003076:	0007      	movs	r7, r0
        while(__HAL_RCC_GET_FLAG(RCC_FLAG_HSI48RDY) == 0U)
 8003078:	2202      	movs	r2, #2
 800307a:	68a3      	ldr	r3, [r4, #8]
 800307c:	4213      	tst	r3, r2
 800307e:	d000      	beq.n	8003082 <HAL_RCC_OscConfig+0x3f6>
 8003080:	e650      	b.n	8002d24 <HAL_RCC_OscConfig+0x98>
          if((HAL_GetTick() - tickstart) > HSI48_TIMEOUT_VALUE)
 8003082:	f7ff fb51 	bl	8002728 <HAL_GetTick>
 8003086:	1bc0      	subs	r0, r0, r7
 8003088:	2802      	cmp	r0, #2
 800308a:	d9f5      	bls.n	8003078 <HAL_RCC_OscConfig+0x3ec>
 800308c:	e672      	b.n	8002d74 <HAL_RCC_OscConfig+0xe8>
        __HAL_RCC_HSI48_DISABLE();
 800308e:	68a1      	ldr	r1, [r4, #8]
 8003090:	4399      	bics	r1, r3
 8003092:	60a1      	str	r1, [r4, #8]
 8003094:	6a13      	ldr	r3, [r2, #32]
 8003096:	493e      	ldr	r1, [pc, #248]	; (8003190 <HAL_RCC_OscConfig+0x504>)
 8003098:	400b      	ands	r3, r1
 800309a:	6213      	str	r3, [r2, #32]
        tickstart = HAL_GetTick();
 800309c:	f7ff fb44 	bl	8002728 <HAL_GetTick>
 80030a0:	0007      	movs	r7, r0
        while(__HAL_RCC_GET_FLAG(RCC_FLAG_HSI48RDY) != 0U)
 80030a2:	2202      	movs	r2, #2
 80030a4:	68a3      	ldr	r3, [r4, #8]
 80030a6:	4213      	tst	r3, r2
 80030a8:	d100      	bne.n	80030ac <HAL_RCC_OscConfig+0x420>
 80030aa:	e63b      	b.n	8002d24 <HAL_RCC_OscConfig+0x98>
          if((HAL_GetTick() - tickstart) > HSI48_TIMEOUT_VALUE)
 80030ac:	f7ff fb3c 	bl	8002728 <HAL_GetTick>
 80030b0:	1bc0      	subs	r0, r0, r7
 80030b2:	2802      	cmp	r0, #2
 80030b4:	d9f5      	bls.n	80030a2 <HAL_RCC_OscConfig+0x416>
 80030b6:	e65d      	b.n	8002d74 <HAL_RCC_OscConfig+0xe8>
    if(sysclk_source != RCC_SYSCLKSOURCE_STATUS_PLLCLK)
 80030b8:	2e0c      	cmp	r6, #12
 80030ba:	d043      	beq.n	8003144 <HAL_RCC_OscConfig+0x4b8>
      if((RCC_OscInitStruct->PLL.PLLState) == RCC_PLL_ON)
 80030bc:	4a35      	ldr	r2, [pc, #212]	; (8003194 <HAL_RCC_OscConfig+0x508>)
 80030be:	2b02      	cmp	r3, #2
 80030c0:	d12e      	bne.n	8003120 <HAL_RCC_OscConfig+0x494>
        __HAL_RCC_PLL_DISABLE();
 80030c2:	6823      	ldr	r3, [r4, #0]
        while(__HAL_RCC_GET_FLAG(RCC_FLAG_PLLRDY)  != 0U)
 80030c4:	2780      	movs	r7, #128	; 0x80
        __HAL_RCC_PLL_DISABLE();
 80030c6:	4013      	ands	r3, r2
 80030c8:	6023      	str	r3, [r4, #0]
        tickstart = HAL_GetTick();
 80030ca:	f7ff fb2d 	bl	8002728 <HAL_GetTick>
 80030ce:	0006      	movs	r6, r0
        while(__HAL_RCC_GET_FLAG(RCC_FLAG_PLLRDY)  != 0U)
 80030d0:	04bf      	lsls	r7, r7, #18
 80030d2:	6823      	ldr	r3, [r4, #0]
 80030d4:	423b      	tst	r3, r7
 80030d6:	d11d      	bne.n	8003114 <HAL_RCC_OscConfig+0x488>
        __HAL_RCC_PLL_CONFIG(RCC_OscInitStruct->PLL.PLLSource,
 80030d8:	6b29      	ldr	r1, [r5, #48]	; 0x30
 80030da:	6aeb      	ldr	r3, [r5, #44]	; 0x2c
 80030dc:	68e2      	ldr	r2, [r4, #12]
 80030de:	430b      	orrs	r3, r1
 80030e0:	492d      	ldr	r1, [pc, #180]	; (8003198 <HAL_RCC_OscConfig+0x50c>)
        while(__HAL_RCC_GET_FLAG(RCC_FLAG_PLLRDY)  == 0U)
 80030e2:	2680      	movs	r6, #128	; 0x80
        __HAL_RCC_PLL_CONFIG(RCC_OscInitStruct->PLL.PLLSource,
 80030e4:	400a      	ands	r2, r1
 80030e6:	4313      	orrs	r3, r2
 80030e8:	6b6a      	ldr	r2, [r5, #52]	; 0x34
        while(__HAL_RCC_GET_FLAG(RCC_FLAG_PLLRDY)  == 0U)
 80030ea:	04b6      	lsls	r6, r6, #18
        __HAL_RCC_PLL_CONFIG(RCC_OscInitStruct->PLL.PLLSource,
 80030ec:	4313      	orrs	r3, r2
 80030ee:	60e3      	str	r3, [r4, #12]
        __HAL_RCC_PLL_ENABLE();
 80030f0:	2380      	movs	r3, #128	; 0x80
 80030f2:	6822      	ldr	r2, [r4, #0]
 80030f4:	045b      	lsls	r3, r3, #17
 80030f6:	4313      	orrs	r3, r2
 80030f8:	6023      	str	r3, [r4, #0]
        tickstart = HAL_GetTick();
 80030fa:	f7ff fb15 	bl	8002728 <HAL_GetTick>
 80030fe:	0005      	movs	r5, r0
        while(__HAL_RCC_GET_FLAG(RCC_FLAG_PLLRDY)  == 0U)
 8003100:	6823      	ldr	r3, [r4, #0]
 8003102:	4233      	tst	r3, r6
 8003104:	d000      	beq.n	8003108 <HAL_RCC_OscConfig+0x47c>
 8003106:	e611      	b.n	8002d2c <HAL_RCC_OscConfig+0xa0>
          if((HAL_GetTick() - tickstart ) > PLL_TIMEOUT_VALUE)
 8003108:	f7ff fb0e 	bl	8002728 <HAL_GetTick>
 800310c:	1b40      	subs	r0, r0, r5
 800310e:	2802      	cmp	r0, #2
 8003110:	d9f6      	bls.n	8003100 <HAL_RCC_OscConfig+0x474>
 8003112:	e62f      	b.n	8002d74 <HAL_RCC_OscConfig+0xe8>
          if((HAL_GetTick() - tickstart ) > PLL_TIMEOUT_VALUE)
 8003114:	f7ff fb08 	bl	8002728 <HAL_GetTick>
 8003118:	1b80      	subs	r0, r0, r6
 800311a:	2802      	cmp	r0, #2
 800311c:	d9d9      	bls.n	80030d2 <HAL_RCC_OscConfig+0x446>
 800311e:	e629      	b.n	8002d74 <HAL_RCC_OscConfig+0xe8>
        __HAL_RCC_PLL_DISABLE();
 8003120:	6823      	ldr	r3, [r4, #0]
        while(__HAL_RCC_GET_FLAG(RCC_FLAG_PLLRDY)  != 0U)
 8003122:	2680      	movs	r6, #128	; 0x80
        __HAL_RCC_PLL_DISABLE();
 8003124:	4013      	ands	r3, r2
 8003126:	6023      	str	r3, [r4, #0]
        tickstart = HAL_GetTick();
 8003128:	f7ff fafe 	bl	8002728 <HAL_GetTick>
 800312c:	0005      	movs	r5, r0
        while(__HAL_RCC_GET_FLAG(RCC_FLAG_PLLRDY)  != 0U)
 800312e:	04b6      	lsls	r6, r6, #18
 8003130:	6823      	ldr	r3, [r4, #0]
 8003132:	4233      	tst	r3, r6
 8003134:	d100      	bne.n	8003138 <HAL_RCC_OscConfig+0x4ac>
 8003136:	e5f9      	b.n	8002d2c <HAL_RCC_OscConfig+0xa0>
          if((HAL_GetTick() - tickstart ) > PLL_TIMEOUT_VALUE)
 8003138:	f7ff faf6 	bl	8002728 <HAL_GetTick>
 800313c:	1b40      	subs	r0, r0, r5
 800313e:	2802      	cmp	r0, #2
 8003140:	d9f6      	bls.n	8003130 <HAL_RCC_OscConfig+0x4a4>
 8003142:	e617      	b.n	8002d74 <HAL_RCC_OscConfig+0xe8>
        return HAL_ERROR;
 8003144:	0018      	movs	r0, r3
      if((RCC_OscInitStruct->PLL.PLLState) == RCC_PLL_OFF)
 8003146:	2b01      	cmp	r3, #1
 8003148:	d100      	bne.n	800314c <HAL_RCC_OscConfig+0x4c0>
 800314a:	e614      	b.n	8002d76 <HAL_RCC_OscConfig+0xea>
        if((READ_BIT(pll_config, RCC_CFGR_PLLSRC) != RCC_OscInitStruct->PLL.PLLSource) ||
 800314c:	2280      	movs	r2, #128	; 0x80
        pll_config = RCC->CFGR;
 800314e:	68e3      	ldr	r3, [r4, #12]
        if((READ_BIT(pll_config, RCC_CFGR_PLLSRC) != RCC_OscInitStruct->PLL.PLLSource) ||
 8003150:	6ae9      	ldr	r1, [r5, #44]	; 0x2c
 8003152:	0252      	lsls	r2, r2, #9
 8003154:	401a      	ands	r2, r3
 8003156:	428a      	cmp	r2, r1
 8003158:	d000      	beq.n	800315c <HAL_RCC_OscConfig+0x4d0>
 800315a:	e5f5      	b.n	8002d48 <HAL_RCC_OscConfig+0xbc>
           (READ_BIT(pll_config, RCC_CFGR_PLLMUL) != RCC_OscInitStruct->PLL.PLLMUL) ||
 800315c:	22f0      	movs	r2, #240	; 0xf0
        if((READ_BIT(pll_config, RCC_CFGR_PLLSRC) != RCC_OscInitStruct->PLL.PLLSource) ||
 800315e:	6b29      	ldr	r1, [r5, #48]	; 0x30
           (READ_BIT(pll_config, RCC_CFGR_PLLMUL) != RCC_OscInitStruct->PLL.PLLMUL) ||
 8003160:	0392      	lsls	r2, r2, #14
 8003162:	401a      	ands	r2, r3
        if((READ_BIT(pll_config, RCC_CFGR_PLLSRC) != RCC_OscInitStruct->PLL.PLLSource) ||
 8003164:	428a      	cmp	r2, r1
 8003166:	d000      	beq.n	800316a <HAL_RCC_OscConfig+0x4de>
 8003168:	e5ee      	b.n	8002d48 <HAL_RCC_OscConfig+0xbc>
           (READ_BIT(pll_config, RCC_CFGR_PLLDIV) != RCC_OscInitStruct->PLL.PLLDIV))
 800316a:	22c0      	movs	r2, #192	; 0xc0
 800316c:	0412      	lsls	r2, r2, #16
 800316e:	4013      	ands	r3, r2
           (READ_BIT(pll_config, RCC_CFGR_PLLMUL) != RCC_OscInitStruct->PLL.PLLMUL) ||
 8003170:	6b6a      	ldr	r2, [r5, #52]	; 0x34
 8003172:	4293      	cmp	r3, r2
 8003174:	d100      	bne.n	8003178 <HAL_RCC_OscConfig+0x4ec>
 8003176:	e5d9      	b.n	8002d2c <HAL_RCC_OscConfig+0xa0>
 8003178:	e5e6      	b.n	8002d48 <HAL_RCC_OscConfig+0xbc>
 800317a:	46c0      	nop			; (mov r8, r8)
 800317c:	fffffeff 	.word	0xfffffeff
 8003180:	fffffbff 	.word	0xfffffbff
 8003184:	00001388 	.word	0x00001388
 8003188:	efffffff 	.word	0xefffffff
 800318c:	40010000 	.word	0x40010000
 8003190:	ffffdfff 	.word	0xffffdfff
 8003194:	feffffff 	.word	0xfeffffff
 8003198:	ff02ffff 	.word	0xff02ffff

0800319c <HAL_RCC_ClockConfig>:
{
 800319c:	b5f7      	push	{r0, r1, r2, r4, r5, r6, r7, lr}
 800319e:	1e04      	subs	r4, r0, #0
 80031a0:	9101      	str	r1, [sp, #4]
  if(RCC_ClkInitStruct == NULL)
 80031a2:	d101      	bne.n	80031a8 <HAL_RCC_ClockConfig+0xc>
    return HAL_ERROR;
 80031a4:	2001      	movs	r0, #1
}
 80031a6:	bdfe      	pop	{r1, r2, r3, r4, r5, r6, r7, pc}
  if(FLatency > __HAL_FLASH_GET_LATENCY())
 80031a8:	2201      	movs	r2, #1
 80031aa:	4d51      	ldr	r5, [pc, #324]	; (80032f0 <HAL_RCC_ClockConfig+0x154>)
 80031ac:	9901      	ldr	r1, [sp, #4]
 80031ae:	682b      	ldr	r3, [r5, #0]
 80031b0:	4013      	ands	r3, r2
 80031b2:	428b      	cmp	r3, r1
 80031b4:	d327      	bcc.n	8003206 <HAL_RCC_ClockConfig+0x6a>
  if(((RCC_ClkInitStruct->ClockType) & RCC_CLOCKTYPE_HCLK) == RCC_CLOCKTYPE_HCLK)
 80031b6:	6822      	ldr	r2, [r4, #0]
 80031b8:	0793      	lsls	r3, r2, #30
 80031ba:	d42f      	bmi.n	800321c <HAL_RCC_ClockConfig+0x80>
  if(((RCC_ClkInitStruct->ClockType) & RCC_CLOCKTYPE_SYSCLK) == RCC_CLOCKTYPE_SYSCLK)
 80031bc:	07d3      	lsls	r3, r2, #31
 80031be:	d435      	bmi.n	800322c <HAL_RCC_ClockConfig+0x90>
  if(FLatency < __HAL_FLASH_GET_LATENCY())
 80031c0:	2301      	movs	r3, #1
 80031c2:	682a      	ldr	r2, [r5, #0]
 80031c4:	9901      	ldr	r1, [sp, #4]
 80031c6:	401a      	ands	r2, r3
 80031c8:	428a      	cmp	r2, r1
 80031ca:	d900      	bls.n	80031ce <HAL_RCC_ClockConfig+0x32>
 80031cc:	e081      	b.n	80032d2 <HAL_RCC_ClockConfig+0x136>
  if(((RCC_ClkInitStruct->ClockType) & RCC_CLOCKTYPE_PCLK1) == RCC_CLOCKTYPE_PCLK1)
 80031ce:	6822      	ldr	r2, [r4, #0]
 80031d0:	4d48      	ldr	r5, [pc, #288]	; (80032f4 <HAL_RCC_ClockConfig+0x158>)
 80031d2:	0753      	lsls	r3, r2, #29
 80031d4:	d500      	bpl.n	80031d8 <HAL_RCC_ClockConfig+0x3c>
 80031d6:	e084      	b.n	80032e2 <HAL_RCC_ClockConfig+0x146>
  if(((RCC_ClkInitStruct->ClockType) & RCC_CLOCKTYPE_PCLK2) == RCC_CLOCKTYPE_PCLK2)
 80031d8:	0713      	lsls	r3, r2, #28
 80031da:	d506      	bpl.n	80031ea <HAL_RCC_ClockConfig+0x4e>
    MODIFY_REG(RCC->CFGR, RCC_CFGR_PPRE2, ((RCC_ClkInitStruct->APB2CLKDivider) << 3));
 80031dc:	68ea      	ldr	r2, [r5, #12]
 80031de:	6923      	ldr	r3, [r4, #16]
 80031e0:	4945      	ldr	r1, [pc, #276]	; (80032f8 <HAL_RCC_ClockConfig+0x15c>)
 80031e2:	00db      	lsls	r3, r3, #3
 80031e4:	400a      	ands	r2, r1
 80031e6:	4313      	orrs	r3, r2
 80031e8:	60eb      	str	r3, [r5, #12]
  SystemCoreClock = HAL_RCC_GetSysClockFreq() >> AHBPrescTable[(RCC->CFGR & RCC_CFGR_HPRE)>> RCC_CFGR_HPRE_Pos];
 80031ea:	f7ff fd0f 	bl	8002c0c <HAL_RCC_GetSysClockFreq>
 80031ee:	68eb      	ldr	r3, [r5, #12]
 80031f0:	4a42      	ldr	r2, [pc, #264]	; (80032fc <HAL_RCC_ClockConfig+0x160>)
 80031f2:	061b      	lsls	r3, r3, #24
 80031f4:	0f1b      	lsrs	r3, r3, #28
 80031f6:	5cd3      	ldrb	r3, [r2, r3]
 80031f8:	40d8      	lsrs	r0, r3
 80031fa:	4b41      	ldr	r3, [pc, #260]	; (8003300 <HAL_RCC_ClockConfig+0x164>)
 80031fc:	6018      	str	r0, [r3, #0]
  status = HAL_InitTick(TICK_INT_PRIORITY);
 80031fe:	2000      	movs	r0, #0
 8003200:	f7ff fa5e 	bl	80026c0 <HAL_InitTick>
  if(status != HAL_OK)
 8003204:	e7cf      	b.n	80031a6 <HAL_RCC_ClockConfig+0xa>
    __HAL_FLASH_SET_LATENCY(FLatency);
 8003206:	682b      	ldr	r3, [r5, #0]
 8003208:	9901      	ldr	r1, [sp, #4]
 800320a:	4393      	bics	r3, r2
 800320c:	430b      	orrs	r3, r1
 800320e:	602b      	str	r3, [r5, #0]
    if(__HAL_FLASH_GET_LATENCY() != FLatency)
 8003210:	682b      	ldr	r3, [r5, #0]
 8003212:	4013      	ands	r3, r2
 8003214:	9a01      	ldr	r2, [sp, #4]
 8003216:	4293      	cmp	r3, r2
 8003218:	d1c4      	bne.n	80031a4 <HAL_RCC_ClockConfig+0x8>
 800321a:	e7cc      	b.n	80031b6 <HAL_RCC_ClockConfig+0x1a>
    MODIFY_REG(RCC->CFGR, RCC_CFGR_HPRE, RCC_ClkInitStruct->AHBCLKDivider);
 800321c:	20f0      	movs	r0, #240	; 0xf0
 800321e:	4935      	ldr	r1, [pc, #212]	; (80032f4 <HAL_RCC_ClockConfig+0x158>)
 8003220:	68cb      	ldr	r3, [r1, #12]
 8003222:	4383      	bics	r3, r0
 8003224:	68a0      	ldr	r0, [r4, #8]
 8003226:	4303      	orrs	r3, r0
 8003228:	60cb      	str	r3, [r1, #12]
 800322a:	e7c7      	b.n	80031bc <HAL_RCC_ClockConfig+0x20>
    if(RCC_ClkInitStruct->SYSCLKSource == RCC_SYSCLKSOURCE_HSE)
 800322c:	4e31      	ldr	r6, [pc, #196]	; (80032f4 <HAL_RCC_ClockConfig+0x158>)
 800322e:	6862      	ldr	r2, [r4, #4]
      if(__HAL_RCC_GET_FLAG(RCC_FLAG_HSERDY) == 0U)
 8003230:	6833      	ldr	r3, [r6, #0]
    if(RCC_ClkInitStruct->SYSCLKSource == RCC_SYSCLKSOURCE_HSE)
 8003232:	2a02      	cmp	r2, #2
 8003234:	d119      	bne.n	800326a <HAL_RCC_ClockConfig+0xce>
      if(__HAL_RCC_GET_FLAG(RCC_FLAG_HSERDY) == 0U)
 8003236:	039b      	lsls	r3, r3, #14
 8003238:	d5b4      	bpl.n	80031a4 <HAL_RCC_ClockConfig+0x8>
    __HAL_RCC_SYSCLK_CONFIG(RCC_ClkInitStruct->SYSCLKSource);
 800323a:	2103      	movs	r1, #3
 800323c:	68f3      	ldr	r3, [r6, #12]
 800323e:	438b      	bics	r3, r1
 8003240:	4313      	orrs	r3, r2
 8003242:	60f3      	str	r3, [r6, #12]
    tickstart = HAL_GetTick();
 8003244:	f7ff fa70 	bl	8002728 <HAL_GetTick>
    if(RCC_ClkInitStruct->SYSCLKSource == RCC_SYSCLKSOURCE_HSE)
 8003248:	6863      	ldr	r3, [r4, #4]
    tickstart = HAL_GetTick();
 800324a:	0007      	movs	r7, r0
    if(RCC_ClkInitStruct->SYSCLKSource == RCC_SYSCLKSOURCE_HSE)
 800324c:	2b02      	cmp	r3, #2
 800324e:	d119      	bne.n	8003284 <HAL_RCC_ClockConfig+0xe8>
      while (__HAL_RCC_GET_SYSCLK_SOURCE() != RCC_SYSCLKSOURCE_STATUS_HSE)
 8003250:	220c      	movs	r2, #12
 8003252:	68f3      	ldr	r3, [r6, #12]
 8003254:	4013      	ands	r3, r2
 8003256:	2b08      	cmp	r3, #8
 8003258:	d0b2      	beq.n	80031c0 <HAL_RCC_ClockConfig+0x24>
        if((HAL_GetTick() - tickstart ) > CLOCKSWITCH_TIMEOUT_VALUE)
 800325a:	f7ff fa65 	bl	8002728 <HAL_GetTick>
 800325e:	4b29      	ldr	r3, [pc, #164]	; (8003304 <HAL_RCC_ClockConfig+0x168>)
 8003260:	1bc0      	subs	r0, r0, r7
 8003262:	4298      	cmp	r0, r3
 8003264:	d9f4      	bls.n	8003250 <HAL_RCC_ClockConfig+0xb4>
          return HAL_TIMEOUT;
 8003266:	2003      	movs	r0, #3
 8003268:	e79d      	b.n	80031a6 <HAL_RCC_ClockConfig+0xa>
    else if(RCC_ClkInitStruct->SYSCLKSource == RCC_SYSCLKSOURCE_PLLCLK)
 800326a:	2a03      	cmp	r2, #3
 800326c:	d102      	bne.n	8003274 <HAL_RCC_ClockConfig+0xd8>
      if(__HAL_RCC_GET_FLAG(RCC_FLAG_PLLRDY) == 0U)
 800326e:	019b      	lsls	r3, r3, #6
 8003270:	d4e3      	bmi.n	800323a <HAL_RCC_ClockConfig+0x9e>
 8003272:	e797      	b.n	80031a4 <HAL_RCC_ClockConfig+0x8>
    else if(RCC_ClkInitStruct->SYSCLKSource == RCC_SYSCLKSOURCE_HSI)
 8003274:	2a01      	cmp	r2, #1
 8003276:	d102      	bne.n	800327e <HAL_RCC_ClockConfig+0xe2>
      if(__HAL_RCC_GET_FLAG(RCC_FLAG_HSIRDY) == 0U)
 8003278:	075b      	lsls	r3, r3, #29
 800327a:	d4de      	bmi.n	800323a <HAL_RCC_ClockConfig+0x9e>
 800327c:	e792      	b.n	80031a4 <HAL_RCC_ClockConfig+0x8>
      if(__HAL_RCC_GET_FLAG(RCC_FLAG_MSIRDY) == 0U)
 800327e:	059b      	lsls	r3, r3, #22
 8003280:	d4db      	bmi.n	800323a <HAL_RCC_ClockConfig+0x9e>
 8003282:	e78f      	b.n	80031a4 <HAL_RCC_ClockConfig+0x8>
    else if(RCC_ClkInitStruct->SYSCLKSource == RCC_SYSCLKSOURCE_PLLCLK)
 8003284:	2b03      	cmp	r3, #3
 8003286:	d10b      	bne.n	80032a0 <HAL_RCC_ClockConfig+0x104>
      while (__HAL_RCC_GET_SYSCLK_SOURCE() != RCC_SYSCLKSOURCE_STATUS_PLLCLK)
 8003288:	220c      	movs	r2, #12
 800328a:	68f3      	ldr	r3, [r6, #12]
 800328c:	4013      	ands	r3, r2
 800328e:	4293      	cmp	r3, r2
 8003290:	d096      	beq.n	80031c0 <HAL_RCC_ClockConfig+0x24>
        if((HAL_GetTick() - tickstart ) > CLOCKSWITCH_TIMEOUT_VALUE)
 8003292:	f7ff fa49 	bl	8002728 <HAL_GetTick>
 8003296:	4b1b      	ldr	r3, [pc, #108]	; (8003304 <HAL_RCC_ClockConfig+0x168>)
 8003298:	1bc0      	subs	r0, r0, r7
 800329a:	4298      	cmp	r0, r3
 800329c:	d9f4      	bls.n	8003288 <HAL_RCC_ClockConfig+0xec>
 800329e:	e7e2      	b.n	8003266 <HAL_RCC_ClockConfig+0xca>
    else if(RCC_ClkInitStruct->SYSCLKSource == RCC_SYSCLKSOURCE_HSI)
 80032a0:	2b01      	cmp	r3, #1
 80032a2:	d010      	beq.n	80032c6 <HAL_RCC_ClockConfig+0x12a>
      while(__HAL_RCC_GET_SYSCLK_SOURCE() != RCC_SYSCLKSOURCE_STATUS_MSI)
 80032a4:	220c      	movs	r2, #12
 80032a6:	68f3      	ldr	r3, [r6, #12]
 80032a8:	4213      	tst	r3, r2
 80032aa:	d089      	beq.n	80031c0 <HAL_RCC_ClockConfig+0x24>
        if((HAL_GetTick() - tickstart ) > CLOCKSWITCH_TIMEOUT_VALUE)
 80032ac:	f7ff fa3c 	bl	8002728 <HAL_GetTick>
 80032b0:	4b14      	ldr	r3, [pc, #80]	; (8003304 <HAL_RCC_ClockConfig+0x168>)
 80032b2:	1bc0      	subs	r0, r0, r7
 80032b4:	4298      	cmp	r0, r3
 80032b6:	d9f5      	bls.n	80032a4 <HAL_RCC_ClockConfig+0x108>
 80032b8:	e7d5      	b.n	8003266 <HAL_RCC_ClockConfig+0xca>
        if((HAL_GetTick() - tickstart ) > CLOCKSWITCH_TIMEOUT_VALUE)
 80032ba:	f7ff fa35 	bl	8002728 <HAL_GetTick>
 80032be:	4b11      	ldr	r3, [pc, #68]	; (8003304 <HAL_RCC_ClockConfig+0x168>)
 80032c0:	1bc0      	subs	r0, r0, r7
 80032c2:	4298      	cmp	r0, r3
 80032c4:	d8cf      	bhi.n	8003266 <HAL_RCC_ClockConfig+0xca>
      while (__HAL_RCC_GET_SYSCLK_SOURCE() != RCC_SYSCLKSOURCE_STATUS_HSI)
 80032c6:	220c      	movs	r2, #12
 80032c8:	68f3      	ldr	r3, [r6, #12]
 80032ca:	4013      	ands	r3, r2
 80032cc:	2b04      	cmp	r3, #4
 80032ce:	d1f4      	bne.n	80032ba <HAL_RCC_ClockConfig+0x11e>
 80032d0:	e776      	b.n	80031c0 <HAL_RCC_ClockConfig+0x24>
    __HAL_FLASH_SET_LATENCY(FLatency);
 80032d2:	682a      	ldr	r2, [r5, #0]
 80032d4:	439a      	bics	r2, r3
 80032d6:	602a      	str	r2, [r5, #0]
    if(__HAL_FLASH_GET_LATENCY() != FLatency)
 80032d8:	682a      	ldr	r2, [r5, #0]
 80032da:	421a      	tst	r2, r3
 80032dc:	d100      	bne.n	80032e0 <HAL_RCC_ClockConfig+0x144>
 80032de:	e776      	b.n	80031ce <HAL_RCC_ClockConfig+0x32>
 80032e0:	e760      	b.n	80031a4 <HAL_RCC_ClockConfig+0x8>
    MODIFY_REG(RCC->CFGR, RCC_CFGR_PPRE1, RCC_ClkInitStruct->APB1CLKDivider);
 80032e2:	68eb      	ldr	r3, [r5, #12]
 80032e4:	4908      	ldr	r1, [pc, #32]	; (8003308 <HAL_RCC_ClockConfig+0x16c>)
 80032e6:	400b      	ands	r3, r1
 80032e8:	68e1      	ldr	r1, [r4, #12]
 80032ea:	430b      	orrs	r3, r1
 80032ec:	60eb      	str	r3, [r5, #12]
 80032ee:	e773      	b.n	80031d8 <HAL_RCC_ClockConfig+0x3c>
 80032f0:	40022000 	.word	0x40022000
 80032f4:	40021000 	.word	0x40021000
 80032f8:	ffffc7ff 	.word	0xffffc7ff
 80032fc:	08005795 	.word	0x08005795
 8003300:	20000000 	.word	0x20000000
 8003304:	00001388 	.word	0x00001388
 8003308:	fffff8ff 	.word	0xfffff8ff

0800330c <SPI_WaitFlagStateUntilTimeout.constprop.0>:
  * @param  State flag state to check
  * @param  Timeout Timeout duration
  * @param  Tickstart tick start value
  * @retval HAL status
  */
static HAL_StatusTypeDef SPI_WaitFlagStateUntilTimeout(SPI_HandleTypeDef *hspi, uint32_t Flag, FlagStatus State,
 800330c:	b5f8      	push	{r3, r4, r5, r6, r7, lr}
 800330e:	0004      	movs	r4, r0
 8003310:	000d      	movs	r5, r1
 8003312:	0016      	movs	r6, r2
 8003314:	001f      	movs	r7, r3
                                                       uint32_t Timeout, uint32_t Tickstart)
{
  while ((__HAL_SPI_GET_FLAG(hspi, Flag) ? SET : RESET) != State)
 8003316:	6822      	ldr	r2, [r4, #0]
 8003318:	6893      	ldr	r3, [r2, #8]
 800331a:	402b      	ands	r3, r5
 800331c:	429d      	cmp	r5, r3
 800331e:	d001      	beq.n	8003324 <SPI_WaitFlagStateUntilTimeout.constprop.0+0x18>
        return HAL_TIMEOUT;
      }
    }
  }

  return HAL_OK;
 8003320:	2000      	movs	r0, #0
 8003322:	e031      	b.n	8003388 <SPI_WaitFlagStateUntilTimeout.constprop.0+0x7c>
    if (Timeout != HAL_MAX_DELAY)
 8003324:	1c73      	adds	r3, r6, #1
 8003326:	d0f7      	beq.n	8003318 <SPI_WaitFlagStateUntilTimeout.constprop.0+0xc>
      if (((HAL_GetTick() - Tickstart) >= Timeout) || (Timeout == 0U))
 8003328:	f7ff f9fe 	bl	8002728 <HAL_GetTick>
 800332c:	1bc0      	subs	r0, r0, r7
 800332e:	4286      	cmp	r6, r0
 8003330:	d8f1      	bhi.n	8003316 <SPI_WaitFlagStateUntilTimeout.constprop.0+0xa>
        __HAL_SPI_DISABLE_IT(hspi, (SPI_IT_TXE | SPI_IT_RXNE | SPI_IT_ERR));
 8003332:	21e0      	movs	r1, #224	; 0xe0
 8003334:	6823      	ldr	r3, [r4, #0]
 8003336:	685a      	ldr	r2, [r3, #4]
 8003338:	438a      	bics	r2, r1
 800333a:	605a      	str	r2, [r3, #4]
        if ((hspi->Init.Mode == SPI_MODE_MASTER) && ((hspi->Init.Direction == SPI_DIRECTION_1LINE)
 800333c:	2282      	movs	r2, #130	; 0x82
 800333e:	6861      	ldr	r1, [r4, #4]
 8003340:	0052      	lsls	r2, r2, #1
 8003342:	4291      	cmp	r1, r2
 8003344:	d10c      	bne.n	8003360 <SPI_WaitFlagStateUntilTimeout.constprop.0+0x54>
 8003346:	2180      	movs	r1, #128	; 0x80
 8003348:	68a2      	ldr	r2, [r4, #8]
 800334a:	0209      	lsls	r1, r1, #8
 800334c:	428a      	cmp	r2, r1
 800334e:	d003      	beq.n	8003358 <SPI_WaitFlagStateUntilTimeout.constprop.0+0x4c>
                                                     || (hspi->Init.Direction == SPI_DIRECTION_2LINES_RXONLY)))
 8003350:	2180      	movs	r1, #128	; 0x80
 8003352:	00c9      	lsls	r1, r1, #3
 8003354:	428a      	cmp	r2, r1
 8003356:	d103      	bne.n	8003360 <SPI_WaitFlagStateUntilTimeout.constprop.0+0x54>
          __HAL_SPI_DISABLE(hspi);
 8003358:	2140      	movs	r1, #64	; 0x40
 800335a:	681a      	ldr	r2, [r3, #0]
 800335c:	438a      	bics	r2, r1
 800335e:	601a      	str	r2, [r3, #0]
        if (hspi->Init.CRCCalculation == SPI_CRCCALCULATION_ENABLE)
 8003360:	2180      	movs	r1, #128	; 0x80
 8003362:	6aa2      	ldr	r2, [r4, #40]	; 0x28
 8003364:	0189      	lsls	r1, r1, #6
 8003366:	428a      	cmp	r2, r1
 8003368:	d106      	bne.n	8003378 <SPI_WaitFlagStateUntilTimeout.constprop.0+0x6c>
          SPI_RESET_CRC(hspi);
 800336a:	6819      	ldr	r1, [r3, #0]
 800336c:	4807      	ldr	r0, [pc, #28]	; (800338c <SPI_WaitFlagStateUntilTimeout.constprop.0+0x80>)
 800336e:	4001      	ands	r1, r0
 8003370:	6019      	str	r1, [r3, #0]
 8003372:	6819      	ldr	r1, [r3, #0]
 8003374:	430a      	orrs	r2, r1
 8003376:	601a      	str	r2, [r3, #0]
        hspi->State = HAL_SPI_STATE_READY;
 8003378:	0023      	movs	r3, r4
 800337a:	2201      	movs	r2, #1
 800337c:	3351      	adds	r3, #81	; 0x51
 800337e:	701a      	strb	r2, [r3, #0]
        __HAL_UNLOCK(hspi);
 8003380:	2300      	movs	r3, #0
 8003382:	2003      	movs	r0, #3
 8003384:	3450      	adds	r4, #80	; 0x50
 8003386:	7023      	strb	r3, [r4, #0]
}
 8003388:	bdf8      	pop	{r3, r4, r5, r6, r7, pc}
 800338a:	46c0      	nop			; (mov r8, r8)
 800338c:	ffffdfff 	.word	0xffffdfff

08003390 <SPI_EndRxTransaction>:
  * @param  Timeout Timeout duration
  * @param  Tickstart tick start value
  * @retval HAL status
  */
static HAL_StatusTypeDef SPI_EndRxTransaction(SPI_HandleTypeDef *hspi,  uint32_t Timeout, uint32_t Tickstart)
{
 8003390:	b5f8      	push	{r3, r4, r5, r6, r7, lr}
 8003392:	0013      	movs	r3, r2
  if ((hspi->Init.Mode == SPI_MODE_MASTER) && ((hspi->Init.Direction == SPI_DIRECTION_1LINE)
 8003394:	2282      	movs	r2, #130	; 0x82
{
 8003396:	0004      	movs	r4, r0
  if ((hspi->Init.Mode == SPI_MODE_MASTER) && ((hspi->Init.Direction == SPI_DIRECTION_1LINE)
 8003398:	6840      	ldr	r0, [r0, #4]
 800339a:	0052      	lsls	r2, r2, #1
 800339c:	4290      	cmp	r0, r2
 800339e:	d11e      	bne.n	80033de <SPI_EndRxTransaction+0x4e>
 80033a0:	2080      	movs	r0, #128	; 0x80
 80033a2:	2580      	movs	r5, #128	; 0x80
 80033a4:	68a2      	ldr	r2, [r4, #8]
 80033a6:	0200      	lsls	r0, r0, #8
 80033a8:	00ed      	lsls	r5, r5, #3
 80033aa:	4282      	cmp	r2, r0
 80033ac:	d001      	beq.n	80033b2 <SPI_EndRxTransaction+0x22>
                                               || (hspi->Init.Direction == SPI_DIRECTION_2LINES_RXONLY)))
 80033ae:	42aa      	cmp	r2, r5
 80033b0:	d106      	bne.n	80033c0 <SPI_EndRxTransaction+0x30>
  {
    /* Disable SPI peripheral */
    __HAL_SPI_DISABLE(hspi);
 80033b2:	2740      	movs	r7, #64	; 0x40
 80033b4:	6826      	ldr	r6, [r4, #0]
 80033b6:	6830      	ldr	r0, [r6, #0]
 80033b8:	43b8      	bics	r0, r7
 80033ba:	6030      	str	r0, [r6, #0]
  }

  /* Erratasheet: BSY bit may stay high at the end of a data transfer in Slave mode */
  if (hspi->Init.Mode == SPI_MODE_MASTER)
  {
    if (hspi->Init.Direction != SPI_DIRECTION_2LINES_RXONLY)
 80033bc:	42aa      	cmp	r2, r5
 80033be:	d00e      	beq.n	80033de <SPI_EndRxTransaction+0x4e>
    {
      /* Control the BSY flag */
      if (SPI_WaitFlagStateUntilTimeout(hspi, SPI_FLAG_BSY, RESET, Timeout, Tickstart) != HAL_OK)
 80033c0:	000a      	movs	r2, r1
 80033c2:	2180      	movs	r1, #128	; 0x80
 80033c4:	0020      	movs	r0, r4
 80033c6:	f7ff ffa1 	bl	800330c <SPI_WaitFlagStateUntilTimeout.constprop.0>
 80033ca:	2800      	cmp	r0, #0
 80033cc:	d101      	bne.n	80033d2 <SPI_EndRxTransaction+0x42>
    {
      SET_BIT(hspi->ErrorCode, HAL_SPI_ERROR_FLAG);
      return HAL_TIMEOUT;
    }
  }
  return HAL_OK;
 80033ce:	2000      	movs	r0, #0
}
 80033d0:	bdf8      	pop	{r3, r4, r5, r6, r7, pc}
      SET_BIT(hspi->ErrorCode, HAL_SPI_ERROR_FLAG);
 80033d2:	2320      	movs	r3, #32
 80033d4:	6d62      	ldr	r2, [r4, #84]	; 0x54
      return HAL_TIMEOUT;
 80033d6:	2003      	movs	r0, #3
      SET_BIT(hspi->ErrorCode, HAL_SPI_ERROR_FLAG);
 80033d8:	4313      	orrs	r3, r2
 80033da:	6563      	str	r3, [r4, #84]	; 0x54
      return HAL_TIMEOUT;
 80033dc:	e7f8      	b.n	80033d0 <SPI_EndRxTransaction+0x40>
    if (SPI_WaitFlagStateUntilTimeout(hspi, SPI_FLAG_RXNE, RESET, Timeout, Tickstart) != HAL_OK)
 80033de:	000a      	movs	r2, r1
 80033e0:	2101      	movs	r1, #1
 80033e2:	e7ef      	b.n	80033c4 <SPI_EndRxTransaction+0x34>

080033e4 <SPI_EndRxTxTransaction>:
  * @param  Timeout Timeout duration
  * @param  Tickstart tick start value
  * @retval HAL status
  */
static HAL_StatusTypeDef SPI_EndRxTxTransaction(SPI_HandleTypeDef *hspi, uint32_t Timeout, uint32_t Tickstart)
{
 80033e4:	0013      	movs	r3, r2
  /* Erratasheet: BSY bit may stay high at the end of a data transfer in Slave mode */
  if (hspi->Init.Mode == SPI_MODE_MASTER)
 80033e6:	2282      	movs	r2, #130	; 0x82
{
 80033e8:	b510      	push	{r4, lr}
 80033ea:	0004      	movs	r4, r0
  if (hspi->Init.Mode == SPI_MODE_MASTER)
 80033ec:	6840      	ldr	r0, [r0, #4]
 80033ee:	0052      	lsls	r2, r2, #1
 80033f0:	4290      	cmp	r0, r2
 80033f2:	d108      	bne.n	8003406 <SPI_EndRxTxTransaction+0x22>
  {
    /* Control the BSY flag */
    if (SPI_WaitFlagStateUntilTimeout(hspi, SPI_FLAG_BSY, RESET, Timeout, Tickstart) != HAL_OK)
 80033f4:	000a      	movs	r2, r1
 80033f6:	2180      	movs	r1, #128	; 0x80
 80033f8:	0020      	movs	r0, r4
 80033fa:	f7ff ff87 	bl	800330c <SPI_WaitFlagStateUntilTimeout.constprop.0>
 80033fe:	2800      	cmp	r0, #0
 8003400:	d109      	bne.n	8003416 <SPI_EndRxTxTransaction+0x32>
        SET_BIT(hspi->ErrorCode, HAL_SPI_ERROR_FLAG);
        return HAL_TIMEOUT;
      }
    }
  }
  return HAL_OK;
 8003402:	2000      	movs	r0, #0
}
 8003404:	bd10      	pop	{r4, pc}
    if (hspi->State == HAL_SPI_STATE_BUSY_TX_RX)
 8003406:	0022      	movs	r2, r4
 8003408:	3251      	adds	r2, #81	; 0x51
 800340a:	7812      	ldrb	r2, [r2, #0]
 800340c:	2a05      	cmp	r2, #5
 800340e:	d1f8      	bne.n	8003402 <SPI_EndRxTxTransaction+0x1e>
      if (SPI_WaitFlagStateUntilTimeout(hspi, SPI_FLAG_RXNE, RESET, Timeout, Tickstart) != HAL_OK)
 8003410:	000a      	movs	r2, r1
 8003412:	2101      	movs	r1, #1
 8003414:	e7f0      	b.n	80033f8 <SPI_EndRxTxTransaction+0x14>
        SET_BIT(hspi->ErrorCode, HAL_SPI_ERROR_FLAG);
 8003416:	2320      	movs	r3, #32
 8003418:	6d62      	ldr	r2, [r4, #84]	; 0x54
        return HAL_TIMEOUT;
 800341a:	2003      	movs	r0, #3
        SET_BIT(hspi->ErrorCode, HAL_SPI_ERROR_FLAG);
 800341c:	4313      	orrs	r3, r2
 800341e:	6563      	str	r3, [r4, #84]	; 0x54
        return HAL_TIMEOUT;
 8003420:	e7f0      	b.n	8003404 <SPI_EndRxTxTransaction+0x20>
	...

08003424 <HAL_SPI_Init>:
{
 8003424:	b570      	push	{r4, r5, r6, lr}
 8003426:	0004      	movs	r4, r0
    return HAL_ERROR;
 8003428:	2001      	movs	r0, #1
  if (hspi == NULL)
 800342a:	2c00      	cmp	r4, #0
 800342c:	d037      	beq.n	800349e <HAL_SPI_Init+0x7a>
  hspi->Init.CRCCalculation = SPI_CRCCALCULATION_DISABLE;
 800342e:	2300      	movs	r3, #0
  if (hspi->State == HAL_SPI_STATE_RESET)
 8003430:	0025      	movs	r5, r4
  hspi->Init.CRCCalculation = SPI_CRCCALCULATION_DISABLE;
 8003432:	62a3      	str	r3, [r4, #40]	; 0x28
  if (hspi->State == HAL_SPI_STATE_RESET)
 8003434:	3551      	adds	r5, #81	; 0x51
 8003436:	782b      	ldrb	r3, [r5, #0]
 8003438:	b2da      	uxtb	r2, r3
 800343a:	2b00      	cmp	r3, #0
 800343c:	d105      	bne.n	800344a <HAL_SPI_Init+0x26>
    hspi->Lock = HAL_UNLOCKED;
 800343e:	0023      	movs	r3, r4
 8003440:	3350      	adds	r3, #80	; 0x50
    HAL_SPI_MspInit(hspi);
 8003442:	0020      	movs	r0, r4
    hspi->Lock = HAL_UNLOCKED;
 8003444:	701a      	strb	r2, [r3, #0]
    HAL_SPI_MspInit(hspi);
 8003446:	f7fe ff05 	bl	8002254 <HAL_SPI_MspInit>
  hspi->State = HAL_SPI_STATE_BUSY;
 800344a:	2302      	movs	r3, #2
  __HAL_SPI_DISABLE(hspi);
 800344c:	2240      	movs	r2, #64	; 0x40
  hspi->State = HAL_SPI_STATE_BUSY;
 800344e:	702b      	strb	r3, [r5, #0]
  __HAL_SPI_DISABLE(hspi);
 8003450:	6821      	ldr	r1, [r4, #0]
  WRITE_REG(hspi->Instance->CR1, (hspi->Init.Mode | hspi->Init.Direction | hspi->Init.DataSize |
 8003452:	68a0      	ldr	r0, [r4, #8]
  __HAL_SPI_DISABLE(hspi);
 8003454:	680b      	ldr	r3, [r1, #0]
 8003456:	4393      	bics	r3, r2
 8003458:	600b      	str	r3, [r1, #0]
  WRITE_REG(hspi->Instance->CR1, (hspi->Init.Mode | hspi->Init.Direction | hspi->Init.DataSize |
 800345a:	6863      	ldr	r3, [r4, #4]
 800345c:	69a2      	ldr	r2, [r4, #24]
 800345e:	4303      	orrs	r3, r0
 8003460:	68e0      	ldr	r0, [r4, #12]
 8003462:	4303      	orrs	r3, r0
 8003464:	6920      	ldr	r0, [r4, #16]
 8003466:	4303      	orrs	r3, r0
 8003468:	6960      	ldr	r0, [r4, #20]
 800346a:	4303      	orrs	r3, r0
 800346c:	69e0      	ldr	r0, [r4, #28]
 800346e:	4303      	orrs	r3, r0
 8003470:	6a20      	ldr	r0, [r4, #32]
 8003472:	4303      	orrs	r3, r0
 8003474:	6aa0      	ldr	r0, [r4, #40]	; 0x28
 8003476:	4303      	orrs	r3, r0
 8003478:	2080      	movs	r0, #128	; 0x80
 800347a:	0080      	lsls	r0, r0, #2
 800347c:	4010      	ands	r0, r2
 800347e:	4303      	orrs	r3, r0
 8003480:	600b      	str	r3, [r1, #0]
  WRITE_REG(hspi->Instance->CR2, (((hspi->Init.NSS >> 16U) & SPI_CR2_SSOE) | hspi->Init.TIMode));
 8003482:	2304      	movs	r3, #4
 8003484:	0c12      	lsrs	r2, r2, #16
 8003486:	401a      	ands	r2, r3
 8003488:	6a63      	ldr	r3, [r4, #36]	; 0x24
  hspi->ErrorCode = HAL_SPI_ERROR_NONE;
 800348a:	2000      	movs	r0, #0
  WRITE_REG(hspi->Instance->CR2, (((hspi->Init.NSS >> 16U) & SPI_CR2_SSOE) | hspi->Init.TIMode));
 800348c:	431a      	orrs	r2, r3
 800348e:	604a      	str	r2, [r1, #4]
  CLEAR_BIT(hspi->Instance->I2SCFGR, SPI_I2SCFGR_I2SMOD);
 8003490:	69cb      	ldr	r3, [r1, #28]
 8003492:	4a03      	ldr	r2, [pc, #12]	; (80034a0 <HAL_SPI_Init+0x7c>)
 8003494:	4013      	ands	r3, r2
 8003496:	61cb      	str	r3, [r1, #28]
  hspi->State     = HAL_SPI_STATE_READY;
 8003498:	2301      	movs	r3, #1
  hspi->ErrorCode = HAL_SPI_ERROR_NONE;
 800349a:	6560      	str	r0, [r4, #84]	; 0x54
  hspi->State     = HAL_SPI_STATE_READY;
 800349c:	702b      	strb	r3, [r5, #0]
}
 800349e:	bd70      	pop	{r4, r5, r6, pc}
 80034a0:	fffff7ff 	.word	0xfffff7ff

080034a4 <HAL_SPI_TransmitReceive>:
{
 80034a4:	b5f0      	push	{r4, r5, r6, r7, lr}
 80034a6:	001e      	movs	r6, r3
  __HAL_LOCK(hspi);
 80034a8:	0003      	movs	r3, r0
 80034aa:	3350      	adds	r3, #80	; 0x50
{
 80034ac:	0017      	movs	r7, r2
  __HAL_LOCK(hspi);
 80034ae:	781a      	ldrb	r2, [r3, #0]
{
 80034b0:	0004      	movs	r4, r0
 80034b2:	000d      	movs	r5, r1
  __HAL_LOCK(hspi);
 80034b4:	2002      	movs	r0, #2
{
 80034b6:	b085      	sub	sp, #20
  __HAL_LOCK(hspi);
 80034b8:	2a01      	cmp	r2, #1
 80034ba:	d100      	bne.n	80034be <HAL_SPI_TransmitReceive+0x1a>
 80034bc:	e092      	b.n	80035e4 <HAL_SPI_TransmitReceive+0x140>
 80034be:	2201      	movs	r2, #1
 80034c0:	701a      	strb	r2, [r3, #0]
  tickstart = HAL_GetTick();
 80034c2:	f7ff f931 	bl	8002728 <HAL_GetTick>
  tmp_state           = hspi->State;
 80034c6:	0023      	movs	r3, r4
  tickstart = HAL_GetTick();
 80034c8:	9001      	str	r0, [sp, #4]
  tmp_state           = hspi->State;
 80034ca:	3351      	adds	r3, #81	; 0x51
 80034cc:	781b      	ldrb	r3, [r3, #0]
  tmp_mode            = hspi->Init.Mode;
 80034ce:	6861      	ldr	r1, [r4, #4]
  tmp_state           = hspi->State;
 80034d0:	b2da      	uxtb	r2, r3
  if (!((tmp_state == HAL_SPI_STATE_READY) || \
 80034d2:	2b01      	cmp	r3, #1
 80034d4:	d00a      	beq.n	80034ec <HAL_SPI_TransmitReceive+0x48>
 80034d6:	2382      	movs	r3, #130	; 0x82
    errorcode = HAL_BUSY;
 80034d8:	2002      	movs	r0, #2
  if (!((tmp_state == HAL_SPI_STATE_READY) || \
 80034da:	005b      	lsls	r3, r3, #1
 80034dc:	4299      	cmp	r1, r3
 80034de:	d000      	beq.n	80034e2 <HAL_SPI_TransmitReceive+0x3e>
 80034e0:	e079      	b.n	80035d6 <HAL_SPI_TransmitReceive+0x132>
        ((tmp_mode == SPI_MODE_MASTER) && (hspi->Init.Direction == SPI_DIRECTION_2LINES) && (tmp_state == HAL_SPI_STATE_BUSY_RX))))
 80034e2:	68a3      	ldr	r3, [r4, #8]
 80034e4:	2b00      	cmp	r3, #0
 80034e6:	d176      	bne.n	80035d6 <HAL_SPI_TransmitReceive+0x132>
 80034e8:	2a04      	cmp	r2, #4
 80034ea:	d174      	bne.n	80035d6 <HAL_SPI_TransmitReceive+0x132>
    errorcode = HAL_ERROR;
 80034ec:	2001      	movs	r0, #1
  if ((pTxData == NULL) || (pRxData == NULL) || (Size == 0U))
 80034ee:	2d00      	cmp	r5, #0
 80034f0:	d071      	beq.n	80035d6 <HAL_SPI_TransmitReceive+0x132>
 80034f2:	2f00      	cmp	r7, #0
 80034f4:	d06f      	beq.n	80035d6 <HAL_SPI_TransmitReceive+0x132>
 80034f6:	2e00      	cmp	r6, #0
 80034f8:	d06d      	beq.n	80035d6 <HAL_SPI_TransmitReceive+0x132>
  if (hspi->State != HAL_SPI_STATE_BUSY_RX)
 80034fa:	0023      	movs	r3, r4
 80034fc:	3351      	adds	r3, #81	; 0x51
 80034fe:	781a      	ldrb	r2, [r3, #0]
 8003500:	2a04      	cmp	r2, #4
 8003502:	d001      	beq.n	8003508 <HAL_SPI_TransmitReceive+0x64>
    hspi->State = HAL_SPI_STATE_BUSY_TX_RX;
 8003504:	2205      	movs	r2, #5
 8003506:	701a      	strb	r2, [r3, #0]
  hspi->ErrorCode   = HAL_SPI_ERROR_NONE;
 8003508:	2300      	movs	r3, #0
  if ((hspi->Instance->CR1 & SPI_CR1_SPE) != SPI_CR1_SPE)
 800350a:	2240      	movs	r2, #64	; 0x40
  hspi->ErrorCode   = HAL_SPI_ERROR_NONE;
 800350c:	6563      	str	r3, [r4, #84]	; 0x54
  hspi->RxISR       = NULL;
 800350e:	6423      	str	r3, [r4, #64]	; 0x40
  hspi->TxISR       = NULL;
 8003510:	6463      	str	r3, [r4, #68]	; 0x44
  if ((hspi->Instance->CR1 & SPI_CR1_SPE) != SPI_CR1_SPE)
 8003512:	6823      	ldr	r3, [r4, #0]
  hspi->RxXferCount = Size;
 8003514:	87e6      	strh	r6, [r4, #62]	; 0x3e
  hspi->TxXferCount = Size;
 8003516:	86e6      	strh	r6, [r4, #54]	; 0x36
  if ((hspi->Instance->CR1 & SPI_CR1_SPE) != SPI_CR1_SPE)
 8003518:	6818      	ldr	r0, [r3, #0]
  hspi->pRxBuffPtr  = (uint8_t *)pRxData;
 800351a:	63a7      	str	r7, [r4, #56]	; 0x38
  hspi->RxXferSize  = Size;
 800351c:	87a6      	strh	r6, [r4, #60]	; 0x3c
  hspi->pTxBuffPtr  = (uint8_t *)pTxData;
 800351e:	6325      	str	r5, [r4, #48]	; 0x30
  hspi->TxXferSize  = Size;
 8003520:	86a6      	strh	r6, [r4, #52]	; 0x34
  if ((hspi->Instance->CR1 & SPI_CR1_SPE) != SPI_CR1_SPE)
 8003522:	4210      	tst	r0, r2
 8003524:	d102      	bne.n	800352c <HAL_SPI_TransmitReceive+0x88>
    __HAL_SPI_ENABLE(hspi);
 8003526:	6818      	ldr	r0, [r3, #0]
 8003528:	4302      	orrs	r2, r0
 800352a:	601a      	str	r2, [r3, #0]
  if (hspi->Init.DataSize == SPI_DATASIZE_16BIT)
 800352c:	2280      	movs	r2, #128	; 0x80
 800352e:	68e0      	ldr	r0, [r4, #12]
 8003530:	0112      	lsls	r2, r2, #4
 8003532:	4290      	cmp	r0, r2
 8003534:	d158      	bne.n	80035e8 <HAL_SPI_TransmitReceive+0x144>
    if ((hspi->Init.Mode == SPI_MODE_SLAVE) || (initial_TxXferCount == 0x01U))
 8003536:	2900      	cmp	r1, #0
 8003538:	d001      	beq.n	800353e <HAL_SPI_TransmitReceive+0x9a>
 800353a:	2e01      	cmp	r6, #1
 800353c:	d107      	bne.n	800354e <HAL_SPI_TransmitReceive+0xaa>
      hspi->Instance->DR = *((uint16_t *)hspi->pTxBuffPtr);
 800353e:	882a      	ldrh	r2, [r5, #0]
      hspi->pTxBuffPtr += sizeof(uint16_t);
 8003540:	3502      	adds	r5, #2
      hspi->Instance->DR = *((uint16_t *)hspi->pTxBuffPtr);
 8003542:	60da      	str	r2, [r3, #12]
      hspi->TxXferCount--;
 8003544:	8ee3      	ldrh	r3, [r4, #54]	; 0x36
      hspi->pTxBuffPtr += sizeof(uint16_t);
 8003546:	6325      	str	r5, [r4, #48]	; 0x30
      hspi->TxXferCount--;
 8003548:	3b01      	subs	r3, #1
 800354a:	b29b      	uxth	r3, r3
 800354c:	86e3      	strh	r3, [r4, #54]	; 0x36
        txallowed = 1U;
 800354e:	2501      	movs	r5, #1
      if ((__HAL_SPI_GET_FLAG(hspi, SPI_FLAG_TXE)) && (hspi->TxXferCount > 0U) && (txallowed == 1U))
 8003550:	2702      	movs	r7, #2
      if ((__HAL_SPI_GET_FLAG(hspi, SPI_FLAG_RXNE)) && (hspi->RxXferCount > 0U))
 8003552:	002e      	movs	r6, r5
    while ((hspi->TxXferCount > 0U) || (hspi->RxXferCount > 0U))
 8003554:	8ee3      	ldrh	r3, [r4, #54]	; 0x36
 8003556:	2b00      	cmp	r3, #0
 8003558:	d10e      	bne.n	8003578 <HAL_SPI_TransmitReceive+0xd4>
 800355a:	8fe3      	ldrh	r3, [r4, #62]	; 0x3e
 800355c:	2b00      	cmp	r3, #0
 800355e:	d10b      	bne.n	8003578 <HAL_SPI_TransmitReceive+0xd4>
  if (SPI_EndRxTxTransaction(hspi, Timeout, tickstart) != HAL_OK)
 8003560:	0020      	movs	r0, r4
 8003562:	9a01      	ldr	r2, [sp, #4]
 8003564:	990a      	ldr	r1, [sp, #40]	; 0x28
 8003566:	f7ff ff3d 	bl	80033e4 <SPI_EndRxTxTransaction>
 800356a:	2800      	cmp	r0, #0
 800356c:	d100      	bne.n	8003570 <HAL_SPI_TransmitReceive+0xcc>
 800356e:	e083      	b.n	8003678 <HAL_SPI_TransmitReceive+0x1d4>
    hspi->ErrorCode = HAL_SPI_ERROR_FLAG;
 8003570:	2320      	movs	r3, #32
    errorcode = HAL_ERROR;
 8003572:	2001      	movs	r0, #1
    hspi->ErrorCode = HAL_SPI_ERROR_FLAG;
 8003574:	6563      	str	r3, [r4, #84]	; 0x54
    goto error;
 8003576:	e02e      	b.n	80035d6 <HAL_SPI_TransmitReceive+0x132>
      if ((__HAL_SPI_GET_FLAG(hspi, SPI_FLAG_TXE)) && (hspi->TxXferCount > 0U) && (txallowed == 1U))
 8003578:	6821      	ldr	r1, [r4, #0]
 800357a:	688b      	ldr	r3, [r1, #8]
 800357c:	423b      	tst	r3, r7
 800357e:	d00e      	beq.n	800359e <HAL_SPI_TransmitReceive+0xfa>
 8003580:	8ee3      	ldrh	r3, [r4, #54]	; 0x36
 8003582:	2b00      	cmp	r3, #0
 8003584:	d00b      	beq.n	800359e <HAL_SPI_TransmitReceive+0xfa>
 8003586:	2d01      	cmp	r5, #1
 8003588:	d109      	bne.n	800359e <HAL_SPI_TransmitReceive+0xfa>
        txallowed = 0U;
 800358a:	2500      	movs	r5, #0
        hspi->Instance->DR = *((uint16_t *)hspi->pTxBuffPtr);
 800358c:	6b23      	ldr	r3, [r4, #48]	; 0x30
 800358e:	881a      	ldrh	r2, [r3, #0]
        hspi->pTxBuffPtr += sizeof(uint16_t);
 8003590:	3302      	adds	r3, #2
        hspi->Instance->DR = *((uint16_t *)hspi->pTxBuffPtr);
 8003592:	60ca      	str	r2, [r1, #12]
        hspi->pTxBuffPtr += sizeof(uint16_t);
 8003594:	6323      	str	r3, [r4, #48]	; 0x30
        hspi->TxXferCount--;
 8003596:	8ee3      	ldrh	r3, [r4, #54]	; 0x36
 8003598:	3b01      	subs	r3, #1
 800359a:	b29b      	uxth	r3, r3
 800359c:	86e3      	strh	r3, [r4, #54]	; 0x36
      if ((__HAL_SPI_GET_FLAG(hspi, SPI_FLAG_RXNE)) && (hspi->RxXferCount > 0U))
 800359e:	688b      	ldr	r3, [r1, #8]
 80035a0:	001a      	movs	r2, r3
 80035a2:	4032      	ands	r2, r6
 80035a4:	4233      	tst	r3, r6
 80035a6:	d00c      	beq.n	80035c2 <HAL_SPI_TransmitReceive+0x11e>
 80035a8:	8fe3      	ldrh	r3, [r4, #62]	; 0x3e
 80035aa:	2b00      	cmp	r3, #0
 80035ac:	d009      	beq.n	80035c2 <HAL_SPI_TransmitReceive+0x11e>
        txallowed = 1U;
 80035ae:	0015      	movs	r5, r2
        *((uint16_t *)hspi->pRxBuffPtr) = (uint16_t)hspi->Instance->DR;
 80035b0:	68c9      	ldr	r1, [r1, #12]
 80035b2:	6ba3      	ldr	r3, [r4, #56]	; 0x38
 80035b4:	8019      	strh	r1, [r3, #0]
        hspi->pRxBuffPtr += sizeof(uint16_t);
 80035b6:	3302      	adds	r3, #2
 80035b8:	63a3      	str	r3, [r4, #56]	; 0x38
        hspi->RxXferCount--;
 80035ba:	8fe3      	ldrh	r3, [r4, #62]	; 0x3e
 80035bc:	3b01      	subs	r3, #1
 80035be:	b29b      	uxth	r3, r3
 80035c0:	87e3      	strh	r3, [r4, #62]	; 0x3e
      if (((HAL_GetTick() - tickstart) >=  Timeout) && (Timeout != HAL_MAX_DELAY))
 80035c2:	f7ff f8b1 	bl	8002728 <HAL_GetTick>
 80035c6:	9b01      	ldr	r3, [sp, #4]
 80035c8:	1ac0      	subs	r0, r0, r3
 80035ca:	9b0a      	ldr	r3, [sp, #40]	; 0x28
 80035cc:	4298      	cmp	r0, r3
 80035ce:	d3c1      	bcc.n	8003554 <HAL_SPI_TransmitReceive+0xb0>
 80035d0:	3301      	adds	r3, #1
 80035d2:	d0bf      	beq.n	8003554 <HAL_SPI_TransmitReceive+0xb0>
        errorcode = HAL_TIMEOUT;
 80035d4:	2003      	movs	r0, #3
  hspi->State = HAL_SPI_STATE_READY;
 80035d6:	0023      	movs	r3, r4
 80035d8:	2201      	movs	r2, #1
 80035da:	3351      	adds	r3, #81	; 0x51
 80035dc:	701a      	strb	r2, [r3, #0]
  __HAL_UNLOCK(hspi);
 80035de:	2300      	movs	r3, #0
 80035e0:	3450      	adds	r4, #80	; 0x50
 80035e2:	7023      	strb	r3, [r4, #0]
}
 80035e4:	b005      	add	sp, #20
 80035e6:	bdf0      	pop	{r4, r5, r6, r7, pc}
    if ((hspi->Init.Mode == SPI_MODE_SLAVE) || (initial_TxXferCount == 0x01U))
 80035e8:	2900      	cmp	r1, #0
 80035ea:	d001      	beq.n	80035f0 <HAL_SPI_TransmitReceive+0x14c>
 80035ec:	2e01      	cmp	r6, #1
 80035ee:	d108      	bne.n	8003602 <HAL_SPI_TransmitReceive+0x15e>
      *((__IO uint8_t *)&hspi->Instance->DR) = (*hspi->pTxBuffPtr);
 80035f0:	782a      	ldrb	r2, [r5, #0]
 80035f2:	731a      	strb	r2, [r3, #12]
      hspi->pTxBuffPtr += sizeof(uint8_t);
 80035f4:	6b23      	ldr	r3, [r4, #48]	; 0x30
 80035f6:	3301      	adds	r3, #1
 80035f8:	6323      	str	r3, [r4, #48]	; 0x30
      hspi->TxXferCount--;
 80035fa:	8ee3      	ldrh	r3, [r4, #54]	; 0x36
 80035fc:	3b01      	subs	r3, #1
 80035fe:	b29b      	uxth	r3, r3
 8003600:	86e3      	strh	r3, [r4, #54]	; 0x36
        txallowed = 1U;
 8003602:	2501      	movs	r5, #1
      if ((__HAL_SPI_GET_FLAG(hspi, SPI_FLAG_TXE)) && (hspi->TxXferCount > 0U) && (txallowed == 1U))
 8003604:	2702      	movs	r7, #2
      if ((__HAL_SPI_GET_FLAG(hspi, SPI_FLAG_RXNE)) && (hspi->RxXferCount > 0U))
 8003606:	002e      	movs	r6, r5
    while ((hspi->TxXferCount > 0U) || (hspi->RxXferCount > 0U))
 8003608:	8ee3      	ldrh	r3, [r4, #54]	; 0x36
 800360a:	2b00      	cmp	r3, #0
 800360c:	d102      	bne.n	8003614 <HAL_SPI_TransmitReceive+0x170>
 800360e:	8fe3      	ldrh	r3, [r4, #62]	; 0x3e
 8003610:	2b00      	cmp	r3, #0
 8003612:	d0a5      	beq.n	8003560 <HAL_SPI_TransmitReceive+0xbc>
      if ((__HAL_SPI_GET_FLAG(hspi, SPI_FLAG_TXE)) && (hspi->TxXferCount > 0U) && (txallowed == 1U))
 8003614:	6823      	ldr	r3, [r4, #0]
 8003616:	689a      	ldr	r2, [r3, #8]
 8003618:	423a      	tst	r2, r7
 800361a:	d00f      	beq.n	800363c <HAL_SPI_TransmitReceive+0x198>
 800361c:	8ee2      	ldrh	r2, [r4, #54]	; 0x36
 800361e:	2a00      	cmp	r2, #0
 8003620:	d00c      	beq.n	800363c <HAL_SPI_TransmitReceive+0x198>
 8003622:	2d01      	cmp	r5, #1
 8003624:	d10a      	bne.n	800363c <HAL_SPI_TransmitReceive+0x198>
        txallowed = 0U;
 8003626:	2500      	movs	r5, #0
        *(__IO uint8_t *)&hspi->Instance->DR = (*hspi->pTxBuffPtr);
 8003628:	6b22      	ldr	r2, [r4, #48]	; 0x30
 800362a:	7812      	ldrb	r2, [r2, #0]
 800362c:	731a      	strb	r2, [r3, #12]
        hspi->pTxBuffPtr++;
 800362e:	6b23      	ldr	r3, [r4, #48]	; 0x30
 8003630:	3301      	adds	r3, #1
 8003632:	6323      	str	r3, [r4, #48]	; 0x30
        hspi->TxXferCount--;
 8003634:	8ee3      	ldrh	r3, [r4, #54]	; 0x36
 8003636:	3b01      	subs	r3, #1
 8003638:	b29b      	uxth	r3, r3
 800363a:	86e3      	strh	r3, [r4, #54]	; 0x36
      if ((__HAL_SPI_GET_FLAG(hspi, SPI_FLAG_RXNE)) && (hspi->RxXferCount > 0U))
 800363c:	6823      	ldr	r3, [r4, #0]
 800363e:	6899      	ldr	r1, [r3, #8]
 8003640:	000a      	movs	r2, r1
 8003642:	4032      	ands	r2, r6
 8003644:	4231      	tst	r1, r6
 8003646:	d00d      	beq.n	8003664 <HAL_SPI_TransmitReceive+0x1c0>
 8003648:	8fe1      	ldrh	r1, [r4, #62]	; 0x3e
 800364a:	2900      	cmp	r1, #0
 800364c:	d00a      	beq.n	8003664 <HAL_SPI_TransmitReceive+0x1c0>
        txallowed = 1U;
 800364e:	0015      	movs	r5, r2
        (*(uint8_t *)hspi->pRxBuffPtr) = hspi->Instance->DR;
 8003650:	68db      	ldr	r3, [r3, #12]
 8003652:	6ba1      	ldr	r1, [r4, #56]	; 0x38
 8003654:	700b      	strb	r3, [r1, #0]
        hspi->pRxBuffPtr++;
 8003656:	6ba3      	ldr	r3, [r4, #56]	; 0x38
 8003658:	3301      	adds	r3, #1
 800365a:	63a3      	str	r3, [r4, #56]	; 0x38
        hspi->RxXferCount--;
 800365c:	8fe3      	ldrh	r3, [r4, #62]	; 0x3e
 800365e:	3b01      	subs	r3, #1
 8003660:	b29b      	uxth	r3, r3
 8003662:	87e3      	strh	r3, [r4, #62]	; 0x3e
      if ((((HAL_GetTick() - tickstart) >=  Timeout) && ((Timeout != HAL_MAX_DELAY))) || (Timeout == 0U))
 8003664:	f7ff f860 	bl	8002728 <HAL_GetTick>
 8003668:	9b01      	ldr	r3, [sp, #4]
 800366a:	1ac0      	subs	r0, r0, r3
 800366c:	9b0a      	ldr	r3, [sp, #40]	; 0x28
 800366e:	4298      	cmp	r0, r3
 8003670:	d3ca      	bcc.n	8003608 <HAL_SPI_TransmitReceive+0x164>
 8003672:	3301      	adds	r3, #1
 8003674:	d0c8      	beq.n	8003608 <HAL_SPI_TransmitReceive+0x164>
 8003676:	e7ad      	b.n	80035d4 <HAL_SPI_TransmitReceive+0x130>
  if (hspi->Init.Direction == SPI_DIRECTION_2LINES)
 8003678:	68a3      	ldr	r3, [r4, #8]
 800367a:	2b00      	cmp	r3, #0
 800367c:	d1ab      	bne.n	80035d6 <HAL_SPI_TransmitReceive+0x132>
    __HAL_SPI_CLEAR_OVRFLAG(hspi);
 800367e:	6823      	ldr	r3, [r4, #0]
 8003680:	9003      	str	r0, [sp, #12]
 8003682:	68da      	ldr	r2, [r3, #12]
 8003684:	9203      	str	r2, [sp, #12]
 8003686:	689b      	ldr	r3, [r3, #8]
 8003688:	9303      	str	r3, [sp, #12]
 800368a:	9b03      	ldr	r3, [sp, #12]
 800368c:	e7a3      	b.n	80035d6 <HAL_SPI_TransmitReceive+0x132>
	...

08003690 <HAL_SPI_TransmitReceive_DMA>:
{
 8003690:	b5f7      	push	{r0, r1, r2, r4, r5, r6, r7, lr}
  __HAL_LOCK(hspi);
 8003692:	0006      	movs	r6, r0
 8003694:	3650      	adds	r6, #80	; 0x50
 8003696:	7835      	ldrb	r5, [r6, #0]
{
 8003698:	0004      	movs	r4, r0
  __HAL_LOCK(hspi);
 800369a:	2002      	movs	r0, #2
 800369c:	2d01      	cmp	r5, #1
 800369e:	d048      	beq.n	8003732 <HAL_SPI_TransmitReceive_DMA+0xa2>
  tmp_state           = hspi->State;
 80036a0:	0025      	movs	r5, r4
  __HAL_LOCK(hspi);
 80036a2:	3801      	subs	r0, #1
 80036a4:	7030      	strb	r0, [r6, #0]
  tmp_state           = hspi->State;
 80036a6:	3551      	adds	r5, #81	; 0x51
 80036a8:	7828      	ldrb	r0, [r5, #0]
 80036aa:	b2c7      	uxtb	r7, r0
 80036ac:	9701      	str	r7, [sp, #4]
  if (!((tmp_state == HAL_SPI_STATE_READY) ||
 80036ae:	2801      	cmp	r0, #1
 80036b0:	d00d      	beq.n	80036ce <HAL_SPI_TransmitReceive_DMA+0x3e>
 80036b2:	2082      	movs	r0, #130	; 0x82
 80036b4:	0040      	lsls	r0, r0, #1
 80036b6:	4684      	mov	ip, r0
 80036b8:	6867      	ldr	r7, [r4, #4]
    errorcode = HAL_BUSY;
 80036ba:	3803      	subs	r0, #3
 80036bc:	38ff      	subs	r0, #255	; 0xff
  if (!((tmp_state == HAL_SPI_STATE_READY) ||
 80036be:	4567      	cmp	r7, ip
 80036c0:	d135      	bne.n	800372e <HAL_SPI_TransmitReceive_DMA+0x9e>
        ((tmp_mode == SPI_MODE_MASTER) && (hspi->Init.Direction == SPI_DIRECTION_2LINES) && (tmp_state == HAL_SPI_STATE_BUSY_RX))))
 80036c2:	68a7      	ldr	r7, [r4, #8]
 80036c4:	2f00      	cmp	r7, #0
 80036c6:	d132      	bne.n	800372e <HAL_SPI_TransmitReceive_DMA+0x9e>
 80036c8:	9f01      	ldr	r7, [sp, #4]
 80036ca:	2f04      	cmp	r7, #4
 80036cc:	d12f      	bne.n	800372e <HAL_SPI_TransmitReceive_DMA+0x9e>
    errorcode = HAL_ERROR;
 80036ce:	2001      	movs	r0, #1
  if ((pTxData == NULL) || (pRxData == NULL) || (Size == 0U))
 80036d0:	2900      	cmp	r1, #0
 80036d2:	d02c      	beq.n	800372e <HAL_SPI_TransmitReceive_DMA+0x9e>
 80036d4:	2a00      	cmp	r2, #0
 80036d6:	d02a      	beq.n	800372e <HAL_SPI_TransmitReceive_DMA+0x9e>
 80036d8:	2b00      	cmp	r3, #0
 80036da:	d028      	beq.n	800372e <HAL_SPI_TransmitReceive_DMA+0x9e>
  if (hspi->State != HAL_SPI_STATE_BUSY_RX)
 80036dc:	7828      	ldrb	r0, [r5, #0]
 80036de:	2804      	cmp	r0, #4
 80036e0:	d001      	beq.n	80036e6 <HAL_SPI_TransmitReceive_DMA+0x56>
    hspi->State = HAL_SPI_STATE_BUSY_TX_RX;
 80036e2:	2005      	movs	r0, #5
 80036e4:	7028      	strb	r0, [r5, #0]
  hspi->ErrorCode   = HAL_SPI_ERROR_NONE;
 80036e6:	2000      	movs	r0, #0
  hspi->pTxBuffPtr  = (uint8_t *)pTxData;
 80036e8:	6321      	str	r1, [r4, #48]	; 0x30
  hspi->ErrorCode   = HAL_SPI_ERROR_NONE;
 80036ea:	6560      	str	r0, [r4, #84]	; 0x54
  hspi->RxISR       = NULL;
 80036ec:	6420      	str	r0, [r4, #64]	; 0x40
  hspi->TxXferCount = Size;
 80036ee:	86e3      	strh	r3, [r4, #54]	; 0x36
  hspi->TxISR       = NULL;
 80036f0:	6460      	str	r0, [r4, #68]	; 0x44
  hspi->TxXferSize  = Size;
 80036f2:	86a3      	strh	r3, [r4, #52]	; 0x34
  hspi->pRxBuffPtr  = (uint8_t *)pRxData;
 80036f4:	63a2      	str	r2, [r4, #56]	; 0x38
  hspi->RxXferSize  = Size;
 80036f6:	87a3      	strh	r3, [r4, #60]	; 0x3c
  hspi->RxXferCount = Size;
 80036f8:	87e3      	strh	r3, [r4, #62]	; 0x3e
  if (hspi->State == HAL_SPI_STATE_BUSY_RX)
 80036fa:	782b      	ldrb	r3, [r5, #0]
 80036fc:	6ce0      	ldr	r0, [r4, #76]	; 0x4c
 80036fe:	2b04      	cmp	r3, #4
 8003700:	d118      	bne.n	8003734 <HAL_SPI_TransmitReceive_DMA+0xa4>
    hspi->hdmarx->XferHalfCpltCallback = SPI_DMAHalfReceiveCplt;
 8003702:	4b23      	ldr	r3, [pc, #140]	; (8003790 <HAL_SPI_TransmitReceive_DMA+0x100>)
 8003704:	6303      	str	r3, [r0, #48]	; 0x30
    hspi->hdmarx->XferCpltCallback     = SPI_DMAReceiveCplt;
 8003706:	4b23      	ldr	r3, [pc, #140]	; (8003794 <HAL_SPI_TransmitReceive_DMA+0x104>)
    hspi->hdmarx->XferCpltCallback     = SPI_DMATransmitReceiveCplt;
 8003708:	62c3      	str	r3, [r0, #44]	; 0x2c
  hspi->hdmarx->XferErrorCallback = SPI_DMAError;
 800370a:	4b23      	ldr	r3, [pc, #140]	; (8003798 <HAL_SPI_TransmitReceive_DMA+0x108>)
  if (HAL_OK != HAL_DMA_Start_IT(hspi->hdmarx, (uint32_t)&hspi->Instance->DR, (uint32_t)hspi->pRxBuffPtr, hspi->RxXferCount))
 800370c:	6821      	ldr	r1, [r4, #0]
  hspi->hdmarx->XferErrorCallback = SPI_DMAError;
 800370e:	6343      	str	r3, [r0, #52]	; 0x34
  hspi->hdmarx->XferAbortCallback = NULL;
 8003710:	2300      	movs	r3, #0
 8003712:	6383      	str	r3, [r0, #56]	; 0x38
  if (HAL_OK != HAL_DMA_Start_IT(hspi->hdmarx, (uint32_t)&hspi->Instance->DR, (uint32_t)hspi->pRxBuffPtr, hspi->RxXferCount))
 8003714:	8fe3      	ldrh	r3, [r4, #62]	; 0x3e
 8003716:	310c      	adds	r1, #12
 8003718:	b29b      	uxth	r3, r3
 800371a:	f7ff f8ad 	bl	8002878 <HAL_DMA_Start_IT>
 800371e:	1e03      	subs	r3, r0, #0
 8003720:	d00c      	beq.n	800373c <HAL_SPI_TransmitReceive_DMA+0xac>
    SET_BIT(hspi->ErrorCode, HAL_SPI_ERROR_DMA);
 8003722:	2310      	movs	r3, #16
    hspi->State = HAL_SPI_STATE_READY;
 8003724:	2001      	movs	r0, #1
    SET_BIT(hspi->ErrorCode, HAL_SPI_ERROR_DMA);
 8003726:	6d62      	ldr	r2, [r4, #84]	; 0x54
 8003728:	4313      	orrs	r3, r2
 800372a:	6563      	str	r3, [r4, #84]	; 0x54
    hspi->State = HAL_SPI_STATE_READY;
 800372c:	7028      	strb	r0, [r5, #0]
  __HAL_UNLOCK(hspi);
 800372e:	2300      	movs	r3, #0
 8003730:	7033      	strb	r3, [r6, #0]
}
 8003732:	bdfe      	pop	{r1, r2, r3, r4, r5, r6, r7, pc}
    hspi->hdmarx->XferHalfCpltCallback = SPI_DMAHalfTransmitReceiveCplt;
 8003734:	4b19      	ldr	r3, [pc, #100]	; (800379c <HAL_SPI_TransmitReceive_DMA+0x10c>)
 8003736:	6303      	str	r3, [r0, #48]	; 0x30
    hspi->hdmarx->XferCpltCallback     = SPI_DMATransmitReceiveCplt;
 8003738:	4b19      	ldr	r3, [pc, #100]	; (80037a0 <HAL_SPI_TransmitReceive_DMA+0x110>)
 800373a:	e7e5      	b.n	8003708 <HAL_SPI_TransmitReceive_DMA+0x78>
  SET_BIT(hspi->Instance->CR2, SPI_CR2_RXDMAEN);
 800373c:	2701      	movs	r7, #1
 800373e:	6822      	ldr	r2, [r4, #0]
  hspi->hdmatx->XferHalfCpltCallback = NULL;
 8003740:	6ca0      	ldr	r0, [r4, #72]	; 0x48
  SET_BIT(hspi->Instance->CR2, SPI_CR2_RXDMAEN);
 8003742:	6851      	ldr	r1, [r2, #4]
 8003744:	4339      	orrs	r1, r7
 8003746:	6051      	str	r1, [r2, #4]
  hspi->hdmatx->XferHalfCpltCallback = NULL;
 8003748:	6303      	str	r3, [r0, #48]	; 0x30
  hspi->hdmatx->XferCpltCallback     = NULL;
 800374a:	62c3      	str	r3, [r0, #44]	; 0x2c
  hspi->hdmatx->XferErrorCallback    = NULL;
 800374c:	6343      	str	r3, [r0, #52]	; 0x34
  hspi->hdmatx->XferAbortCallback    = NULL;
 800374e:	6383      	str	r3, [r0, #56]	; 0x38
  if (HAL_OK != HAL_DMA_Start_IT(hspi->hdmatx, (uint32_t)hspi->pTxBuffPtr, (uint32_t)&hspi->Instance->DR, hspi->TxXferCount))
 8003750:	8ee3      	ldrh	r3, [r4, #54]	; 0x36
 8003752:	6b21      	ldr	r1, [r4, #48]	; 0x30
 8003754:	b29b      	uxth	r3, r3
 8003756:	320c      	adds	r2, #12
 8003758:	f7ff f88e 	bl	8002878 <HAL_DMA_Start_IT>
 800375c:	2800      	cmp	r0, #0
 800375e:	d006      	beq.n	800376e <HAL_SPI_TransmitReceive_DMA+0xde>
    SET_BIT(hspi->ErrorCode, HAL_SPI_ERROR_DMA);
 8003760:	2310      	movs	r3, #16
 8003762:	6d62      	ldr	r2, [r4, #84]	; 0x54
    errorcode = HAL_ERROR;
 8003764:	0038      	movs	r0, r7
    SET_BIT(hspi->ErrorCode, HAL_SPI_ERROR_DMA);
 8003766:	4313      	orrs	r3, r2
 8003768:	6563      	str	r3, [r4, #84]	; 0x54
    hspi->State = HAL_SPI_STATE_READY;
 800376a:	702f      	strb	r7, [r5, #0]
    goto error;
 800376c:	e7df      	b.n	800372e <HAL_SPI_TransmitReceive_DMA+0x9e>
  if ((hspi->Instance->CR1 & SPI_CR1_SPE) != SPI_CR1_SPE)
 800376e:	2240      	movs	r2, #64	; 0x40
 8003770:	6823      	ldr	r3, [r4, #0]
 8003772:	6819      	ldr	r1, [r3, #0]
 8003774:	4211      	tst	r1, r2
 8003776:	d102      	bne.n	800377e <HAL_SPI_TransmitReceive_DMA+0xee>
    __HAL_SPI_ENABLE(hspi);
 8003778:	6819      	ldr	r1, [r3, #0]
 800377a:	430a      	orrs	r2, r1
 800377c:	601a      	str	r2, [r3, #0]
  __HAL_SPI_ENABLE_IT(hspi, (SPI_IT_ERR));
 800377e:	2220      	movs	r2, #32
 8003780:	6859      	ldr	r1, [r3, #4]
 8003782:	430a      	orrs	r2, r1
 8003784:	605a      	str	r2, [r3, #4]
  SET_BIT(hspi->Instance->CR2, SPI_CR2_TXDMAEN);
 8003786:	2202      	movs	r2, #2
 8003788:	6859      	ldr	r1, [r3, #4]
 800378a:	430a      	orrs	r2, r1
 800378c:	605a      	str	r2, [r3, #4]
 800378e:	e7ce      	b.n	800372e <HAL_SPI_TransmitReceive_DMA+0x9e>
 8003790:	08003891 	.word	0x08003891
 8003794:	080038cd 	.word	0x080038cd
 8003798:	080038a9 	.word	0x080038a9
 800379c:	0800389d 	.word	0x0800389d
 80037a0:	08003923 	.word	0x08003923

080037a4 <HAL_SPI_Receive_DMA>:
{
 80037a4:	b5f8      	push	{r3, r4, r5, r6, r7, lr}
 80037a6:	0004      	movs	r4, r0
  if ((hspi->Init.Direction == SPI_DIRECTION_2LINES) && (hspi->Init.Mode == SPI_MODE_MASTER))
 80037a8:	6880      	ldr	r0, [r0, #8]
{
 80037aa:	0013      	movs	r3, r2
  if ((hspi->Init.Direction == SPI_DIRECTION_2LINES) && (hspi->Init.Mode == SPI_MODE_MASTER))
 80037ac:	2800      	cmp	r0, #0
 80037ae:	d10f      	bne.n	80037d0 <HAL_SPI_Receive_DMA+0x2c>
 80037b0:	2282      	movs	r2, #130	; 0x82
 80037b2:	6865      	ldr	r5, [r4, #4]
 80037b4:	0052      	lsls	r2, r2, #1
 80037b6:	4295      	cmp	r5, r2
 80037b8:	d10a      	bne.n	80037d0 <HAL_SPI_Receive_DMA+0x2c>
    hspi->State = HAL_SPI_STATE_BUSY_RX;
 80037ba:	0022      	movs	r2, r4
 80037bc:	3004      	adds	r0, #4
 80037be:	3251      	adds	r2, #81	; 0x51
 80037c0:	7010      	strb	r0, [r2, #0]
    return HAL_SPI_TransmitReceive_DMA(hspi, pData, pData, Size);
 80037c2:	000a      	movs	r2, r1
 80037c4:	0020      	movs	r0, r4
 80037c6:	f7ff ff63 	bl	8003690 <HAL_SPI_TransmitReceive_DMA>
 80037ca:	0005      	movs	r5, r0
}
 80037cc:	0028      	movs	r0, r5
 80037ce:	bdf8      	pop	{r3, r4, r5, r6, r7, pc}
  __HAL_LOCK(hspi);
 80037d0:	0026      	movs	r6, r4
 80037d2:	3650      	adds	r6, #80	; 0x50
 80037d4:	7832      	ldrb	r2, [r6, #0]
 80037d6:	2502      	movs	r5, #2
 80037d8:	2a01      	cmp	r2, #1
 80037da:	d0f7      	beq.n	80037cc <HAL_SPI_Receive_DMA+0x28>
 80037dc:	2201      	movs	r2, #1
  if (hspi->State != HAL_SPI_STATE_READY)
 80037de:	0027      	movs	r7, r4
  __HAL_LOCK(hspi);
 80037e0:	7032      	strb	r2, [r6, #0]
  if (hspi->State != HAL_SPI_STATE_READY)
 80037e2:	3751      	adds	r7, #81	; 0x51
 80037e4:	783a      	ldrb	r2, [r7, #0]
 80037e6:	b2d5      	uxtb	r5, r2
 80037e8:	2a01      	cmp	r2, #1
 80037ea:	d145      	bne.n	8003878 <HAL_SPI_Receive_DMA+0xd4>
  if ((pData == NULL) || (Size == 0U))
 80037ec:	2900      	cmp	r1, #0
 80037ee:	d02e      	beq.n	800384e <HAL_SPI_Receive_DMA+0xaa>
 80037f0:	2b00      	cmp	r3, #0
 80037f2:	d02c      	beq.n	800384e <HAL_SPI_Receive_DMA+0xaa>
  hspi->State       = HAL_SPI_STATE_BUSY_RX;
 80037f4:	3203      	adds	r2, #3
 80037f6:	703a      	strb	r2, [r7, #0]
  hspi->ErrorCode   = HAL_SPI_ERROR_NONE;
 80037f8:	2200      	movs	r2, #0
  hspi->RxXferSize  = Size;
 80037fa:	87a3      	strh	r3, [r4, #60]	; 0x3c
  hspi->ErrorCode   = HAL_SPI_ERROR_NONE;
 80037fc:	6562      	str	r2, [r4, #84]	; 0x54
  hspi->RxXferCount = Size;
 80037fe:	87e3      	strh	r3, [r4, #62]	; 0x3e
  if (hspi->Init.Direction == SPI_DIRECTION_1LINE)
 8003800:	2380      	movs	r3, #128	; 0x80
  hspi->RxISR       = NULL;
 8003802:	6422      	str	r2, [r4, #64]	; 0x40
  hspi->TxISR       = NULL;
 8003804:	6462      	str	r2, [r4, #68]	; 0x44
  hspi->TxXferSize  = 0U;
 8003806:	86a2      	strh	r2, [r4, #52]	; 0x34
  hspi->TxXferCount = 0U;
 8003808:	86e2      	strh	r2, [r4, #54]	; 0x36
  hspi->pRxBuffPtr  = (uint8_t *)pData;
 800380a:	63a1      	str	r1, [r4, #56]	; 0x38
  if (hspi->Init.Direction == SPI_DIRECTION_1LINE)
 800380c:	6822      	ldr	r2, [r4, #0]
 800380e:	021b      	lsls	r3, r3, #8
 8003810:	4298      	cmp	r0, r3
 8003812:	d103      	bne.n	800381c <HAL_SPI_Receive_DMA+0x78>
    SPI_1LINE_RX(hspi);
 8003814:	6813      	ldr	r3, [r2, #0]
 8003816:	4819      	ldr	r0, [pc, #100]	; (800387c <HAL_SPI_Receive_DMA+0xd8>)
 8003818:	4003      	ands	r3, r0
 800381a:	6013      	str	r3, [r2, #0]
  hspi->hdmarx->XferHalfCpltCallback = SPI_DMAHalfReceiveCplt;
 800381c:	6ce0      	ldr	r0, [r4, #76]	; 0x4c
 800381e:	4b18      	ldr	r3, [pc, #96]	; (8003880 <HAL_SPI_Receive_DMA+0xdc>)
  if (HAL_OK != HAL_DMA_Start_IT(hspi->hdmarx, (uint32_t)&hspi->Instance->DR, (uint32_t)hspi->pRxBuffPtr, hspi->RxXferCount))
 8003820:	320c      	adds	r2, #12
  hspi->hdmarx->XferHalfCpltCallback = SPI_DMAHalfReceiveCplt;
 8003822:	6303      	str	r3, [r0, #48]	; 0x30
  hspi->hdmarx->XferCpltCallback = SPI_DMAReceiveCplt;
 8003824:	4b17      	ldr	r3, [pc, #92]	; (8003884 <HAL_SPI_Receive_DMA+0xe0>)
  if (HAL_OK != HAL_DMA_Start_IT(hspi->hdmarx, (uint32_t)&hspi->Instance->DR, (uint32_t)hspi->pRxBuffPtr, hspi->RxXferCount))
 8003826:	4694      	mov	ip, r2
  hspi->hdmarx->XferCpltCallback = SPI_DMAReceiveCplt;
 8003828:	62c3      	str	r3, [r0, #44]	; 0x2c
  hspi->hdmarx->XferErrorCallback = SPI_DMAError;
 800382a:	4b17      	ldr	r3, [pc, #92]	; (8003888 <HAL_SPI_Receive_DMA+0xe4>)
  if (HAL_OK != HAL_DMA_Start_IT(hspi->hdmarx, (uint32_t)&hspi->Instance->DR, (uint32_t)hspi->pRxBuffPtr, hspi->RxXferCount))
 800382c:	000a      	movs	r2, r1
  hspi->hdmarx->XferErrorCallback = SPI_DMAError;
 800382e:	6343      	str	r3, [r0, #52]	; 0x34
  hspi->hdmarx->XferAbortCallback = NULL;
 8003830:	2300      	movs	r3, #0
 8003832:	6383      	str	r3, [r0, #56]	; 0x38
  if (HAL_OK != HAL_DMA_Start_IT(hspi->hdmarx, (uint32_t)&hspi->Instance->DR, (uint32_t)hspi->pRxBuffPtr, hspi->RxXferCount))
 8003834:	8fe3      	ldrh	r3, [r4, #62]	; 0x3e
 8003836:	4661      	mov	r1, ip
 8003838:	b29b      	uxth	r3, r3
 800383a:	f7ff f81d 	bl	8002878 <HAL_DMA_Start_IT>
 800383e:	2800      	cmp	r0, #0
 8003840:	d008      	beq.n	8003854 <HAL_SPI_Receive_DMA+0xb0>
    SET_BIT(hspi->ErrorCode, HAL_SPI_ERROR_DMA);
 8003842:	2310      	movs	r3, #16
 8003844:	6d62      	ldr	r2, [r4, #84]	; 0x54
 8003846:	4313      	orrs	r3, r2
 8003848:	6563      	str	r3, [r4, #84]	; 0x54
    hspi->State = HAL_SPI_STATE_READY;
 800384a:	2301      	movs	r3, #1
 800384c:	703b      	strb	r3, [r7, #0]
  __HAL_UNLOCK(hspi);
 800384e:	2300      	movs	r3, #0
 8003850:	7033      	strb	r3, [r6, #0]
  return errorcode;
 8003852:	e7bb      	b.n	80037cc <HAL_SPI_Receive_DMA+0x28>
  if ((hspi->Instance->CR1 & SPI_CR1_SPE) != SPI_CR1_SPE)
 8003854:	2240      	movs	r2, #64	; 0x40
 8003856:	6823      	ldr	r3, [r4, #0]
 8003858:	6819      	ldr	r1, [r3, #0]
 800385a:	4211      	tst	r1, r2
 800385c:	d102      	bne.n	8003864 <HAL_SPI_Receive_DMA+0xc0>
    __HAL_SPI_ENABLE(hspi);
 800385e:	6819      	ldr	r1, [r3, #0]
 8003860:	430a      	orrs	r2, r1
 8003862:	601a      	str	r2, [r3, #0]
  __HAL_SPI_ENABLE_IT(hspi, (SPI_IT_ERR));
 8003864:	2220      	movs	r2, #32
 8003866:	6859      	ldr	r1, [r3, #4]
  HAL_StatusTypeDef errorcode = HAL_OK;
 8003868:	2500      	movs	r5, #0
  __HAL_SPI_ENABLE_IT(hspi, (SPI_IT_ERR));
 800386a:	430a      	orrs	r2, r1
 800386c:	605a      	str	r2, [r3, #4]
  SET_BIT(hspi->Instance->CR2, SPI_CR2_RXDMAEN);
 800386e:	2201      	movs	r2, #1
 8003870:	6859      	ldr	r1, [r3, #4]
 8003872:	430a      	orrs	r2, r1
 8003874:	605a      	str	r2, [r3, #4]
 8003876:	e7ea      	b.n	800384e <HAL_SPI_Receive_DMA+0xaa>
    errorcode = HAL_BUSY;
 8003878:	2502      	movs	r5, #2
 800387a:	e7e8      	b.n	800384e <HAL_SPI_Receive_DMA+0xaa>
 800387c:	ffffbfff 	.word	0xffffbfff
 8003880:	08003891 	.word	0x08003891
 8003884:	080038cd 	.word	0x080038cd
 8003888:	080038a9 	.word	0x080038a9

0800388c <HAL_SPI_TxRxCpltCallback>:
 800388c:	4770      	bx	lr

0800388e <HAL_SPI_RxHalfCpltCallback>:
 800388e:	4770      	bx	lr

08003890 <SPI_DMAHalfReceiveCplt>:
{
 8003890:	b510      	push	{r4, lr}
  HAL_SPI_RxHalfCpltCallback(hspi);
 8003892:	6a80      	ldr	r0, [r0, #40]	; 0x28
 8003894:	f7ff fffb 	bl	800388e <HAL_SPI_RxHalfCpltCallback>
}
 8003898:	bd10      	pop	{r4, pc}

0800389a <HAL_SPI_TxRxHalfCpltCallback>:
 800389a:	4770      	bx	lr

0800389c <SPI_DMAHalfTransmitReceiveCplt>:
{
 800389c:	b510      	push	{r4, lr}
  HAL_SPI_TxRxHalfCpltCallback(hspi);
 800389e:	6a80      	ldr	r0, [r0, #40]	; 0x28
 80038a0:	f7ff fffb 	bl	800389a <HAL_SPI_TxRxHalfCpltCallback>
}
 80038a4:	bd10      	pop	{r4, pc}

080038a6 <HAL_SPI_ErrorCallback>:
 80038a6:	4770      	bx	lr

080038a8 <SPI_DMAError>:
  CLEAR_BIT(hspi->Instance->CR2, SPI_CR2_TXDMAEN | SPI_CR2_RXDMAEN);
 80038a8:	2103      	movs	r1, #3
  SPI_HandleTypeDef *hspi = (SPI_HandleTypeDef *)(((DMA_HandleTypeDef *)hdma)->Parent); /* Derogation MISRAC2012-Rule-11.5 */
 80038aa:	6a80      	ldr	r0, [r0, #40]	; 0x28
{
 80038ac:	b510      	push	{r4, lr}
  CLEAR_BIT(hspi->Instance->CR2, SPI_CR2_TXDMAEN | SPI_CR2_RXDMAEN);
 80038ae:	6802      	ldr	r2, [r0, #0]
 80038b0:	6853      	ldr	r3, [r2, #4]
 80038b2:	438b      	bics	r3, r1
 80038b4:	6053      	str	r3, [r2, #4]
  SET_BIT(hspi->ErrorCode, HAL_SPI_ERROR_DMA);
 80038b6:	2310      	movs	r3, #16
 80038b8:	6d42      	ldr	r2, [r0, #84]	; 0x54
 80038ba:	4313      	orrs	r3, r2
 80038bc:	6543      	str	r3, [r0, #84]	; 0x54
  hspi->State = HAL_SPI_STATE_READY;
 80038be:	0003      	movs	r3, r0
 80038c0:	2201      	movs	r2, #1
 80038c2:	3351      	adds	r3, #81	; 0x51
 80038c4:	701a      	strb	r2, [r3, #0]
  HAL_SPI_ErrorCallback(hspi);
 80038c6:	f7ff ffee 	bl	80038a6 <HAL_SPI_ErrorCallback>
}
 80038ca:	bd10      	pop	{r4, pc}

080038cc <SPI_DMAReceiveCplt>:
{
 80038cc:	b570      	push	{r4, r5, r6, lr}
 80038ce:	0005      	movs	r5, r0
  SPI_HandleTypeDef *hspi = (SPI_HandleTypeDef *)(((DMA_HandleTypeDef *)hdma)->Parent); /* Derogation MISRAC2012-Rule-11.5 */
 80038d0:	6a84      	ldr	r4, [r0, #40]	; 0x28
  tickstart = HAL_GetTick();
 80038d2:	f7fe ff29 	bl	8002728 <HAL_GetTick>
  if ((hdma->Instance->CCR & DMA_CCR_CIRC) != DMA_CCR_CIRC)
 80038d6:	682b      	ldr	r3, [r5, #0]
 80038d8:	2520      	movs	r5, #32
 80038da:	681b      	ldr	r3, [r3, #0]
  tickstart = HAL_GetTick();
 80038dc:	0002      	movs	r2, r0
  if ((hdma->Instance->CCR & DMA_CCR_CIRC) != DMA_CCR_CIRC)
 80038de:	422b      	tst	r3, r5
 80038e0:	d11b      	bne.n	800391a <SPI_DMAReceiveCplt+0x4e>
    CLEAR_BIT(hspi->Instance->CR2, SPI_CR2_TXDMAEN | SPI_CR2_RXDMAEN);
 80038e2:	2003      	movs	r0, #3
    __HAL_SPI_DISABLE_IT(hspi, SPI_IT_ERR);
 80038e4:	6823      	ldr	r3, [r4, #0]
 80038e6:	6859      	ldr	r1, [r3, #4]
 80038e8:	43a9      	bics	r1, r5
 80038ea:	6059      	str	r1, [r3, #4]
    CLEAR_BIT(hspi->Instance->CR2, SPI_CR2_TXDMAEN | SPI_CR2_RXDMAEN);
 80038ec:	6859      	ldr	r1, [r3, #4]
 80038ee:	4381      	bics	r1, r0
 80038f0:	6059      	str	r1, [r3, #4]
    if (SPI_EndRxTransaction(hspi, SPI_DEFAULT_TIMEOUT, tickstart) != HAL_OK)
 80038f2:	0020      	movs	r0, r4
 80038f4:	2164      	movs	r1, #100	; 0x64
 80038f6:	f7ff fd4b 	bl	8003390 <SPI_EndRxTransaction>
 80038fa:	2800      	cmp	r0, #0
 80038fc:	d000      	beq.n	8003900 <SPI_DMAReceiveCplt+0x34>
      hspi->ErrorCode = HAL_SPI_ERROR_FLAG;
 80038fe:	6565      	str	r5, [r4, #84]	; 0x54
    hspi->RxXferCount = 0U;
 8003900:	2300      	movs	r3, #0
 8003902:	87e3      	strh	r3, [r4, #62]	; 0x3e
    hspi->State = HAL_SPI_STATE_READY;
 8003904:	0023      	movs	r3, r4
 8003906:	2201      	movs	r2, #1
 8003908:	3351      	adds	r3, #81	; 0x51
 800390a:	701a      	strb	r2, [r3, #0]
    if (hspi->ErrorCode != HAL_SPI_ERROR_NONE)
 800390c:	6d63      	ldr	r3, [r4, #84]	; 0x54
 800390e:	2b00      	cmp	r3, #0
 8003910:	d003      	beq.n	800391a <SPI_DMAReceiveCplt+0x4e>
      HAL_SPI_ErrorCallback(hspi);
 8003912:	0020      	movs	r0, r4
 8003914:	f7ff ffc7 	bl	80038a6 <HAL_SPI_ErrorCallback>
}
 8003918:	bd70      	pop	{r4, r5, r6, pc}
  HAL_SPI_RxCpltCallback(hspi);
 800391a:	0020      	movs	r0, r4
 800391c:	f001 fb6a 	bl	8004ff4 <HAL_SPI_RxCpltCallback>
 8003920:	e7fa      	b.n	8003918 <SPI_DMAReceiveCplt+0x4c>

08003922 <SPI_DMATransmitReceiveCplt>:
{
 8003922:	b570      	push	{r4, r5, r6, lr}
 8003924:	0005      	movs	r5, r0
  SPI_HandleTypeDef *hspi = (SPI_HandleTypeDef *)(((DMA_HandleTypeDef *)hdma)->Parent); /* Derogation MISRAC2012-Rule-11.5 */
 8003926:	6a84      	ldr	r4, [r0, #40]	; 0x28
  tickstart = HAL_GetTick();
 8003928:	f7fe fefe 	bl	8002728 <HAL_GetTick>
  if ((hdma->Instance->CCR & DMA_CCR_CIRC) != DMA_CCR_CIRC)
 800392c:	682b      	ldr	r3, [r5, #0]
 800392e:	2520      	movs	r5, #32
 8003930:	681b      	ldr	r3, [r3, #0]
  tickstart = HAL_GetTick();
 8003932:	0002      	movs	r2, r0
  if ((hdma->Instance->CCR & DMA_CCR_CIRC) != DMA_CCR_CIRC)
 8003934:	422b      	tst	r3, r5
 8003936:	d11f      	bne.n	8003978 <SPI_DMATransmitReceiveCplt+0x56>
    __HAL_SPI_DISABLE_IT(hspi, SPI_IT_ERR);
 8003938:	6821      	ldr	r1, [r4, #0]
    if (SPI_EndRxTxTransaction(hspi, SPI_DEFAULT_TIMEOUT, tickstart) != HAL_OK)
 800393a:	0020      	movs	r0, r4
    __HAL_SPI_DISABLE_IT(hspi, SPI_IT_ERR);
 800393c:	684b      	ldr	r3, [r1, #4]
 800393e:	43ab      	bics	r3, r5
 8003940:	604b      	str	r3, [r1, #4]
    if (SPI_EndRxTxTransaction(hspi, SPI_DEFAULT_TIMEOUT, tickstart) != HAL_OK)
 8003942:	2164      	movs	r1, #100	; 0x64
 8003944:	f7ff fd4e 	bl	80033e4 <SPI_EndRxTxTransaction>
 8003948:	2800      	cmp	r0, #0
 800394a:	d002      	beq.n	8003952 <SPI_DMATransmitReceiveCplt+0x30>
      SET_BIT(hspi->ErrorCode, HAL_SPI_ERROR_FLAG);
 800394c:	6d63      	ldr	r3, [r4, #84]	; 0x54
 800394e:	431d      	orrs	r5, r3
 8003950:	6565      	str	r5, [r4, #84]	; 0x54
    CLEAR_BIT(hspi->Instance->CR2, SPI_CR2_TXDMAEN | SPI_CR2_RXDMAEN);
 8003952:	2103      	movs	r1, #3
 8003954:	6822      	ldr	r2, [r4, #0]
 8003956:	6853      	ldr	r3, [r2, #4]
 8003958:	438b      	bics	r3, r1
 800395a:	6053      	str	r3, [r2, #4]
    hspi->TxXferCount = 0U;
 800395c:	2300      	movs	r3, #0
 800395e:	86e3      	strh	r3, [r4, #54]	; 0x36
    hspi->RxXferCount = 0U;
 8003960:	87e3      	strh	r3, [r4, #62]	; 0x3e
    hspi->State = HAL_SPI_STATE_READY;
 8003962:	0023      	movs	r3, r4
 8003964:	2201      	movs	r2, #1
 8003966:	3351      	adds	r3, #81	; 0x51
 8003968:	701a      	strb	r2, [r3, #0]
    if (hspi->ErrorCode != HAL_SPI_ERROR_NONE)
 800396a:	6d63      	ldr	r3, [r4, #84]	; 0x54
 800396c:	2b00      	cmp	r3, #0
 800396e:	d003      	beq.n	8003978 <SPI_DMATransmitReceiveCplt+0x56>
      HAL_SPI_ErrorCallback(hspi);
 8003970:	0020      	movs	r0, r4
 8003972:	f7ff ff98 	bl	80038a6 <HAL_SPI_ErrorCallback>
}
 8003976:	bd70      	pop	{r4, r5, r6, pc}
  HAL_SPI_TxRxCpltCallback(hspi);
 8003978:	0020      	movs	r0, r4
 800397a:	f7ff ff87 	bl	800388c <HAL_SPI_TxRxCpltCallback>
 800397e:	e7fa      	b.n	8003976 <SPI_DMATransmitReceiveCplt+0x54>

08003980 <TIM_Base_SetConfig>:
{
  uint32_t tmpcr1;
  tmpcr1 = TIMx->CR1;

  /* Set TIM Time Base Unit parameters ---------------------------------------*/
  if (IS_TIM_COUNTER_MODE_SELECT_INSTANCE(TIMx))
 8003980:	2280      	movs	r2, #128	; 0x80
  tmpcr1 = TIMx->CR1;
 8003982:	6803      	ldr	r3, [r0, #0]
  if (IS_TIM_COUNTER_MODE_SELECT_INSTANCE(TIMx))
 8003984:	05d2      	lsls	r2, r2, #23
 8003986:	4290      	cmp	r0, r2
 8003988:	d008      	beq.n	800399c <TIM_Base_SetConfig+0x1c>
 800398a:	4a15      	ldr	r2, [pc, #84]	; (80039e0 <TIM_Base_SetConfig+0x60>)
 800398c:	4290      	cmp	r0, r2
 800398e:	d005      	beq.n	800399c <TIM_Base_SetConfig+0x1c>
 8003990:	4a14      	ldr	r2, [pc, #80]	; (80039e4 <TIM_Base_SetConfig+0x64>)
 8003992:	4290      	cmp	r0, r2
 8003994:	d002      	beq.n	800399c <TIM_Base_SetConfig+0x1c>
 8003996:	4a14      	ldr	r2, [pc, #80]	; (80039e8 <TIM_Base_SetConfig+0x68>)
 8003998:	4290      	cmp	r0, r2
 800399a:	d114      	bne.n	80039c6 <TIM_Base_SetConfig+0x46>
  {
    /* Select the Counter Mode */
    tmpcr1 &= ~(TIM_CR1_DIR | TIM_CR1_CMS);
 800399c:	2270      	movs	r2, #112	; 0x70
 800399e:	4393      	bics	r3, r2
    tmpcr1 |= Structure->CounterMode;
 80039a0:	684a      	ldr	r2, [r1, #4]
 80039a2:	4313      	orrs	r3, r2
  }

  if (IS_TIM_CLOCK_DIVISION_INSTANCE(TIMx))
 80039a4:	2280      	movs	r2, #128	; 0x80
 80039a6:	05d2      	lsls	r2, r2, #23
 80039a8:	4290      	cmp	r0, r2
 80039aa:	d008      	beq.n	80039be <TIM_Base_SetConfig+0x3e>
 80039ac:	4a0c      	ldr	r2, [pc, #48]	; (80039e0 <TIM_Base_SetConfig+0x60>)
 80039ae:	4290      	cmp	r0, r2
 80039b0:	d005      	beq.n	80039be <TIM_Base_SetConfig+0x3e>
 80039b2:	4a0c      	ldr	r2, [pc, #48]	; (80039e4 <TIM_Base_SetConfig+0x64>)
 80039b4:	4290      	cmp	r0, r2
 80039b6:	d002      	beq.n	80039be <TIM_Base_SetConfig+0x3e>
 80039b8:	4a0b      	ldr	r2, [pc, #44]	; (80039e8 <TIM_Base_SetConfig+0x68>)
 80039ba:	4290      	cmp	r0, r2
 80039bc:	d103      	bne.n	80039c6 <TIM_Base_SetConfig+0x46>
  {
    /* Set the clock division */
    tmpcr1 &= ~TIM_CR1_CKD;
 80039be:	4a0b      	ldr	r2, [pc, #44]	; (80039ec <TIM_Base_SetConfig+0x6c>)
 80039c0:	4013      	ands	r3, r2
    tmpcr1 |= (uint32_t)Structure->ClockDivision;
 80039c2:	68ca      	ldr	r2, [r1, #12]
 80039c4:	4313      	orrs	r3, r2
  }

  /* Set the auto-reload preload */
  MODIFY_REG(tmpcr1, TIM_CR1_ARPE, Structure->AutoReloadPreload);
 80039c6:	2280      	movs	r2, #128	; 0x80
 80039c8:	4393      	bics	r3, r2
 80039ca:	690a      	ldr	r2, [r1, #16]
 80039cc:	4313      	orrs	r3, r2

  TIMx->CR1 = tmpcr1;
 80039ce:	6003      	str	r3, [r0, #0]

  /* Set the Autoreload value */
  TIMx->ARR = (uint32_t)Structure->Period ;
 80039d0:	688b      	ldr	r3, [r1, #8]
 80039d2:	62c3      	str	r3, [r0, #44]	; 0x2c

  /* Set the Prescaler value */
  TIMx->PSC = Structure->Prescaler;
 80039d4:	680b      	ldr	r3, [r1, #0]
 80039d6:	6283      	str	r3, [r0, #40]	; 0x28

  /* Generate an update event to reload the Prescaler
     and the repetition counter (only for advanced timer) value immediately */
  TIMx->EGR = TIM_EGR_UG;
 80039d8:	2301      	movs	r3, #1
 80039da:	6143      	str	r3, [r0, #20]
}
 80039dc:	4770      	bx	lr
 80039de:	46c0      	nop			; (mov r8, r8)
 80039e0:	40000400 	.word	0x40000400
 80039e4:	40010800 	.word	0x40010800
 80039e8:	40011400 	.word	0x40011400
 80039ec:	fffffcff 	.word	0xfffffcff

080039f0 <TIM_OC1_SetConfig>:
  uint32_t tmpccmrx;
  uint32_t tmpccer;
  uint32_t tmpcr2;

  /* Disable the Channel 1: Reset the CC1E Bit */
  TIMx->CCER &= ~TIM_CCER_CC1E;
 80039f0:	2201      	movs	r2, #1
{
 80039f2:	b530      	push	{r4, r5, lr}
  /* Get the TIMx CCMR1 register value */
  tmpccmrx = TIMx->CCMR1;

  /* Reset the Output Compare Mode Bits */
  tmpccmrx &= ~TIM_CCMR1_OC1M;
  tmpccmrx &= ~TIM_CCMR1_CC1S;
 80039f4:	2573      	movs	r5, #115	; 0x73
  TIMx->CCER &= ~TIM_CCER_CC1E;
 80039f6:	6a03      	ldr	r3, [r0, #32]
 80039f8:	4393      	bics	r3, r2
 80039fa:	6203      	str	r3, [r0, #32]
  tmpccer = TIMx->CCER;
 80039fc:	6a03      	ldr	r3, [r0, #32]
  tmpcr2 =  TIMx->CR2;
 80039fe:	6844      	ldr	r4, [r0, #4]
  tmpccmrx = TIMx->CCMR1;
 8003a00:	6982      	ldr	r2, [r0, #24]
  tmpccmrx &= ~TIM_CCMR1_CC1S;
 8003a02:	43aa      	bics	r2, r5
  /* Select the Output Compare Mode */
  tmpccmrx |= OC_Config->OCMode;
 8003a04:	680d      	ldr	r5, [r1, #0]
 8003a06:	432a      	orrs	r2, r5

  /* Reset the Output Polarity level */
  tmpccer &= ~TIM_CCER_CC1P;
 8003a08:	2502      	movs	r5, #2
 8003a0a:	43ab      	bics	r3, r5
  /* Set the Output Compare Polarity */
  tmpccer |= OC_Config->OCPolarity;
 8003a0c:	688d      	ldr	r5, [r1, #8]

  /* Write to TIMx CR2 */
  TIMx->CR2 = tmpcr2;
 8003a0e:	6044      	str	r4, [r0, #4]

  /* Write to TIMx CCMR1 */
  TIMx->CCMR1 = tmpccmrx;
 8003a10:	6182      	str	r2, [r0, #24]

  /* Set the Capture Compare Register value */
  TIMx->CCR1 = OC_Config->Pulse;
 8003a12:	684a      	ldr	r2, [r1, #4]
  tmpccer |= OC_Config->OCPolarity;
 8003a14:	432b      	orrs	r3, r5
  TIMx->CCR1 = OC_Config->Pulse;
 8003a16:	6342      	str	r2, [r0, #52]	; 0x34

  /* Write to TIMx CCER */
  TIMx->CCER = tmpccer;
 8003a18:	6203      	str	r3, [r0, #32]
}
 8003a1a:	bd30      	pop	{r4, r5, pc}

08003a1c <TIM_OC2_SetConfig>:
  uint32_t tmpccmrx;
  uint32_t tmpccer;
  uint32_t tmpcr2;

  /* Disable the Channel 2: Reset the CC2E Bit */
  TIMx->CCER &= ~TIM_CCER_CC2E;
 8003a1c:	2210      	movs	r2, #16
 8003a1e:	6a03      	ldr	r3, [r0, #32]
{
 8003a20:	b530      	push	{r4, r5, lr}
  TIMx->CCER &= ~TIM_CCER_CC2E;
 8003a22:	4393      	bics	r3, r2
 8003a24:	6203      	str	r3, [r0, #32]

  /* Get the TIMx CCER register value */
  tmpccer = TIMx->CCER;
 8003a26:	6a03      	ldr	r3, [r0, #32]
  /* Get the TIMx CCMR1 register value */
  tmpccmrx = TIMx->CCMR1;

  /* Reset the Output Compare mode and Capture/Compare selection Bits */
  tmpccmrx &= ~TIM_CCMR1_OC2M;
  tmpccmrx &= ~TIM_CCMR1_CC2S;
 8003a28:	4c09      	ldr	r4, [pc, #36]	; (8003a50 <TIM_OC2_SetConfig+0x34>)
  tmpcr2 =  TIMx->CR2;
 8003a2a:	6845      	ldr	r5, [r0, #4]
  tmpccmrx = TIMx->CCMR1;
 8003a2c:	6982      	ldr	r2, [r0, #24]
  tmpccmrx &= ~TIM_CCMR1_CC2S;
 8003a2e:	4014      	ands	r4, r2

  /* Select the Output Compare Mode */
  tmpccmrx |= (OC_Config->OCMode << 8U);
 8003a30:	680a      	ldr	r2, [r1, #0]
 8003a32:	0212      	lsls	r2, r2, #8
 8003a34:	4322      	orrs	r2, r4

  /* Reset the Output Polarity level */
  tmpccer &= ~TIM_CCER_CC2P;
 8003a36:	2420      	movs	r4, #32
 8003a38:	43a3      	bics	r3, r4
 8003a3a:	001c      	movs	r4, r3
  /* Set the Output Compare Polarity */
  tmpccer |= (OC_Config->OCPolarity << 4U);
 8003a3c:	688b      	ldr	r3, [r1, #8]

  /* Write to TIMx CR2 */
  TIMx->CR2 = tmpcr2;
 8003a3e:	6045      	str	r5, [r0, #4]
  tmpccer |= (OC_Config->OCPolarity << 4U);
 8003a40:	011b      	lsls	r3, r3, #4

  /* Write to TIMx CCMR1 */
  TIMx->CCMR1 = tmpccmrx;
 8003a42:	6182      	str	r2, [r0, #24]

  /* Set the Capture Compare Register value */
  TIMx->CCR2 = OC_Config->Pulse;
 8003a44:	684a      	ldr	r2, [r1, #4]
  tmpccer |= (OC_Config->OCPolarity << 4U);
 8003a46:	4323      	orrs	r3, r4
  TIMx->CCR2 = OC_Config->Pulse;
 8003a48:	6382      	str	r2, [r0, #56]	; 0x38

  /* Write to TIMx CCER */
  TIMx->CCER = tmpccer;
 8003a4a:	6203      	str	r3, [r0, #32]
}
 8003a4c:	bd30      	pop	{r4, r5, pc}
 8003a4e:	46c0      	nop			; (mov r8, r8)
 8003a50:	ffff8cff 	.word	0xffff8cff

08003a54 <TIM_CCxChannelCmd>:

  /* Check the parameters */
  assert_param(IS_TIM_CC1_INSTANCE(TIMx));
  assert_param(IS_TIM_CHANNELS(Channel));

  tmp = TIM_CCER_CC1E << (Channel & 0x1FU); /* 0x1FU = 31 bits max shift */
 8003a54:	231f      	movs	r3, #31
{
 8003a56:	b510      	push	{r4, lr}
  tmp = TIM_CCER_CC1E << (Channel & 0x1FU); /* 0x1FU = 31 bits max shift */
 8003a58:	2401      	movs	r4, #1
 8003a5a:	4019      	ands	r1, r3
 8003a5c:	408c      	lsls	r4, r1

  /* Reset the CCxE Bit */
  TIMx->CCER &= ~tmp;

  /* Set or reset the CCxE Bit */
  TIMx->CCER |= (uint32_t)(ChannelState << (Channel & 0x1FU)); /* 0x1FU = 31 bits max shift */
 8003a5e:	408a      	lsls	r2, r1
  TIMx->CCER &= ~tmp;
 8003a60:	6a03      	ldr	r3, [r0, #32]
 8003a62:	43a3      	bics	r3, r4
 8003a64:	6203      	str	r3, [r0, #32]
  TIMx->CCER |= (uint32_t)(ChannelState << (Channel & 0x1FU)); /* 0x1FU = 31 bits max shift */
 8003a66:	6a03      	ldr	r3, [r0, #32]
 8003a68:	431a      	orrs	r2, r3
 8003a6a:	6202      	str	r2, [r0, #32]
}
 8003a6c:	bd10      	pop	{r4, pc}

08003a6e <HAL_TIM_Base_Init>:
{
 8003a6e:	b570      	push	{r4, r5, r6, lr}
 8003a70:	0004      	movs	r4, r0
    return HAL_ERROR;
 8003a72:	2001      	movs	r0, #1
  if (htim == NULL)
 8003a74:	2c00      	cmp	r4, #0
 8003a76:	d014      	beq.n	8003aa2 <HAL_TIM_Base_Init+0x34>
  if (htim->State == HAL_TIM_STATE_RESET)
 8003a78:	0025      	movs	r5, r4
 8003a7a:	3539      	adds	r5, #57	; 0x39
 8003a7c:	782b      	ldrb	r3, [r5, #0]
 8003a7e:	b2da      	uxtb	r2, r3
 8003a80:	2b00      	cmp	r3, #0
 8003a82:	d105      	bne.n	8003a90 <HAL_TIM_Base_Init+0x22>
    htim->Lock = HAL_UNLOCKED;
 8003a84:	0023      	movs	r3, r4
 8003a86:	3338      	adds	r3, #56	; 0x38
    HAL_TIM_Base_MspInit(htim);
 8003a88:	0020      	movs	r0, r4
    htim->Lock = HAL_UNLOCKED;
 8003a8a:	701a      	strb	r2, [r3, #0]
    HAL_TIM_Base_MspInit(htim);
 8003a8c:	f7fe fc48 	bl	8002320 <HAL_TIM_Base_MspInit>
  htim->State = HAL_TIM_STATE_BUSY;
 8003a90:	2302      	movs	r3, #2
 8003a92:	702b      	strb	r3, [r5, #0]
  TIM_Base_SetConfig(htim->Instance, &htim->Init);
 8003a94:	6820      	ldr	r0, [r4, #0]
 8003a96:	1d21      	adds	r1, r4, #4
 8003a98:	f7ff ff72 	bl	8003980 <TIM_Base_SetConfig>
  htim->State = HAL_TIM_STATE_READY;
 8003a9c:	2301      	movs	r3, #1
  return HAL_OK;
 8003a9e:	2000      	movs	r0, #0
  htim->State = HAL_TIM_STATE_READY;
 8003aa0:	702b      	strb	r3, [r5, #0]
}
 8003aa2:	bd70      	pop	{r4, r5, r6, pc}

08003aa4 <HAL_TIM_OC_Start_DMA>:
{
 8003aa4:	b570      	push	{r4, r5, r6, lr}
 8003aa6:	000d      	movs	r5, r1
 8003aa8:	0011      	movs	r1, r2
  if ((htim->State == HAL_TIM_STATE_BUSY))
 8003aaa:	0002      	movs	r2, r0
 8003aac:	3239      	adds	r2, #57	; 0x39
 8003aae:	7816      	ldrb	r6, [r2, #0]
{
 8003ab0:	0004      	movs	r4, r0
  if ((htim->State == HAL_TIM_STATE_BUSY))
 8003ab2:	b2f0      	uxtb	r0, r6
 8003ab4:	2e02      	cmp	r6, #2
 8003ab6:	d007      	beq.n	8003ac8 <HAL_TIM_OC_Start_DMA+0x24>
  else if ((htim->State == HAL_TIM_STATE_READY))
 8003ab8:	7810      	ldrb	r0, [r2, #0]
 8003aba:	2801      	cmp	r0, #1
 8003abc:	d107      	bne.n	8003ace <HAL_TIM_OC_Start_DMA+0x2a>
    if ((pData == NULL) && (Length > 0U))
 8003abe:	2900      	cmp	r1, #0
 8003ac0:	d103      	bne.n	8003aca <HAL_TIM_OC_Start_DMA+0x26>
 8003ac2:	2b00      	cmp	r3, #0
 8003ac4:	d001      	beq.n	8003aca <HAL_TIM_OC_Start_DMA+0x26>
      return HAL_ERROR;
 8003ac6:	2001      	movs	r0, #1
}
 8003ac8:	bd70      	pop	{r4, r5, r6, pc}
      htim->State = HAL_TIM_STATE_BUSY;
 8003aca:	2002      	movs	r0, #2
 8003acc:	7010      	strb	r0, [r2, #0]
  switch (Channel)
 8003ace:	6822      	ldr	r2, [r4, #0]
 8003ad0:	2d08      	cmp	r5, #8
 8003ad2:	d04c      	beq.n	8003b6e <HAL_TIM_OC_Start_DMA+0xca>
 8003ad4:	d814      	bhi.n	8003b00 <HAL_TIM_OC_Start_DMA+0x5c>
 8003ad6:	2d00      	cmp	r5, #0
 8003ad8:	d025      	beq.n	8003b26 <HAL_TIM_OC_Start_DMA+0x82>
 8003ada:	2d04      	cmp	r5, #4
 8003adc:	d036      	beq.n	8003b4c <HAL_TIM_OC_Start_DMA+0xa8>
  TIM_CCxChannelCmd(htim->Instance, Channel, TIM_CCx_ENABLE);
 8003ade:	2201      	movs	r2, #1
 8003ae0:	0029      	movs	r1, r5
 8003ae2:	6820      	ldr	r0, [r4, #0]
 8003ae4:	f7ff ffb6 	bl	8003a54 <TIM_CCxChannelCmd>
  tmpsmcr = htim->Instance->SMCR & TIM_SMCR_SMS;
 8003ae8:	2107      	movs	r1, #7
 8003aea:	6823      	ldr	r3, [r4, #0]
  return HAL_OK;
 8003aec:	2000      	movs	r0, #0
  tmpsmcr = htim->Instance->SMCR & TIM_SMCR_SMS;
 8003aee:	689a      	ldr	r2, [r3, #8]
 8003af0:	400a      	ands	r2, r1
  if (!IS_TIM_SLAVEMODE_TRIGGER_ENABLED(tmpsmcr))
 8003af2:	2a06      	cmp	r2, #6
 8003af4:	d0e8      	beq.n	8003ac8 <HAL_TIM_OC_Start_DMA+0x24>
    __HAL_TIM_ENABLE(htim);
 8003af6:	2201      	movs	r2, #1
 8003af8:	6819      	ldr	r1, [r3, #0]
 8003afa:	430a      	orrs	r2, r1
 8003afc:	601a      	str	r2, [r3, #0]
 8003afe:	e7e3      	b.n	8003ac8 <HAL_TIM_OC_Start_DMA+0x24>
  switch (Channel)
 8003b00:	2d0c      	cmp	r5, #12
 8003b02:	d1ec      	bne.n	8003ade <HAL_TIM_OC_Start_DMA+0x3a>
      htim->hdma[TIM_DMA_ID_CC4]->XferCpltCallback = TIM_DMADelayPulseCplt;
 8003b04:	6ae0      	ldr	r0, [r4, #44]	; 0x2c
 8003b06:	4e22      	ldr	r6, [pc, #136]	; (8003b90 <HAL_TIM_OC_Start_DMA+0xec>)
      if (HAL_DMA_Start_IT(htim->hdma[TIM_DMA_ID_CC4], (uint32_t)pData, (uint32_t)&htim->Instance->CCR4, Length) != HAL_OK)
 8003b08:	3240      	adds	r2, #64	; 0x40
      htim->hdma[TIM_DMA_ID_CC4]->XferCpltCallback = TIM_DMADelayPulseCplt;
 8003b0a:	62c6      	str	r6, [r0, #44]	; 0x2c
      htim->hdma[TIM_DMA_ID_CC4]->XferHalfCpltCallback = TIM_DMADelayPulseHalfCplt;
 8003b0c:	4e21      	ldr	r6, [pc, #132]	; (8003b94 <HAL_TIM_OC_Start_DMA+0xf0>)
 8003b0e:	6306      	str	r6, [r0, #48]	; 0x30
      htim->hdma[TIM_DMA_ID_CC4]->XferErrorCallback = TIM_DMAError ;
 8003b10:	4e21      	ldr	r6, [pc, #132]	; (8003b98 <HAL_TIM_OC_Start_DMA+0xf4>)
 8003b12:	6346      	str	r6, [r0, #52]	; 0x34
      if (HAL_DMA_Start_IT(htim->hdma[TIM_DMA_ID_CC4], (uint32_t)pData, (uint32_t)&htim->Instance->CCR4, Length) != HAL_OK)
 8003b14:	f7fe feb0 	bl	8002878 <HAL_DMA_Start_IT>
 8003b18:	2800      	cmp	r0, #0
 8003b1a:	d1d4      	bne.n	8003ac6 <HAL_TIM_OC_Start_DMA+0x22>
      __HAL_TIM_ENABLE_DMA(htim, TIM_DMA_CC4);
 8003b1c:	2380      	movs	r3, #128	; 0x80
 8003b1e:	6822      	ldr	r2, [r4, #0]
 8003b20:	015b      	lsls	r3, r3, #5
 8003b22:	68d1      	ldr	r1, [r2, #12]
 8003b24:	e00f      	b.n	8003b46 <HAL_TIM_OC_Start_DMA+0xa2>
      htim->hdma[TIM_DMA_ID_CC1]->XferCpltCallback = TIM_DMADelayPulseCplt;
 8003b26:	6a20      	ldr	r0, [r4, #32]
 8003b28:	4e19      	ldr	r6, [pc, #100]	; (8003b90 <HAL_TIM_OC_Start_DMA+0xec>)
      if (HAL_DMA_Start_IT(htim->hdma[TIM_DMA_ID_CC1], (uint32_t)pData, (uint32_t)&htim->Instance->CCR1, Length) != HAL_OK)
 8003b2a:	3234      	adds	r2, #52	; 0x34
      htim->hdma[TIM_DMA_ID_CC1]->XferCpltCallback = TIM_DMADelayPulseCplt;
 8003b2c:	62c6      	str	r6, [r0, #44]	; 0x2c
      htim->hdma[TIM_DMA_ID_CC1]->XferHalfCpltCallback = TIM_DMADelayPulseHalfCplt;
 8003b2e:	4e19      	ldr	r6, [pc, #100]	; (8003b94 <HAL_TIM_OC_Start_DMA+0xf0>)
 8003b30:	6306      	str	r6, [r0, #48]	; 0x30
      htim->hdma[TIM_DMA_ID_CC1]->XferErrorCallback = TIM_DMAError ;
 8003b32:	4e19      	ldr	r6, [pc, #100]	; (8003b98 <HAL_TIM_OC_Start_DMA+0xf4>)
 8003b34:	6346      	str	r6, [r0, #52]	; 0x34
      if (HAL_DMA_Start_IT(htim->hdma[TIM_DMA_ID_CC1], (uint32_t)pData, (uint32_t)&htim->Instance->CCR1, Length) != HAL_OK)
 8003b36:	f7fe fe9f 	bl	8002878 <HAL_DMA_Start_IT>
 8003b3a:	2800      	cmp	r0, #0
 8003b3c:	d1c3      	bne.n	8003ac6 <HAL_TIM_OC_Start_DMA+0x22>
      __HAL_TIM_ENABLE_DMA(htim, TIM_DMA_CC1);
 8003b3e:	2380      	movs	r3, #128	; 0x80
 8003b40:	6822      	ldr	r2, [r4, #0]
 8003b42:	009b      	lsls	r3, r3, #2
 8003b44:	68d1      	ldr	r1, [r2, #12]
      __HAL_TIM_ENABLE_DMA(htim, TIM_DMA_CC4);
 8003b46:	430b      	orrs	r3, r1
 8003b48:	60d3      	str	r3, [r2, #12]
      break;
 8003b4a:	e7c8      	b.n	8003ade <HAL_TIM_OC_Start_DMA+0x3a>
      htim->hdma[TIM_DMA_ID_CC2]->XferCpltCallback = TIM_DMADelayPulseCplt;
 8003b4c:	6a60      	ldr	r0, [r4, #36]	; 0x24
 8003b4e:	4e10      	ldr	r6, [pc, #64]	; (8003b90 <HAL_TIM_OC_Start_DMA+0xec>)
      if (HAL_DMA_Start_IT(htim->hdma[TIM_DMA_ID_CC2], (uint32_t)pData, (uint32_t)&htim->Instance->CCR2, Length) != HAL_OK)
 8003b50:	3238      	adds	r2, #56	; 0x38
      htim->hdma[TIM_DMA_ID_CC2]->XferCpltCallback = TIM_DMADelayPulseCplt;
 8003b52:	62c6      	str	r6, [r0, #44]	; 0x2c
      htim->hdma[TIM_DMA_ID_CC2]->XferHalfCpltCallback = TIM_DMADelayPulseHalfCplt;
 8003b54:	4e0f      	ldr	r6, [pc, #60]	; (8003b94 <HAL_TIM_OC_Start_DMA+0xf0>)
 8003b56:	6306      	str	r6, [r0, #48]	; 0x30
      htim->hdma[TIM_DMA_ID_CC2]->XferErrorCallback = TIM_DMAError ;
 8003b58:	4e0f      	ldr	r6, [pc, #60]	; (8003b98 <HAL_TIM_OC_Start_DMA+0xf4>)
 8003b5a:	6346      	str	r6, [r0, #52]	; 0x34
      if (HAL_DMA_Start_IT(htim->hdma[TIM_DMA_ID_CC2], (uint32_t)pData, (uint32_t)&htim->Instance->CCR2, Length) != HAL_OK)
 8003b5c:	f7fe fe8c 	bl	8002878 <HAL_DMA_Start_IT>
 8003b60:	2800      	cmp	r0, #0
 8003b62:	d1b0      	bne.n	8003ac6 <HAL_TIM_OC_Start_DMA+0x22>
      __HAL_TIM_ENABLE_DMA(htim, TIM_DMA_CC2);
 8003b64:	2380      	movs	r3, #128	; 0x80
 8003b66:	6822      	ldr	r2, [r4, #0]
 8003b68:	00db      	lsls	r3, r3, #3
 8003b6a:	68d1      	ldr	r1, [r2, #12]
 8003b6c:	e7eb      	b.n	8003b46 <HAL_TIM_OC_Start_DMA+0xa2>
      htim->hdma[TIM_DMA_ID_CC3]->XferCpltCallback = TIM_DMADelayPulseCplt;
 8003b6e:	6aa0      	ldr	r0, [r4, #40]	; 0x28
 8003b70:	4e07      	ldr	r6, [pc, #28]	; (8003b90 <HAL_TIM_OC_Start_DMA+0xec>)
      if (HAL_DMA_Start_IT(htim->hdma[TIM_DMA_ID_CC3], (uint32_t)pData, (uint32_t)&htim->Instance->CCR3, Length) != HAL_OK)
 8003b72:	323c      	adds	r2, #60	; 0x3c
      htim->hdma[TIM_DMA_ID_CC3]->XferCpltCallback = TIM_DMADelayPulseCplt;
 8003b74:	62c6      	str	r6, [r0, #44]	; 0x2c
      htim->hdma[TIM_DMA_ID_CC3]->XferHalfCpltCallback = TIM_DMADelayPulseHalfCplt;
 8003b76:	4e07      	ldr	r6, [pc, #28]	; (8003b94 <HAL_TIM_OC_Start_DMA+0xf0>)
 8003b78:	6306      	str	r6, [r0, #48]	; 0x30
      htim->hdma[TIM_DMA_ID_CC3]->XferErrorCallback = TIM_DMAError ;
 8003b7a:	4e07      	ldr	r6, [pc, #28]	; (8003b98 <HAL_TIM_OC_Start_DMA+0xf4>)
 8003b7c:	6346      	str	r6, [r0, #52]	; 0x34
      if (HAL_DMA_Start_IT(htim->hdma[TIM_DMA_ID_CC3], (uint32_t)pData, (uint32_t)&htim->Instance->CCR3, Length) != HAL_OK)
 8003b7e:	f7fe fe7b 	bl	8002878 <HAL_DMA_Start_IT>
 8003b82:	2800      	cmp	r0, #0
 8003b84:	d19f      	bne.n	8003ac6 <HAL_TIM_OC_Start_DMA+0x22>
      __HAL_TIM_ENABLE_DMA(htim, TIM_DMA_CC3);
 8003b86:	2380      	movs	r3, #128	; 0x80
 8003b88:	6822      	ldr	r2, [r4, #0]
 8003b8a:	011b      	lsls	r3, r3, #4
 8003b8c:	68d1      	ldr	r1, [r2, #12]
 8003b8e:	e7da      	b.n	8003b46 <HAL_TIM_OC_Start_DMA+0xa2>
 8003b90:	08003e4b 	.word	0x08003e4b
 8003b94:	08003e8b 	.word	0x08003e8b
 8003b98:	08003ecb 	.word	0x08003ecb

08003b9c <HAL_TIM_PWM_MspInit>:
 8003b9c:	4770      	bx	lr

08003b9e <HAL_TIM_PWM_Init>:
{
 8003b9e:	b570      	push	{r4, r5, r6, lr}
 8003ba0:	0004      	movs	r4, r0
    return HAL_ERROR;
 8003ba2:	2001      	movs	r0, #1
  if (htim == NULL)
 8003ba4:	2c00      	cmp	r4, #0
 8003ba6:	d014      	beq.n	8003bd2 <HAL_TIM_PWM_Init+0x34>
  if (htim->State == HAL_TIM_STATE_RESET)
 8003ba8:	0025      	movs	r5, r4
 8003baa:	3539      	adds	r5, #57	; 0x39
 8003bac:	782b      	ldrb	r3, [r5, #0]
 8003bae:	b2da      	uxtb	r2, r3
 8003bb0:	2b00      	cmp	r3, #0
 8003bb2:	d105      	bne.n	8003bc0 <HAL_TIM_PWM_Init+0x22>
    htim->Lock = HAL_UNLOCKED;
 8003bb4:	0023      	movs	r3, r4
 8003bb6:	3338      	adds	r3, #56	; 0x38
    HAL_TIM_PWM_MspInit(htim);
 8003bb8:	0020      	movs	r0, r4
    htim->Lock = HAL_UNLOCKED;
 8003bba:	701a      	strb	r2, [r3, #0]
    HAL_TIM_PWM_MspInit(htim);
 8003bbc:	f7ff ffee 	bl	8003b9c <HAL_TIM_PWM_MspInit>
  htim->State = HAL_TIM_STATE_BUSY;
 8003bc0:	2302      	movs	r3, #2
 8003bc2:	702b      	strb	r3, [r5, #0]
  TIM_Base_SetConfig(htim->Instance, &htim->Init);
 8003bc4:	6820      	ldr	r0, [r4, #0]
 8003bc6:	1d21      	adds	r1, r4, #4
 8003bc8:	f7ff feda 	bl	8003980 <TIM_Base_SetConfig>
  htim->State = HAL_TIM_STATE_READY;
 8003bcc:	2301      	movs	r3, #1
  return HAL_OK;
 8003bce:	2000      	movs	r0, #0
  htim->State = HAL_TIM_STATE_READY;
 8003bd0:	702b      	strb	r3, [r5, #0]
}
 8003bd2:	bd70      	pop	{r4, r5, r6, pc}

08003bd4 <HAL_TIM_PWM_Start_DMA>:
 8003bd4:	b510      	push	{r4, lr}
 8003bd6:	f7ff ff65 	bl	8003aa4 <HAL_TIM_OC_Start_DMA>
 8003bda:	bd10      	pop	{r4, pc}

08003bdc <HAL_TIM_PWM_ConfigChannel>:
{
 8003bdc:	b5f7      	push	{r0, r1, r2, r4, r5, r6, r7, lr}
  __HAL_LOCK(htim);
 8003bde:	0006      	movs	r6, r0
 8003be0:	2302      	movs	r3, #2
 8003be2:	3638      	adds	r6, #56	; 0x38
{
 8003be4:	000c      	movs	r4, r1
  __HAL_LOCK(htim);
 8003be6:	7831      	ldrb	r1, [r6, #0]
{
 8003be8:	0005      	movs	r5, r0
  __HAL_LOCK(htim);
 8003bea:	0018      	movs	r0, r3
 8003bec:	2901      	cmp	r1, #1
 8003bee:	d010      	beq.n	8003c12 <HAL_TIM_PWM_ConfigChannel+0x36>
 8003bf0:	2101      	movs	r1, #1
 8003bf2:	7031      	strb	r1, [r6, #0]
  htim->State = HAL_TIM_STATE_BUSY;
 8003bf4:	0029      	movs	r1, r5
 8003bf6:	3139      	adds	r1, #57	; 0x39
 8003bf8:	700b      	strb	r3, [r1, #0]
  switch (Channel)
 8003bfa:	2a08      	cmp	r2, #8
 8003bfc:	d054      	beq.n	8003ca8 <HAL_TIM_PWM_ConfigChannel+0xcc>
 8003bfe:	d809      	bhi.n	8003c14 <HAL_TIM_PWM_ConfigChannel+0x38>
 8003c00:	2a00      	cmp	r2, #0
 8003c02:	d02d      	beq.n	8003c60 <HAL_TIM_PWM_ConfigChannel+0x84>
 8003c04:	2a04      	cmp	r2, #4
 8003c06:	d03d      	beq.n	8003c84 <HAL_TIM_PWM_ConfigChannel+0xa8>
  htim->State = HAL_TIM_STATE_READY;
 8003c08:	2301      	movs	r3, #1
  __HAL_UNLOCK(htim);
 8003c0a:	2000      	movs	r0, #0
  htim->State = HAL_TIM_STATE_READY;
 8003c0c:	3539      	adds	r5, #57	; 0x39
 8003c0e:	702b      	strb	r3, [r5, #0]
  __HAL_UNLOCK(htim);
 8003c10:	7030      	strb	r0, [r6, #0]
}
 8003c12:	bdfe      	pop	{r1, r2, r3, r4, r5, r6, r7, pc}
  switch (Channel)
 8003c14:	2a0c      	cmp	r2, #12
 8003c16:	d1f7      	bne.n	8003c08 <HAL_TIM_PWM_ConfigChannel+0x2c>
      TIM_OC4_SetConfig(htim->Instance, sConfig);
 8003c18:	682b      	ldr	r3, [r5, #0]
  TIMx->CCER &= ~TIM_CCER_CC4E;
 8003c1a:	4935      	ldr	r1, [pc, #212]	; (8003cf0 <HAL_TIM_PWM_ConfigChannel+0x114>)
 8003c1c:	6a1a      	ldr	r2, [r3, #32]
  tmpccmrx &= ~TIM_CCMR2_CC4S;
 8003c1e:	4835      	ldr	r0, [pc, #212]	; (8003cf4 <HAL_TIM_PWM_ConfigChannel+0x118>)
  TIMx->CCER &= ~TIM_CCER_CC4E;
 8003c20:	400a      	ands	r2, r1
 8003c22:	621a      	str	r2, [r3, #32]
  tmpccer = TIMx->CCER;
 8003c24:	6a1a      	ldr	r2, [r3, #32]
  tmpcr2 =  TIMx->CR2;
 8003c26:	685f      	ldr	r7, [r3, #4]
  tmpccmrx = TIMx->CCMR2;
 8003c28:	69d9      	ldr	r1, [r3, #28]
  tmpccmrx &= ~TIM_CCMR2_CC4S;
 8003c2a:	4001      	ands	r1, r0
  tmpccmrx |= (OC_Config->OCMode << 8U);
 8003c2c:	6820      	ldr	r0, [r4, #0]
 8003c2e:	0200      	lsls	r0, r0, #8
 8003c30:	4301      	orrs	r1, r0
  tmpccer &= ~TIM_CCER_CC4P;
 8003c32:	4831      	ldr	r0, [pc, #196]	; (8003cf8 <HAL_TIM_PWM_ConfigChannel+0x11c>)
 8003c34:	4010      	ands	r0, r2
  tmpccer |= (OC_Config->OCPolarity << 12U);
 8003c36:	68a2      	ldr	r2, [r4, #8]
  TIMx->CR2 = tmpcr2;
 8003c38:	605f      	str	r7, [r3, #4]
  tmpccer |= (OC_Config->OCPolarity << 12U);
 8003c3a:	0312      	lsls	r2, r2, #12
  TIMx->CCMR2 = tmpccmrx;
 8003c3c:	61d9      	str	r1, [r3, #28]
  TIMx->CCR4 = OC_Config->Pulse;
 8003c3e:	6861      	ldr	r1, [r4, #4]
  tmpccer |= (OC_Config->OCPolarity << 12U);
 8003c40:	4302      	orrs	r2, r0
  TIMx->CCR4 = OC_Config->Pulse;
 8003c42:	6419      	str	r1, [r3, #64]	; 0x40
  TIMx->CCER = tmpccer;
 8003c44:	621a      	str	r2, [r3, #32]
      htim->Instance->CCMR2 |= TIM_CCMR2_OC4PE;
 8003c46:	2280      	movs	r2, #128	; 0x80
 8003c48:	69d9      	ldr	r1, [r3, #28]
 8003c4a:	0112      	lsls	r2, r2, #4
 8003c4c:	430a      	orrs	r2, r1
 8003c4e:	61da      	str	r2, [r3, #28]
      htim->Instance->CCMR2 &= ~TIM_CCMR2_OC4FE;
 8003c50:	69da      	ldr	r2, [r3, #28]
 8003c52:	492a      	ldr	r1, [pc, #168]	; (8003cfc <HAL_TIM_PWM_ConfigChannel+0x120>)
 8003c54:	400a      	ands	r2, r1
 8003c56:	61da      	str	r2, [r3, #28]
      htim->Instance->CCMR2 |= sConfig->OCFastMode << 8U;
 8003c58:	68e2      	ldr	r2, [r4, #12]
 8003c5a:	69d9      	ldr	r1, [r3, #28]
 8003c5c:	0212      	lsls	r2, r2, #8
 8003c5e:	e044      	b.n	8003cea <HAL_TIM_PWM_ConfigChannel+0x10e>
      TIM_OC1_SetConfig(htim->Instance, sConfig);
 8003c60:	0021      	movs	r1, r4
 8003c62:	6828      	ldr	r0, [r5, #0]
 8003c64:	f7ff fec4 	bl	80039f0 <TIM_OC1_SetConfig>
      htim->Instance->CCMR1 |= TIM_CCMR1_OC1PE;
 8003c68:	2208      	movs	r2, #8
 8003c6a:	682b      	ldr	r3, [r5, #0]
 8003c6c:	6999      	ldr	r1, [r3, #24]
 8003c6e:	430a      	orrs	r2, r1
      htim->Instance->CCMR1 &= ~TIM_CCMR1_OC1FE;
 8003c70:	2104      	movs	r1, #4
      htim->Instance->CCMR1 |= TIM_CCMR1_OC1PE;
 8003c72:	619a      	str	r2, [r3, #24]
      htim->Instance->CCMR1 &= ~TIM_CCMR1_OC1FE;
 8003c74:	699a      	ldr	r2, [r3, #24]
 8003c76:	438a      	bics	r2, r1
 8003c78:	619a      	str	r2, [r3, #24]
      htim->Instance->CCMR1 |= sConfig->OCFastMode;
 8003c7a:	699a      	ldr	r2, [r3, #24]
 8003c7c:	68e1      	ldr	r1, [r4, #12]
      htim->Instance->CCMR1 |= sConfig->OCFastMode << 8U;
 8003c7e:	430a      	orrs	r2, r1
 8003c80:	619a      	str	r2, [r3, #24]
      break;
 8003c82:	e7c1      	b.n	8003c08 <HAL_TIM_PWM_ConfigChannel+0x2c>
      TIM_OC2_SetConfig(htim->Instance, sConfig);
 8003c84:	0021      	movs	r1, r4
 8003c86:	6828      	ldr	r0, [r5, #0]
 8003c88:	f7ff fec8 	bl	8003a1c <TIM_OC2_SetConfig>
      htim->Instance->CCMR1 |= TIM_CCMR1_OC2PE;
 8003c8c:	2280      	movs	r2, #128	; 0x80
 8003c8e:	682b      	ldr	r3, [r5, #0]
 8003c90:	0112      	lsls	r2, r2, #4
 8003c92:	6999      	ldr	r1, [r3, #24]
 8003c94:	430a      	orrs	r2, r1
 8003c96:	619a      	str	r2, [r3, #24]
      htim->Instance->CCMR1 &= ~TIM_CCMR1_OC2FE;
 8003c98:	699a      	ldr	r2, [r3, #24]
 8003c9a:	4918      	ldr	r1, [pc, #96]	; (8003cfc <HAL_TIM_PWM_ConfigChannel+0x120>)
 8003c9c:	400a      	ands	r2, r1
 8003c9e:	619a      	str	r2, [r3, #24]
      htim->Instance->CCMR1 |= sConfig->OCFastMode << 8U;
 8003ca0:	68e2      	ldr	r2, [r4, #12]
 8003ca2:	6999      	ldr	r1, [r3, #24]
 8003ca4:	0212      	lsls	r2, r2, #8
 8003ca6:	e7ea      	b.n	8003c7e <HAL_TIM_PWM_ConfigChannel+0xa2>
  tmpccmrx &= ~TIM_CCMR2_CC3S;
 8003ca8:	2773      	movs	r7, #115	; 0x73
      TIM_OC3_SetConfig(htim->Instance, sConfig);
 8003caa:	682b      	ldr	r3, [r5, #0]
  TIMx->CCER &= ~TIM_CCER_CC3E;
 8003cac:	4814      	ldr	r0, [pc, #80]	; (8003d00 <HAL_TIM_PWM_ConfigChannel+0x124>)
 8003cae:	6a19      	ldr	r1, [r3, #32]
 8003cb0:	4001      	ands	r1, r0
 8003cb2:	6219      	str	r1, [r3, #32]
  tmpccer = TIMx->CCER;
 8003cb4:	6a19      	ldr	r1, [r3, #32]
  tmpcr2 =  TIMx->CR2;
 8003cb6:	6858      	ldr	r0, [r3, #4]
 8003cb8:	9001      	str	r0, [sp, #4]
  tmpccmrx = TIMx->CCMR2;
 8003cba:	69d8      	ldr	r0, [r3, #28]
  tmpccmrx &= ~TIM_CCMR2_CC3S;
 8003cbc:	43b8      	bics	r0, r7
  tmpccmrx |= OC_Config->OCMode;
 8003cbe:	6827      	ldr	r7, [r4, #0]
 8003cc0:	4338      	orrs	r0, r7
  tmpccer &= ~TIM_CCER_CC3P;
 8003cc2:	4f10      	ldr	r7, [pc, #64]	; (8003d04 <HAL_TIM_PWM_ConfigChannel+0x128>)
 8003cc4:	400f      	ands	r7, r1
  tmpccer |= (OC_Config->OCPolarity << 8U);
 8003cc6:	68a1      	ldr	r1, [r4, #8]
 8003cc8:	0209      	lsls	r1, r1, #8
 8003cca:	4339      	orrs	r1, r7
  TIMx->CR2 = tmpcr2;
 8003ccc:	9f01      	ldr	r7, [sp, #4]
 8003cce:	605f      	str	r7, [r3, #4]
  TIMx->CCMR2 = tmpccmrx;
 8003cd0:	61d8      	str	r0, [r3, #28]
  TIMx->CCR3 = OC_Config->Pulse;
 8003cd2:	6860      	ldr	r0, [r4, #4]
 8003cd4:	63d8      	str	r0, [r3, #60]	; 0x3c
  TIMx->CCER = tmpccer;
 8003cd6:	6219      	str	r1, [r3, #32]
      htim->Instance->CCMR2 |= TIM_CCMR2_OC3PE;
 8003cd8:	69d9      	ldr	r1, [r3, #28]
 8003cda:	430a      	orrs	r2, r1
      htim->Instance->CCMR2 &= ~TIM_CCMR2_OC3FE;
 8003cdc:	2104      	movs	r1, #4
      htim->Instance->CCMR2 |= TIM_CCMR2_OC3PE;
 8003cde:	61da      	str	r2, [r3, #28]
      htim->Instance->CCMR2 &= ~TIM_CCMR2_OC3FE;
 8003ce0:	69da      	ldr	r2, [r3, #28]
 8003ce2:	438a      	bics	r2, r1
 8003ce4:	61da      	str	r2, [r3, #28]
      htim->Instance->CCMR2 |= sConfig->OCFastMode;
 8003ce6:	69da      	ldr	r2, [r3, #28]
 8003ce8:	68e1      	ldr	r1, [r4, #12]
      htim->Instance->CCMR2 |= sConfig->OCFastMode << 8U;
 8003cea:	430a      	orrs	r2, r1
 8003cec:	61da      	str	r2, [r3, #28]
      break;
 8003cee:	e78b      	b.n	8003c08 <HAL_TIM_PWM_ConfigChannel+0x2c>
 8003cf0:	ffffefff 	.word	0xffffefff
 8003cf4:	ffff8cff 	.word	0xffff8cff
 8003cf8:	ffffdfff 	.word	0xffffdfff
 8003cfc:	fffffbff 	.word	0xfffffbff
 8003d00:	fffffeff 	.word	0xfffffeff
 8003d04:	fffffdff 	.word	0xfffffdff

08003d08 <HAL_TIM_ConfigClockSource>:
{
 8003d08:	b5f0      	push	{r4, r5, r6, r7, lr}
  __HAL_LOCK(htim);
 8003d0a:	0004      	movs	r4, r0
 8003d0c:	2202      	movs	r2, #2
 8003d0e:	3438      	adds	r4, #56	; 0x38
 8003d10:	7825      	ldrb	r5, [r4, #0]
{
 8003d12:	0003      	movs	r3, r0
  __HAL_LOCK(htim);
 8003d14:	0010      	movs	r0, r2
 8003d16:	2d01      	cmp	r5, #1
 8003d18:	d024      	beq.n	8003d64 <HAL_TIM_ConfigClockSource+0x5c>
  htim->State = HAL_TIM_STATE_BUSY;
 8003d1a:	001d      	movs	r5, r3
  __HAL_LOCK(htim);
 8003d1c:	2601      	movs	r6, #1
  htim->State = HAL_TIM_STATE_BUSY;
 8003d1e:	3539      	adds	r5, #57	; 0x39
  __HAL_LOCK(htim);
 8003d20:	7026      	strb	r6, [r4, #0]
  htim->State = HAL_TIM_STATE_BUSY;
 8003d22:	702a      	strb	r2, [r5, #0]
  tmpsmcr = htim->Instance->SMCR;
 8003d24:	681b      	ldr	r3, [r3, #0]
  tmpsmcr &= ~(TIM_SMCR_ETF | TIM_SMCR_ETPS | TIM_SMCR_ECE | TIM_SMCR_ETP);
 8003d26:	4845      	ldr	r0, [pc, #276]	; (8003e3c <HAL_TIM_ConfigClockSource+0x134>)
  tmpsmcr = htim->Instance->SMCR;
 8003d28:	689a      	ldr	r2, [r3, #8]
  tmpsmcr &= ~(TIM_SMCR_ETF | TIM_SMCR_ETPS | TIM_SMCR_ECE | TIM_SMCR_ETP);
 8003d2a:	4002      	ands	r2, r0
  htim->Instance->SMCR = tmpsmcr;
 8003d2c:	609a      	str	r2, [r3, #8]
  switch (sClockSourceConfig->ClockSource)
 8003d2e:	680a      	ldr	r2, [r1, #0]
 8003d30:	2a60      	cmp	r2, #96	; 0x60
 8003d32:	d055      	beq.n	8003de0 <HAL_TIM_ConfigClockSource+0xd8>
 8003d34:	d82f      	bhi.n	8003d96 <HAL_TIM_ConfigClockSource+0x8e>
 8003d36:	2a40      	cmp	r2, #64	; 0x40
 8003d38:	d100      	bne.n	8003d3c <HAL_TIM_ConfigClockSource+0x34>
 8003d3a:	e069      	b.n	8003e10 <HAL_TIM_ConfigClockSource+0x108>
 8003d3c:	d813      	bhi.n	8003d66 <HAL_TIM_ConfigClockSource+0x5e>
 8003d3e:	2a20      	cmp	r2, #32
 8003d40:	d004      	beq.n	8003d4c <HAL_TIM_ConfigClockSource+0x44>
 8003d42:	d809      	bhi.n	8003d58 <HAL_TIM_ConfigClockSource+0x50>
 8003d44:	2110      	movs	r1, #16
 8003d46:	0010      	movs	r0, r2
 8003d48:	4388      	bics	r0, r1
 8003d4a:	d107      	bne.n	8003d5c <HAL_TIM_ConfigClockSource+0x54>
  tmpsmcr &= ~TIM_SMCR_TS;
 8003d4c:	2070      	movs	r0, #112	; 0x70
  tmpsmcr = TIMx->SMCR;
 8003d4e:	6899      	ldr	r1, [r3, #8]
  tmpsmcr &= ~TIM_SMCR_TS;
 8003d50:	4381      	bics	r1, r0
  tmpsmcr |= (InputTriggerSource | TIM_SLAVEMODE_EXTERNAL1);
 8003d52:	430a      	orrs	r2, r1
 8003d54:	2107      	movs	r1, #7
 8003d56:	e040      	b.n	8003dda <HAL_TIM_ConfigClockSource+0xd2>
  switch (sClockSourceConfig->ClockSource)
 8003d58:	2a30      	cmp	r2, #48	; 0x30
 8003d5a:	d0f7      	beq.n	8003d4c <HAL_TIM_ConfigClockSource+0x44>
  htim->State = HAL_TIM_STATE_READY;
 8003d5c:	2301      	movs	r3, #1
  __HAL_UNLOCK(htim);
 8003d5e:	2000      	movs	r0, #0
  htim->State = HAL_TIM_STATE_READY;
 8003d60:	702b      	strb	r3, [r5, #0]
  __HAL_UNLOCK(htim);
 8003d62:	7020      	strb	r0, [r4, #0]
}
 8003d64:	bdf0      	pop	{r4, r5, r6, r7, pc}
  switch (sClockSourceConfig->ClockSource)
 8003d66:	2a50      	cmp	r2, #80	; 0x50
 8003d68:	d1f8      	bne.n	8003d5c <HAL_TIM_ConfigClockSource+0x54>
      TIM_TI1_ConfigInputStage(htim->Instance,
 8003d6a:	6848      	ldr	r0, [r1, #4]
 8003d6c:	68ca      	ldr	r2, [r1, #12]
  tmpccer = TIMx->CCER;
 8003d6e:	6a19      	ldr	r1, [r3, #32]
  TIMx->CCER &= ~TIM_CCER_CC1E;
 8003d70:	6a1f      	ldr	r7, [r3, #32]
  tmpccmr1 |= (TIM_ICFilter << 4U);
 8003d72:	0112      	lsls	r2, r2, #4
  TIMx->CCER &= ~TIM_CCER_CC1E;
 8003d74:	43b7      	bics	r7, r6
 8003d76:	621f      	str	r7, [r3, #32]
  tmpccmr1 &= ~TIM_CCMR1_IC1F;
 8003d78:	27f0      	movs	r7, #240	; 0xf0
  tmpccmr1 = TIMx->CCMR1;
 8003d7a:	699e      	ldr	r6, [r3, #24]
  tmpccmr1 &= ~TIM_CCMR1_IC1F;
 8003d7c:	43be      	bics	r6, r7
  tmpccmr1 |= (TIM_ICFilter << 4U);
 8003d7e:	4332      	orrs	r2, r6
  tmpccer &= ~(TIM_CCER_CC1P | TIM_CCER_CC1NP);
 8003d80:	260a      	movs	r6, #10
 8003d82:	43b1      	bics	r1, r6
  tmpccer |= TIM_ICPolarity;
 8003d84:	4301      	orrs	r1, r0
  TIMx->CCMR1 = tmpccmr1;
 8003d86:	619a      	str	r2, [r3, #24]
  TIMx->CCER = tmpccer;
 8003d88:	6219      	str	r1, [r3, #32]
  tmpsmcr &= ~TIM_SMCR_TS;
 8003d8a:	2170      	movs	r1, #112	; 0x70
  tmpsmcr = TIMx->SMCR;
 8003d8c:	689a      	ldr	r2, [r3, #8]
  tmpsmcr &= ~TIM_SMCR_TS;
 8003d8e:	438a      	bics	r2, r1
 8003d90:	0011      	movs	r1, r2
  tmpsmcr |= (InputTriggerSource | TIM_SLAVEMODE_EXTERNAL1);
 8003d92:	2257      	movs	r2, #87	; 0x57
 8003d94:	e021      	b.n	8003dda <HAL_TIM_ConfigClockSource+0xd2>
  switch (sClockSourceConfig->ClockSource)
 8003d96:	2a70      	cmp	r2, #112	; 0x70
 8003d98:	d012      	beq.n	8003dc0 <HAL_TIM_ConfigClockSource+0xb8>
 8003d9a:	2080      	movs	r0, #128	; 0x80
 8003d9c:	0180      	lsls	r0, r0, #6
 8003d9e:	4282      	cmp	r2, r0
 8003da0:	d1dc      	bne.n	8003d5c <HAL_TIM_ConfigClockSource+0x54>
  tmpsmcr = TIMx->SMCR;
 8003da2:	689a      	ldr	r2, [r3, #8]
  tmpsmcr &= ~(TIM_SMCR_ETF | TIM_SMCR_ETPS | TIM_SMCR_ECE | TIM_SMCR_ETP);
 8003da4:	4826      	ldr	r0, [pc, #152]	; (8003e40 <HAL_TIM_ConfigClockSource+0x138>)
  tmpsmcr |= (uint32_t)(TIM_ExtTRGPrescaler | (TIM_ExtTRGPolarity | (ExtTRGFilter << 8U)));
 8003da6:	684e      	ldr	r6, [r1, #4]
  tmpsmcr &= ~(TIM_SMCR_ETF | TIM_SMCR_ETPS | TIM_SMCR_ECE | TIM_SMCR_ETP);
 8003da8:	4010      	ands	r0, r2
  tmpsmcr |= (uint32_t)(TIM_ExtTRGPrescaler | (TIM_ExtTRGPolarity | (ExtTRGFilter << 8U)));
 8003daa:	688a      	ldr	r2, [r1, #8]
 8003dac:	68c9      	ldr	r1, [r1, #12]
 8003dae:	4332      	orrs	r2, r6
 8003db0:	0209      	lsls	r1, r1, #8
 8003db2:	430a      	orrs	r2, r1
 8003db4:	4302      	orrs	r2, r0
  TIMx->SMCR = tmpsmcr;
 8003db6:	609a      	str	r2, [r3, #8]
      htim->Instance->SMCR |= TIM_SMCR_ECE;
 8003db8:	2280      	movs	r2, #128	; 0x80
 8003dba:	6899      	ldr	r1, [r3, #8]
 8003dbc:	01d2      	lsls	r2, r2, #7
 8003dbe:	e00c      	b.n	8003dda <HAL_TIM_ConfigClockSource+0xd2>
  tmpsmcr = TIMx->SMCR;
 8003dc0:	689a      	ldr	r2, [r3, #8]
  tmpsmcr &= ~(TIM_SMCR_ETF | TIM_SMCR_ETPS | TIM_SMCR_ECE | TIM_SMCR_ETP);
 8003dc2:	481f      	ldr	r0, [pc, #124]	; (8003e40 <HAL_TIM_ConfigClockSource+0x138>)
  tmpsmcr |= (uint32_t)(TIM_ExtTRGPrescaler | (TIM_ExtTRGPolarity | (ExtTRGFilter << 8U)));
 8003dc4:	684e      	ldr	r6, [r1, #4]
  tmpsmcr &= ~(TIM_SMCR_ETF | TIM_SMCR_ETPS | TIM_SMCR_ECE | TIM_SMCR_ETP);
 8003dc6:	4010      	ands	r0, r2
  tmpsmcr |= (uint32_t)(TIM_ExtTRGPrescaler | (TIM_ExtTRGPolarity | (ExtTRGFilter << 8U)));
 8003dc8:	688a      	ldr	r2, [r1, #8]
 8003dca:	68c9      	ldr	r1, [r1, #12]
 8003dcc:	4332      	orrs	r2, r6
 8003dce:	0209      	lsls	r1, r1, #8
 8003dd0:	430a      	orrs	r2, r1
 8003dd2:	4302      	orrs	r2, r0
  TIMx->SMCR = tmpsmcr;
 8003dd4:	609a      	str	r2, [r3, #8]
      tmpsmcr |= (TIM_SLAVEMODE_EXTERNAL1 | TIM_CLOCKSOURCE_ETRMODE1);
 8003dd6:	2277      	movs	r2, #119	; 0x77
      tmpsmcr = htim->Instance->SMCR;
 8003dd8:	6899      	ldr	r1, [r3, #8]
  tmpsmcr |= (InputTriggerSource | TIM_SLAVEMODE_EXTERNAL1);
 8003dda:	430a      	orrs	r2, r1
  TIMx->SMCR = tmpsmcr;
 8003ddc:	609a      	str	r2, [r3, #8]
}
 8003dde:	e7bd      	b.n	8003d5c <HAL_TIM_ConfigClockSource+0x54>
  TIMx->CCER &= ~TIM_CCER_CC2E;
 8003de0:	2610      	movs	r6, #16
 8003de2:	6a18      	ldr	r0, [r3, #32]
      TIM_TI2_ConfigInputStage(htim->Instance,
 8003de4:	684a      	ldr	r2, [r1, #4]
  TIMx->CCER &= ~TIM_CCER_CC2E;
 8003de6:	43b0      	bics	r0, r6
      TIM_TI2_ConfigInputStage(htim->Instance,
 8003de8:	68c9      	ldr	r1, [r1, #12]
  TIMx->CCER &= ~TIM_CCER_CC2E;
 8003dea:	6218      	str	r0, [r3, #32]
  tmpccmr1 = TIMx->CCMR1;
 8003dec:	699e      	ldr	r6, [r3, #24]
  tmpccmr1 &= ~TIM_CCMR1_IC2F;
 8003dee:	4f15      	ldr	r7, [pc, #84]	; (8003e44 <HAL_TIM_ConfigClockSource+0x13c>)
  tmpccmr1 |= (TIM_ICFilter << 12U);
 8003df0:	0309      	lsls	r1, r1, #12
  tmpccmr1 &= ~TIM_CCMR1_IC2F;
 8003df2:	403e      	ands	r6, r7
  tmpccmr1 |= (TIM_ICFilter << 12U);
 8003df4:	4331      	orrs	r1, r6
  tmpccer &= ~(TIM_CCER_CC2P | TIM_CCER_CC2NP);
 8003df6:	26a0      	movs	r6, #160	; 0xa0
  tmpccer = TIMx->CCER;
 8003df8:	6a18      	ldr	r0, [r3, #32]
  TIMx->CCMR1 = tmpccmr1 ;
 8003dfa:	6199      	str	r1, [r3, #24]
  tmpsmcr &= ~TIM_SMCR_TS;
 8003dfc:	2170      	movs	r1, #112	; 0x70
  tmpccer &= ~(TIM_CCER_CC2P | TIM_CCER_CC2NP);
 8003dfe:	43b0      	bics	r0, r6
  tmpccer |= (TIM_ICPolarity << 4U);
 8003e00:	0112      	lsls	r2, r2, #4
 8003e02:	4302      	orrs	r2, r0
  TIMx->CCER = tmpccer;
 8003e04:	621a      	str	r2, [r3, #32]
  tmpsmcr = TIMx->SMCR;
 8003e06:	689a      	ldr	r2, [r3, #8]
  tmpsmcr &= ~TIM_SMCR_TS;
 8003e08:	438a      	bics	r2, r1
 8003e0a:	0011      	movs	r1, r2
  tmpsmcr |= (InputTriggerSource | TIM_SLAVEMODE_EXTERNAL1);
 8003e0c:	2267      	movs	r2, #103	; 0x67
 8003e0e:	e7e4      	b.n	8003dda <HAL_TIM_ConfigClockSource+0xd2>
      TIM_TI1_ConfigInputStage(htim->Instance,
 8003e10:	6848      	ldr	r0, [r1, #4]
 8003e12:	68ca      	ldr	r2, [r1, #12]
  tmpccer = TIMx->CCER;
 8003e14:	6a19      	ldr	r1, [r3, #32]
  TIMx->CCER &= ~TIM_CCER_CC1E;
 8003e16:	6a1f      	ldr	r7, [r3, #32]
  tmpccmr1 |= (TIM_ICFilter << 4U);
 8003e18:	0112      	lsls	r2, r2, #4
  TIMx->CCER &= ~TIM_CCER_CC1E;
 8003e1a:	43b7      	bics	r7, r6
 8003e1c:	621f      	str	r7, [r3, #32]
  tmpccmr1 &= ~TIM_CCMR1_IC1F;
 8003e1e:	27f0      	movs	r7, #240	; 0xf0
  tmpccmr1 = TIMx->CCMR1;
 8003e20:	699e      	ldr	r6, [r3, #24]
  tmpccmr1 &= ~TIM_CCMR1_IC1F;
 8003e22:	43be      	bics	r6, r7
  tmpccmr1 |= (TIM_ICFilter << 4U);
 8003e24:	4332      	orrs	r2, r6
  tmpccer &= ~(TIM_CCER_CC1P | TIM_CCER_CC1NP);
 8003e26:	260a      	movs	r6, #10
 8003e28:	43b1      	bics	r1, r6
  tmpccer |= TIM_ICPolarity;
 8003e2a:	4301      	orrs	r1, r0
  TIMx->CCMR1 = tmpccmr1;
 8003e2c:	619a      	str	r2, [r3, #24]
  TIMx->CCER = tmpccer;
 8003e2e:	6219      	str	r1, [r3, #32]
  tmpsmcr &= ~TIM_SMCR_TS;
 8003e30:	2170      	movs	r1, #112	; 0x70
  tmpsmcr = TIMx->SMCR;
 8003e32:	689a      	ldr	r2, [r3, #8]
  tmpsmcr &= ~TIM_SMCR_TS;
 8003e34:	438a      	bics	r2, r1
 8003e36:	0011      	movs	r1, r2
  tmpsmcr |= (InputTriggerSource | TIM_SLAVEMODE_EXTERNAL1);
 8003e38:	2247      	movs	r2, #71	; 0x47
 8003e3a:	e7ce      	b.n	8003dda <HAL_TIM_ConfigClockSource+0xd2>
 8003e3c:	ffff0088 	.word	0xffff0088
 8003e40:	ffff00ff 	.word	0xffff00ff
 8003e44:	ffff0fff 	.word	0xffff0fff

08003e48 <HAL_TIM_PWM_PulseFinishedCallback>:
 8003e48:	4770      	bx	lr

08003e4a <TIM_DMADelayPulseCplt>:
{
 8003e4a:	b510      	push	{r4, lr}
  TIM_HandleTypeDef *htim = (TIM_HandleTypeDef *)((DMA_HandleTypeDef *)hdma)->Parent;
 8003e4c:	6a84      	ldr	r4, [r0, #40]	; 0x28
  htim->State = HAL_TIM_STATE_READY;
 8003e4e:	2301      	movs	r3, #1
 8003e50:	0022      	movs	r2, r4
 8003e52:	3239      	adds	r2, #57	; 0x39
 8003e54:	7013      	strb	r3, [r2, #0]
  if (hdma == htim->hdma[TIM_DMA_ID_CC1])
 8003e56:	6a22      	ldr	r2, [r4, #32]
 8003e58:	4282      	cmp	r2, r0
 8003e5a:	d106      	bne.n	8003e6a <TIM_DMADelayPulseCplt+0x20>
    htim->Channel = HAL_TIM_ACTIVE_CHANNEL_4;
 8003e5c:	7623      	strb	r3, [r4, #24]
  HAL_TIM_PWM_PulseFinishedCallback(htim);
 8003e5e:	0020      	movs	r0, r4
 8003e60:	f7ff fff2 	bl	8003e48 <HAL_TIM_PWM_PulseFinishedCallback>
  htim->Channel = HAL_TIM_ACTIVE_CHANNEL_CLEARED;
 8003e64:	2300      	movs	r3, #0
 8003e66:	7623      	strb	r3, [r4, #24]
}
 8003e68:	bd10      	pop	{r4, pc}
  else if (hdma == htim->hdma[TIM_DMA_ID_CC2])
 8003e6a:	6a63      	ldr	r3, [r4, #36]	; 0x24
 8003e6c:	4283      	cmp	r3, r0
 8003e6e:	d101      	bne.n	8003e74 <TIM_DMADelayPulseCplt+0x2a>
    htim->Channel = HAL_TIM_ACTIVE_CHANNEL_2;
 8003e70:	2302      	movs	r3, #2
 8003e72:	e7f3      	b.n	8003e5c <TIM_DMADelayPulseCplt+0x12>
  else if (hdma == htim->hdma[TIM_DMA_ID_CC3])
 8003e74:	6aa3      	ldr	r3, [r4, #40]	; 0x28
 8003e76:	4283      	cmp	r3, r0
 8003e78:	d101      	bne.n	8003e7e <TIM_DMADelayPulseCplt+0x34>
    htim->Channel = HAL_TIM_ACTIVE_CHANNEL_3;
 8003e7a:	2304      	movs	r3, #4
 8003e7c:	e7ee      	b.n	8003e5c <TIM_DMADelayPulseCplt+0x12>
  else if (hdma == htim->hdma[TIM_DMA_ID_CC4])
 8003e7e:	6ae3      	ldr	r3, [r4, #44]	; 0x2c
 8003e80:	4283      	cmp	r3, r0
 8003e82:	d1ec      	bne.n	8003e5e <TIM_DMADelayPulseCplt+0x14>
    htim->Channel = HAL_TIM_ACTIVE_CHANNEL_4;
 8003e84:	2308      	movs	r3, #8
 8003e86:	e7e9      	b.n	8003e5c <TIM_DMADelayPulseCplt+0x12>

08003e88 <HAL_TIM_PWM_PulseFinishedHalfCpltCallback>:
 8003e88:	4770      	bx	lr

08003e8a <TIM_DMADelayPulseHalfCplt>:
{
 8003e8a:	b510      	push	{r4, lr}
  TIM_HandleTypeDef *htim = (TIM_HandleTypeDef *)((DMA_HandleTypeDef *)hdma)->Parent;
 8003e8c:	6a84      	ldr	r4, [r0, #40]	; 0x28
  htim->State = HAL_TIM_STATE_READY;
 8003e8e:	2301      	movs	r3, #1
 8003e90:	0022      	movs	r2, r4
 8003e92:	3239      	adds	r2, #57	; 0x39
 8003e94:	7013      	strb	r3, [r2, #0]
  if (hdma == htim->hdma[TIM_DMA_ID_CC1])
 8003e96:	6a22      	ldr	r2, [r4, #32]
 8003e98:	4282      	cmp	r2, r0
 8003e9a:	d106      	bne.n	8003eaa <TIM_DMADelayPulseHalfCplt+0x20>
    htim->Channel = HAL_TIM_ACTIVE_CHANNEL_4;
 8003e9c:	7623      	strb	r3, [r4, #24]
  HAL_TIM_PWM_PulseFinishedHalfCpltCallback(htim);
 8003e9e:	0020      	movs	r0, r4
 8003ea0:	f7ff fff2 	bl	8003e88 <HAL_TIM_PWM_PulseFinishedHalfCpltCallback>
  htim->Channel = HAL_TIM_ACTIVE_CHANNEL_CLEARED;
 8003ea4:	2300      	movs	r3, #0
 8003ea6:	7623      	strb	r3, [r4, #24]
}
 8003ea8:	bd10      	pop	{r4, pc}
  else if (hdma == htim->hdma[TIM_DMA_ID_CC2])
 8003eaa:	6a63      	ldr	r3, [r4, #36]	; 0x24
 8003eac:	4283      	cmp	r3, r0
 8003eae:	d101      	bne.n	8003eb4 <TIM_DMADelayPulseHalfCplt+0x2a>
    htim->Channel = HAL_TIM_ACTIVE_CHANNEL_2;
 8003eb0:	2302      	movs	r3, #2
 8003eb2:	e7f3      	b.n	8003e9c <TIM_DMADelayPulseHalfCplt+0x12>
  else if (hdma == htim->hdma[TIM_DMA_ID_CC3])
 8003eb4:	6aa3      	ldr	r3, [r4, #40]	; 0x28
 8003eb6:	4283      	cmp	r3, r0
 8003eb8:	d101      	bne.n	8003ebe <TIM_DMADelayPulseHalfCplt+0x34>
    htim->Channel = HAL_TIM_ACTIVE_CHANNEL_3;
 8003eba:	2304      	movs	r3, #4
 8003ebc:	e7ee      	b.n	8003e9c <TIM_DMADelayPulseHalfCplt+0x12>
  else if (hdma == htim->hdma[TIM_DMA_ID_CC4])
 8003ebe:	6ae3      	ldr	r3, [r4, #44]	; 0x2c
 8003ec0:	4283      	cmp	r3, r0
 8003ec2:	d1ec      	bne.n	8003e9e <TIM_DMADelayPulseHalfCplt+0x14>
    htim->Channel = HAL_TIM_ACTIVE_CHANNEL_4;
 8003ec4:	2308      	movs	r3, #8
 8003ec6:	e7e9      	b.n	8003e9c <TIM_DMADelayPulseHalfCplt+0x12>

08003ec8 <HAL_TIM_ErrorCallback>:
 8003ec8:	4770      	bx	lr

08003eca <TIM_DMAError>:
  TIM_HandleTypeDef *htim = (TIM_HandleTypeDef *)((DMA_HandleTypeDef *)hdma)->Parent;
 8003eca:	6a80      	ldr	r0, [r0, #40]	; 0x28
  htim->State = HAL_TIM_STATE_READY;
 8003ecc:	2201      	movs	r2, #1
 8003ece:	0003      	movs	r3, r0
{
 8003ed0:	b510      	push	{r4, lr}
  htim->State = HAL_TIM_STATE_READY;
 8003ed2:	3339      	adds	r3, #57	; 0x39
 8003ed4:	701a      	strb	r2, [r3, #0]
  HAL_TIM_ErrorCallback(htim);
 8003ed6:	f7ff fff7 	bl	8003ec8 <HAL_TIM_ErrorCallback>
}
 8003eda:	bd10      	pop	{r4, pc}

08003edc <HAL_TIMEx_MasterConfigSynchronization>:
  *         mode.
  * @retval HAL status
  */
HAL_StatusTypeDef HAL_TIMEx_MasterConfigSynchronization(TIM_HandleTypeDef *htim,
                                                        TIM_MasterConfigTypeDef *sMasterConfig)
{
 8003edc:	b570      	push	{r4, r5, r6, lr}
  assert_param(IS_TIM_SYNCHRO_INSTANCE(htim->Instance));
  assert_param(IS_TIM_TRGO_SOURCE(sMasterConfig->MasterOutputTrigger));
  assert_param(IS_TIM_MSM_STATE(sMasterConfig->MasterSlaveMode));

  /* Check input state */
  __HAL_LOCK(htim);
 8003ede:	0004      	movs	r4, r0
 8003ee0:	2202      	movs	r2, #2
 8003ee2:	3438      	adds	r4, #56	; 0x38
 8003ee4:	7825      	ldrb	r5, [r4, #0]
{
 8003ee6:	0003      	movs	r3, r0
  __HAL_LOCK(htim);
 8003ee8:	0010      	movs	r0, r2
 8003eea:	2d01      	cmp	r5, #1
 8003eec:	d013      	beq.n	8003f16 <HAL_TIMEx_MasterConfigSynchronization+0x3a>

  /* Change the handler state */
  htim->State = HAL_TIM_STATE_BUSY;
 8003eee:	0018      	movs	r0, r3

  /* Get the TIMx SMCR register value */
  tmpsmcr = htim->Instance->SMCR;

  /* Reset the MMS Bits */
  tmpcr2 &= ~TIM_CR2_MMS;
 8003ef0:	2670      	movs	r6, #112	; 0x70
  htim->State = HAL_TIM_STATE_BUSY;
 8003ef2:	3039      	adds	r0, #57	; 0x39
 8003ef4:	7002      	strb	r2, [r0, #0]
  tmpcr2 = htim->Instance->CR2;
 8003ef6:	681d      	ldr	r5, [r3, #0]
 8003ef8:	686a      	ldr	r2, [r5, #4]
  tmpsmcr = htim->Instance->SMCR;
 8003efa:	68ab      	ldr	r3, [r5, #8]
  tmpcr2 &= ~TIM_CR2_MMS;
 8003efc:	43b2      	bics	r2, r6
  /* Select the TRGO source */
  tmpcr2 |=  sMasterConfig->MasterOutputTrigger;
 8003efe:	680e      	ldr	r6, [r1, #0]

  /* Reset the MSM Bit */
  tmpsmcr &= ~TIM_SMCR_MSM;
  /* Set master mode */
  tmpsmcr |= sMasterConfig->MasterSlaveMode;
 8003f00:	6849      	ldr	r1, [r1, #4]
  tmpcr2 |=  sMasterConfig->MasterOutputTrigger;
 8003f02:	4332      	orrs	r2, r6
  tmpsmcr &= ~TIM_SMCR_MSM;
 8003f04:	2680      	movs	r6, #128	; 0x80
 8003f06:	43b3      	bics	r3, r6
  tmpsmcr |= sMasterConfig->MasterSlaveMode;
 8003f08:	430b      	orrs	r3, r1

  /* Update TIMx CR2 */
  htim->Instance->CR2 = tmpcr2;
 8003f0a:	606a      	str	r2, [r5, #4]

  /* Update TIMx SMCR */
  htim->Instance->SMCR = tmpsmcr;
 8003f0c:	60ab      	str	r3, [r5, #8]

  /* Change the htim state */
  htim->State = HAL_TIM_STATE_READY;
 8003f0e:	2301      	movs	r3, #1
 8003f10:	7003      	strb	r3, [r0, #0]

  __HAL_UNLOCK(htim);
 8003f12:	2000      	movs	r0, #0
 8003f14:	7020      	strb	r0, [r4, #0]

  return HAL_OK;
}
 8003f16:	bd70      	pop	{r4, r5, r6, pc}

08003f18 <TSC_extract_groups>:
static uint32_t TSC_extract_groups(uint32_t iomask)
{
  uint32_t groups = 0UL;
  uint32_t idx;

  for (idx = 0UL; idx < (uint32_t)TSC_NB_OF_GROUPS; idx++)
 8003f18:	2300      	movs	r3, #0
{
 8003f1a:	0002      	movs	r2, r0
 8003f1c:	b570      	push	{r4, r5, r6, lr}
  uint32_t groups = 0UL;
 8003f1e:	0018      	movs	r0, r3
  {
    if ((iomask & (0x0FUL << (idx * 4UL))) != 0UL )
 8003f20:	210f      	movs	r1, #15
    {
      groups |= (1UL << idx);
 8003f22:	2401      	movs	r4, #1
    if ((iomask & (0x0FUL << (idx * 4UL))) != 0UL )
 8003f24:	000e      	movs	r6, r1
 8003f26:	009d      	lsls	r5, r3, #2
 8003f28:	40ae      	lsls	r6, r5
 8003f2a:	4232      	tst	r2, r6
 8003f2c:	d002      	beq.n	8003f34 <TSC_extract_groups+0x1c>
      groups |= (1UL << idx);
 8003f2e:	0025      	movs	r5, r4
 8003f30:	409d      	lsls	r5, r3
 8003f32:	4328      	orrs	r0, r5
  for (idx = 0UL; idx < (uint32_t)TSC_NB_OF_GROUPS; idx++)
 8003f34:	3301      	adds	r3, #1
 8003f36:	2b08      	cmp	r3, #8
 8003f38:	d1f4      	bne.n	8003f24 <TSC_extract_groups+0xc>
    }
  }

  return groups;
}
 8003f3a:	bd70      	pop	{r4, r5, r6, pc}

08003f3c <HAL_TSC_Init>:
{
 8003f3c:	b570      	push	{r4, r5, r6, lr}
 8003f3e:	0004      	movs	r4, r0
    return HAL_ERROR;
 8003f40:	2001      	movs	r0, #1
  if (htsc == NULL)
 8003f42:	2c00      	cmp	r4, #0
 8003f44:	d041      	beq.n	8003fca <HAL_TSC_Init+0x8e>
  if (htsc->State == HAL_TSC_STATE_RESET)
 8003f46:	0026      	movs	r6, r4
 8003f48:	363c      	adds	r6, #60	; 0x3c
 8003f4a:	7833      	ldrb	r3, [r6, #0]
 8003f4c:	b2da      	uxtb	r2, r3
 8003f4e:	2b00      	cmp	r3, #0
 8003f50:	d105      	bne.n	8003f5e <HAL_TSC_Init+0x22>
    htsc->Lock = HAL_UNLOCKED;
 8003f52:	0023      	movs	r3, r4
 8003f54:	333d      	adds	r3, #61	; 0x3d
    HAL_TSC_MspInit(htsc);
 8003f56:	0020      	movs	r0, r4
    htsc->Lock = HAL_UNLOCKED;
 8003f58:	701a      	strb	r2, [r3, #0]
    HAL_TSC_MspInit(htsc);
 8003f5a:	f7fe fa75 	bl	8002448 <HAL_TSC_MspInit>
  htsc->State = HAL_TSC_STATE_BUSY;
 8003f5e:	2302      	movs	r3, #2
 8003f60:	7033      	strb	r3, [r6, #0]
  htsc->Instance->CR = TSC_CR_TSCE;
 8003f62:	6825      	ldr	r5, [r4, #0]
 8003f64:	3b01      	subs	r3, #1
  htsc->Instance->CR |= (htsc->Init.CTPulseHighLength |
 8003f66:	68a1      	ldr	r1, [r4, #8]
  htsc->Instance->CR = TSC_CR_TSCE;
 8003f68:	602b      	str	r3, [r5, #0]
  htsc->Instance->CR |= (htsc->Init.CTPulseHighLength |
 8003f6a:	6863      	ldr	r3, [r4, #4]
 8003f6c:	682a      	ldr	r2, [r5, #0]
 8003f6e:	430b      	orrs	r3, r1
 8003f70:	6961      	ldr	r1, [r4, #20]
 8003f72:	430b      	orrs	r3, r1
 8003f74:	69a1      	ldr	r1, [r4, #24]
 8003f76:	430b      	orrs	r3, r1
 8003f78:	69e1      	ldr	r1, [r4, #28]
 8003f7a:	430b      	orrs	r3, r1
 8003f7c:	6a61      	ldr	r1, [r4, #36]	; 0x24
 8003f7e:	430b      	orrs	r3, r1
 8003f80:	6aa1      	ldr	r1, [r4, #40]	; 0x28
 8003f82:	430b      	orrs	r3, r1
 8003f84:	4313      	orrs	r3, r2
                         (uint32_t)(htsc->Init.SpreadSpectrumDeviation << TSC_CR_SSD_Pos) |
 8003f86:	6922      	ldr	r2, [r4, #16]
 8003f88:	0452      	lsls	r2, r2, #17
  htsc->Instance->CR |= (htsc->Init.CTPulseHighLength |
 8003f8a:	4313      	orrs	r3, r2
 8003f8c:	602b      	str	r3, [r5, #0]
  if ((FunctionalState)htsc->Init.SpreadSpectrum == ENABLE)
 8003f8e:	68e3      	ldr	r3, [r4, #12]
 8003f90:	b2db      	uxtb	r3, r3
 8003f92:	2b01      	cmp	r3, #1
 8003f94:	d104      	bne.n	8003fa0 <HAL_TSC_Init+0x64>
    htsc->Instance->CR |= TSC_CR_SSE;
 8003f96:	2380      	movs	r3, #128	; 0x80
 8003f98:	682a      	ldr	r2, [r5, #0]
 8003f9a:	025b      	lsls	r3, r3, #9
 8003f9c:	4313      	orrs	r3, r2
 8003f9e:	602b      	str	r3, [r5, #0]
  htsc->Instance->IOHCR = (uint32_t)(~(htsc->Init.ChannelIOs | htsc->Init.ShieldIOs | htsc->Init.SamplingIOs));
 8003fa0:	6b20      	ldr	r0, [r4, #48]	; 0x30
 8003fa2:	6b63      	ldr	r3, [r4, #52]	; 0x34
 8003fa4:	6ba1      	ldr	r1, [r4, #56]	; 0x38
 8003fa6:	4303      	orrs	r3, r0
 8003fa8:	001a      	movs	r2, r3
 8003faa:	430a      	orrs	r2, r1
 8003fac:	43d2      	mvns	r2, r2
 8003fae:	612a      	str	r2, [r5, #16]
  htsc->Instance->IOCCR = (htsc->Init.ChannelIOs | htsc->Init.ShieldIOs);
 8003fb0:	62ab      	str	r3, [r5, #40]	; 0x28
  htsc->Instance->IOSCR = htsc->Init.SamplingIOs;
 8003fb2:	6229      	str	r1, [r5, #32]
  htsc->Instance->IOGCSR = TSC_extract_groups(htsc->Init.ChannelIOs);
 8003fb4:	f7ff ffb0 	bl	8003f18 <TSC_extract_groups>
  htsc->Instance->IER &= (uint32_t)(~(TSC_IT_EOA | TSC_IT_MCE));
 8003fb8:	2203      	movs	r2, #3
  htsc->Instance->IOGCSR = TSC_extract_groups(htsc->Init.ChannelIOs);
 8003fba:	6328      	str	r0, [r5, #48]	; 0x30
  htsc->Instance->IER &= (uint32_t)(~(TSC_IT_EOA | TSC_IT_MCE));
 8003fbc:	686b      	ldr	r3, [r5, #4]
  return HAL_OK;
 8003fbe:	2000      	movs	r0, #0
  htsc->Instance->IER &= (uint32_t)(~(TSC_IT_EOA | TSC_IT_MCE));
 8003fc0:	4393      	bics	r3, r2
 8003fc2:	606b      	str	r3, [r5, #4]
  htsc->State = HAL_TSC_STATE_READY;
 8003fc4:	2301      	movs	r3, #1
  htsc->Instance->ICR = (TSC_FLAG_EOA | TSC_FLAG_MCE);
 8003fc6:	60aa      	str	r2, [r5, #8]
  htsc->State = HAL_TSC_STATE_READY;
 8003fc8:	7033      	strb	r3, [r6, #0]
}
 8003fca:	bd70      	pop	{r4, r5, r6, pc}

08003fcc <TSL_Init>:
  * @brief  Initializes the TS interface.
  * @param  bank  Array holding all the banks
  * @retval Status
  */
TSL_Status_enum_T TSL_Init(CONST TSL_Bank_T *bank)
{
 8003fcc:	b510      	push	{r4, lr}

  // Get banks array
  TSL_Globals.Bank_Array = bank;

  // Initialize the delay that will be used to discharge the capacitors
  TSL_Globals.DelayDischarge = (uint32_t)((TSLPRM_DELAY_DISCHARGE_ALL * (uint32_t)(SystemCoreClock/1000000)) / 72);
 8003fce:	4b08      	ldr	r3, [pc, #32]	; (8003ff0 <TSL_Init+0x24>)
  TSL_Globals.Bank_Array = bank;
 8003fd0:	4c08      	ldr	r4, [pc, #32]	; (8003ff4 <TSL_Init+0x28>)
  TSL_Globals.DelayDischarge = (uint32_t)((TSLPRM_DELAY_DISCHARGE_ALL * (uint32_t)(SystemCoreClock/1000000)) / 72);
 8003fd2:	4909      	ldr	r1, [pc, #36]	; (8003ff8 <TSL_Init+0x2c>)
  TSL_Globals.Bank_Array = bank;
 8003fd4:	6060      	str	r0, [r4, #4]
  TSL_Globals.DelayDischarge = (uint32_t)((TSLPRM_DELAY_DISCHARGE_ALL * (uint32_t)(SystemCoreClock/1000000)) / 72);
 8003fd6:	6818      	ldr	r0, [r3, #0]
 8003fd8:	f7fc f8a0 	bl	800011c <__udivsi3>
 8003fdc:	23fa      	movs	r3, #250	; 0xfa
 8003fde:	009b      	lsls	r3, r3, #2
 8003fe0:	2148      	movs	r1, #72	; 0x48
 8003fe2:	4358      	muls	r0, r3
 8003fe4:	f7fc f89a 	bl	800011c <__udivsi3>
 8003fe8:	6120      	str	r0, [r4, #16]
#else
  retval = TSL_acq_Init();
#endif

  return retval;
}
 8003fea:	2000      	movs	r0, #0
 8003fec:	bd10      	pop	{r4, pc}
 8003fee:	46c0      	nop			; (mov r8, r8)
 8003ff0:	20000000 	.word	0x20000000
 8003ff4:	20000a88 	.word	0x20000a88
 8003ff8:	000f4240 	.word	0x000f4240

08003ffc <TSL_acq_BankGetResult>:
  TSL_Status_enum_T retval = TSL_STATUS_OK;
  TSL_tIndex_T idx_ch;
  TSL_tIndexDest_T idx_dest;
  TSL_tMeas_T old_meas, new_meas;
  TSL_tDelta_T new_delta;
  CONST TSL_Bank_T *bank = &(TSL_Globals.Bank_Array[idx_bk]);
 8003ffc:	2318      	movs	r3, #24
{
 8003ffe:	b5f0      	push	{r4, r5, r6, r7, lr}
 8004000:	b089      	sub	sp, #36	; 0x24
 8004002:	9202      	str	r2, [sp, #8]
  CONST TSL_Bank_T *bank = &(TSL_Globals.Bank_Array[idx_bk]);
 8004004:	001a      	movs	r2, r3
{
 8004006:	9101      	str	r1, [sp, #4]
  CONST TSL_Bank_T *bank = &(TSL_Globals.Bank_Array[idx_bk]);
 8004008:	4342      	muls	r2, r0
 800400a:	4942      	ldr	r1, [pc, #264]	; (8004114 <TSL_acq_BankGetResult+0x118>)
 800400c:	684c      	ldr	r4, [r1, #4]
 800400e:	18a4      	adds	r4, r4, r2
  CONST TSL_ChannelDest_T *pchDest = bank->p_chDest;
  CONST TSL_ChannelSrc_T *pchSrc = bank->p_chSrc;

  if (idx_bk >= TSLPRM_TOTAL_BANKS)
  {
    return TSL_STATUS_ERROR;
 8004010:	2202      	movs	r2, #2
 8004012:	9200      	str	r2, [sp, #0]
  if (idx_bk >= TSLPRM_TOTAL_BANKS)
 8004014:	4290      	cmp	r0, r2
 8004016:	d80a      	bhi.n	800402e <TSL_acq_BankGetResult+0x32>
  CONST TSL_ChannelSrc_T *pchSrc = bank->p_chSrc;
 8004018:	2700      	movs	r7, #0
  CONST TSL_ChannelDest_T *pchDest = bank->p_chDest;
 800401a:	6862      	ldr	r2, [r4, #4]
  TSL_Status_enum_T retval = TSL_STATUS_OK;
 800401c:	9700      	str	r7, [sp, #0]
  CONST TSL_ChannelDest_T *pchDest = bank->p_chDest;
 800401e:	9204      	str	r2, [sp, #16]
  CONST TSL_ChannelSrc_T *pchSrc = bank->p_chSrc;
 8004020:	6822      	ldr	r2, [r4, #0]
  {

    // Get the Destination Index of the current channel
    idx_dest = pchDest->IdxDest;

    if (bank->p_chData[idx_dest].Flags.ObjStatus == TSL_OBJ_STATUS_ON)
 8004022:	9307      	str	r3, [sp, #28]
  CONST TSL_ChannelSrc_T *pchSrc = bank->p_chSrc;
 8004024:	9205      	str	r2, [sp, #20]
  for (idx_ch = 0; idx_ch < bank->NbChannels; idx_ch++)
 8004026:	89a2      	ldrh	r2, [r4, #12]
 8004028:	b2fb      	uxtb	r3, r7
 800402a:	4293      	cmp	r3, r2
 800402c:	d302      	bcc.n	8004034 <TSL_acq_BankGetResult+0x38>
    pchSrc++;

  }

  return retval;
}
 800402e:	9800      	ldr	r0, [sp, #0]
 8004030:	b009      	add	sp, #36	; 0x24
 8004032:	bdf0      	pop	{r4, r5, r6, r7, pc}
    if (bank->p_chData[idx_dest].Flags.ObjStatus == TSL_OBJ_STATUS_ON)
 8004034:	9a04      	ldr	r2, [sp, #16]
    idx_dest = pchDest->IdxDest;
 8004036:	007b      	lsls	r3, r7, #1
    if (bank->p_chData[idx_dest].Flags.ObjStatus == TSL_OBJ_STATUS_ON)
 8004038:	5ad5      	ldrh	r5, [r2, r3]
 800403a:	230c      	movs	r3, #12
 800403c:	435d      	muls	r5, r3
 800403e:	68a3      	ldr	r3, [r4, #8]
 8004040:	5d5a      	ldrb	r2, [r3, r5]
 8004042:	1959      	adds	r1, r3, r5
 8004044:	9b07      	ldr	r3, [sp, #28]
 8004046:	4013      	ands	r3, r2
 8004048:	2b18      	cmp	r3, #24
 800404a:	d11d      	bne.n	8004088 <TSL_acq_BankGetResult+0x8c>
      bank->p_chData[idx_dest].Flags.DataReady = TSL_DATA_READY;
 800404c:	3b17      	subs	r3, #23
 800404e:	4313      	orrs	r3, r2
 8004050:	700b      	strb	r3, [r1, #0]
      new_meas = TSL_acq_GetMeas(pchSrc->IdxSrc);
 8004052:	230c      	movs	r3, #12
 8004054:	437b      	muls	r3, r7
 8004056:	9a05      	ldr	r2, [sp, #20]
 8004058:	5cd0      	ldrb	r0, [r2, r3]
 800405a:	f000 f8b7 	bl	80041cc <TSL_acq_GetMeas>
 800405e:	0006      	movs	r6, r0
      old_meas = bank->p_chData[idx_dest].Meas;
 8004060:	68a3      	ldr	r3, [r4, #8]
      new_meas = TSL_acq_GetMeas(pchSrc->IdxSrc);
 8004062:	9006      	str	r0, [sp, #24]
      old_meas = bank->p_chData[idx_dest].Meas;
 8004064:	1958      	adds	r0, r3, r5
 8004066:	8943      	ldrh	r3, [r0, #10]
      bank->p_chData[idx_dest].Meas = new_meas;
 8004068:	8146      	strh	r6, [r0, #10]
      old_meas = bank->p_chData[idx_dest].Meas;
 800406a:	9303      	str	r3, [sp, #12]
      if (new_meas < TSL_Params.AcqMin)
 800406c:	4b2a      	ldr	r3, [pc, #168]	; (8004118 <TSL_acq_BankGetResult+0x11c>)
 800406e:	881a      	ldrh	r2, [r3, #0]
 8004070:	42b2      	cmp	r2, r6
 8004072:	d90b      	bls.n	800408c <TSL_acq_BankGetResult+0x90>
        bank->p_chData[idx_dest].Flags.AcqStatus = TSL_ACQ_STATUS_ERROR_MIN;
 8004074:	2306      	movs	r3, #6
 8004076:	7802      	ldrb	r2, [r0, #0]
 8004078:	439a      	bics	r2, r3
 800407a:	3b02      	subs	r3, #2
          bank->p_chData[idx_dest].Flags.AcqStatus = TSL_ACQ_STATUS_ERROR_MAX;
 800407c:	4313      	orrs	r3, r2
 800407e:	7003      	strb	r3, [r0, #0]
          bank->p_chData[idx_dest].Delta = 0;
 8004080:	2300      	movs	r3, #0
 8004082:	8103      	strh	r3, [r0, #8]
          retval = TSL_STATUS_ERROR;
 8004084:	3302      	adds	r3, #2
 8004086:	9300      	str	r3, [sp, #0]
  for (idx_ch = 0; idx_ch < bank->NbChannels; idx_ch++)
 8004088:	3701      	adds	r7, #1
 800408a:	e7cc      	b.n	8004026 <TSL_acq_BankGetResult+0x2a>
        if (new_meas > TSL_Params.AcqMax)
 800408c:	885b      	ldrh	r3, [r3, #2]
 800408e:	42b3      	cmp	r3, r6
 8004090:	d202      	bcs.n	8004098 <TSL_acq_BankGetResult+0x9c>
          bank->p_chData[idx_dest].Flags.AcqStatus = TSL_ACQ_STATUS_ERROR_MAX;
 8004092:	2206      	movs	r2, #6
 8004094:	7803      	ldrb	r3, [r0, #0]
 8004096:	e7f1      	b.n	800407c <TSL_acq_BankGetResult+0x80>
          if (TSL_acq_UseFilter(&bank->p_chData[idx_dest]))
 8004098:	f000 f8ac 	bl	80041f4 <TSL_acq_UseFilter>
 800409c:	2800      	cmp	r0, #0
 800409e:	d026      	beq.n	80040ee <TSL_acq_BankGetResult+0xf2>
            if (mfilter)
 80040a0:	9b01      	ldr	r3, [sp, #4]
 80040a2:	2b00      	cmp	r3, #0
 80040a4:	d006      	beq.n	80040b4 <TSL_acq_BankGetResult+0xb8>
              new_meas = mfilter(old_meas, new_meas);
 80040a6:	0031      	movs	r1, r6
 80040a8:	9803      	ldr	r0, [sp, #12]
 80040aa:	4798      	blx	r3
 80040ac:	0006      	movs	r6, r0
              bank->p_chData[idx_dest].Meas = new_meas;
 80040ae:	68a3      	ldr	r3, [r4, #8]
 80040b0:	195b      	adds	r3, r3, r5
 80040b2:	8158      	strh	r0, [r3, #10]
            new_delta = TSL_acq_ComputeDelta(bank->p_chData[idx_dest].Ref, new_meas);
 80040b4:	68a3      	ldr	r3, [r4, #8]
 80040b6:	0031      	movs	r1, r6
 80040b8:	195b      	adds	r3, r3, r5
 80040ba:	8898      	ldrh	r0, [r3, #4]
 80040bc:	f000 f892 	bl	80041e4 <TSL_acq_ComputeDelta>
 80040c0:	9003      	str	r0, [sp, #12]
            bank->p_chData[idx_dest].Flags.AcqStatus = TSL_acq_CheckNoise();
 80040c2:	f000 f895 	bl	80041f0 <TSL_acq_CheckNoise>
 80040c6:	2303      	movs	r3, #3
 80040c8:	68a2      	ldr	r2, [r4, #8]
 80040ca:	4003      	ands	r3, r0
 80040cc:	1956      	adds	r6, r2, r5
 80040ce:	5d50      	ldrb	r0, [r2, r5]
 80040d0:	2206      	movs	r2, #6
 80040d2:	005b      	lsls	r3, r3, #1
 80040d4:	4390      	bics	r0, r2
 80040d6:	4318      	orrs	r0, r3
            if (dfilter)
 80040d8:	9b02      	ldr	r3, [sp, #8]
            bank->p_chData[idx_dest].Flags.AcqStatus = TSL_acq_CheckNoise();
 80040da:	7030      	strb	r0, [r6, #0]
            if (dfilter)
 80040dc:	2b00      	cmp	r3, #0
 80040de:	d003      	beq.n	80040e8 <TSL_acq_BankGetResult+0xec>
              bank->p_chData[idx_dest].Delta = dfilter(new_delta);
 80040e0:	9803      	ldr	r0, [sp, #12]
 80040e2:	4798      	blx	r3
 80040e4:	8130      	strh	r0, [r6, #8]
 80040e6:	e7cf      	b.n	8004088 <TSL_acq_BankGetResult+0x8c>
              bank->p_chData[idx_dest].Delta = new_delta;
 80040e8:	9b03      	ldr	r3, [sp, #12]
 80040ea:	8133      	strh	r3, [r6, #8]
 80040ec:	e7cc      	b.n	8004088 <TSL_acq_BankGetResult+0x8c>
            bank->p_chData[idx_dest].Delta = TSL_acq_ComputeDelta(bank->p_chData[idx_dest].Ref, new_meas);
 80040ee:	68a3      	ldr	r3, [r4, #8]
 80040f0:	9906      	ldr	r1, [sp, #24]
 80040f2:	195e      	adds	r6, r3, r5
 80040f4:	88b0      	ldrh	r0, [r6, #4]
 80040f6:	f000 f875 	bl	80041e4 <TSL_acq_ComputeDelta>
 80040fa:	8130      	strh	r0, [r6, #8]
            bank->p_chData[idx_dest].Flags.AcqStatus = TSL_acq_CheckNoise();
 80040fc:	f000 f878 	bl	80041f0 <TSL_acq_CheckNoise>
 8004100:	2203      	movs	r2, #3
 8004102:	2106      	movs	r1, #6
 8004104:	68a3      	ldr	r3, [r4, #8]
 8004106:	4002      	ands	r2, r0
 8004108:	5d58      	ldrb	r0, [r3, r5]
 800410a:	0052      	lsls	r2, r2, #1
 800410c:	4388      	bics	r0, r1
 800410e:	4310      	orrs	r0, r2
 8004110:	5558      	strb	r0, [r3, r5]
 8004112:	e7b9      	b.n	8004088 <TSL_acq_BankGetResult+0x8c>
 8004114:	20000a88 	.word	0x20000a88
 8004118:	20000014 	.word	0x20000014

0800411c <SoftDelay>:
  * val =  500: ~ 63s
  * val = 1000: ~126s
  * val = 2000: ~251s
  */
void SoftDelay(uint32_t val)
{
 800411c:	b580      	push	{r7, lr}
 800411e:	b084      	sub	sp, #16
 8004120:	af00      	add	r7, sp, #0
 8004122:	6078      	str	r0, [r7, #4]
  volatile uint32_t idx;
  for (idx = val; idx > 0; idx--)
 8004124:	687b      	ldr	r3, [r7, #4]
 8004126:	60fb      	str	r3, [r7, #12]
 8004128:	e002      	b.n	8004130 <SoftDelay+0x14>
 800412a:	68fb      	ldr	r3, [r7, #12]
 800412c:	3b01      	subs	r3, #1
 800412e:	60fb      	str	r3, [r7, #12]
 8004130:	68fb      	ldr	r3, [r7, #12]
 8004132:	2b00      	cmp	r3, #0
 8004134:	d1f9      	bne.n	800412a <SoftDelay+0xe>
  {}
}
 8004136:	46c0      	nop			; (mov r8, r8)
 8004138:	46c0      	nop			; (mov r8, r8)
 800413a:	46bd      	mov	sp, r7
 800413c:	b004      	add	sp, #16
 800413e:	bd80      	pop	{r7, pc}

08004140 <TSL_acq_BankConfig>:
{
 8004140:	0002      	movs	r2, r0
 8004142:	b573      	push	{r0, r1, r4, r5, r6, lr}
    return TSL_STATUS_ERROR;
 8004144:	2002      	movs	r0, #2
  if (idx_bk >= TSLPRM_TOTAL_BANKS)
 8004146:	4282      	cmp	r2, r0
 8004148:	d816      	bhi.n	8004178 <TSL_acq_BankConfig+0x38>
  bank = &(TSL_Globals.Bank_Array[idx_bk]);
 800414a:	2318      	movs	r3, #24
 800414c:	4917      	ldr	r1, [pc, #92]	; (80041ac <TSL_acq_BankConfig+0x6c>)
 800414e:	4353      	muls	r3, r2
 8004150:	6848      	ldr	r0, [r1, #4]
 8004152:	18c3      	adds	r3, r0, r3
  pchDest = bank->p_chDest;
 8004154:	6858      	ldr	r0, [r3, #4]
  pchSrc = bank->p_chSrc;
 8004156:	681c      	ldr	r4, [r3, #0]
  TSL_Globals.This_Bank = idx_bk;
 8004158:	720a      	strb	r2, [r1, #8]
  TSC->IOCCR = bank->msk_IOCCR_channels;
 800415a:	6919      	ldr	r1, [r3, #16]
 800415c:	4a14      	ldr	r2, [pc, #80]	; (80041b0 <TSL_acq_BankConfig+0x70>)
  pchDest = bank->p_chDest;
 800415e:	9001      	str	r0, [sp, #4]
  TSC->IOCCR = bank->msk_IOCCR_channels;
 8004160:	6291      	str	r1, [r2, #40]	; 0x28
  TSC->IOGCSR = bank->msk_IOGCSR_groups;
 8004162:	6959      	ldr	r1, [r3, #20]
  for (idx_ch = 0; idx_ch < bank->NbChannels; idx_ch++)
 8004164:	2000      	movs	r0, #0
  TSC->IOGCSR = bank->msk_IOGCSR_groups;
 8004166:	6311      	str	r1, [r2, #48]	; 0x30
  for (idx_ch = 0; idx_ch < bank->NbChannels; idx_ch++)
 8004168:	8999      	ldrh	r1, [r3, #12]
 800416a:	9100      	str	r1, [sp, #0]
    objs = bank->p_chData[pchDest->IdxDest].Flags.ObjStatus;
 800416c:	210c      	movs	r1, #12
 800416e:	468c      	mov	ip, r1
  for (idx_ch = 0; idx_ch < bank->NbChannels; idx_ch++)
 8004170:	9900      	ldr	r1, [sp, #0]
 8004172:	4281      	cmp	r1, r0
 8004174:	d801      	bhi.n	800417a <TSL_acq_BankConfig+0x3a>
  return TSL_STATUS_OK;
 8004176:	2000      	movs	r0, #0
}
 8004178:	bd76      	pop	{r1, r2, r4, r5, r6, pc}
    objs = bank->p_chData[pchDest->IdxDest].Flags.ObjStatus;
 800417a:	9d01      	ldr	r5, [sp, #4]
 800417c:	0041      	lsls	r1, r0, #1
 800417e:	5a69      	ldrh	r1, [r5, r1]
 8004180:	4665      	mov	r5, ip
 8004182:	4369      	muls	r1, r5
 8004184:	689d      	ldr	r5, [r3, #8]
 8004186:	5d49      	ldrb	r1, [r1, r5]
 8004188:	06c9      	lsls	r1, r1, #27
 800418a:	0f89      	lsrs	r1, r1, #30
    if (objs != TSL_OBJ_STATUS_ON)
 800418c:	2903      	cmp	r1, #3
 800418e:	d009      	beq.n	80041a4 <TSL_acq_BankConfig+0x64>
      TSC->IOGCSR &= (uint32_t)~gx;
 8004190:	6b15      	ldr	r5, [r2, #48]	; 0x30
 8004192:	68a6      	ldr	r6, [r4, #8]
 8004194:	43b5      	bics	r5, r6
 8004196:	6315      	str	r5, [r2, #48]	; 0x30
      if (objs == TSL_OBJ_STATUS_OFF)
 8004198:	2900      	cmp	r1, #0
 800419a:	d103      	bne.n	80041a4 <TSL_acq_BankConfig+0x64>
        TSC->IOCCR &= (uint32_t)~ioy;
 800419c:	6a91      	ldr	r1, [r2, #40]	; 0x28
 800419e:	6865      	ldr	r5, [r4, #4]
 80041a0:	43a9      	bics	r1, r5
 80041a2:	6291      	str	r1, [r2, #40]	; 0x28
    pchSrc++;
 80041a4:	340c      	adds	r4, #12
  for (idx_ch = 0; idx_ch < bank->NbChannels; idx_ch++)
 80041a6:	3001      	adds	r0, #1
 80041a8:	e7e2      	b.n	8004170 <TSL_acq_BankConfig+0x30>
 80041aa:	46c0      	nop			; (mov r8, r8)
 80041ac:	20000a88 	.word	0x20000a88
 80041b0:	40024000 	.word	0x40024000

080041b4 <TSL_acq_BankWaitEOC>:
  TSL_Status_enum_T retval = TSL_STATUS_BUSY;
 80041b4:	2001      	movs	r0, #1
  if (TSC->ISR & 0x01)
 80041b6:	4b04      	ldr	r3, [pc, #16]	; (80041c8 <TSL_acq_BankWaitEOC+0x14>)
 80041b8:	68da      	ldr	r2, [r3, #12]
 80041ba:	4202      	tst	r2, r0
 80041bc:	d002      	beq.n	80041c4 <TSL_acq_BankWaitEOC+0x10>
    if (TSC->ISR & 0x02)
 80041be:	68d8      	ldr	r0, [r3, #12]
      retval = TSL_STATUS_OK;
 80041c0:	2302      	movs	r3, #2
 80041c2:	4018      	ands	r0, r3
}
 80041c4:	4770      	bx	lr
 80041c6:	46c0      	nop			; (mov r8, r8)
 80041c8:	40024000 	.word	0x40024000

080041cc <TSL_acq_GetMeas>:
{
 80041cc:	0003      	movs	r3, r0
    return((TSL_tMeas_T)0);
 80041ce:	2000      	movs	r0, #0
  if (index < TSC_NB_GROUPS_SUPPORTED)
 80041d0:	2b07      	cmp	r3, #7
 80041d2:	d804      	bhi.n	80041de <TSL_acq_GetMeas+0x12>
    return((TSL_tMeas_T)(TSC->IOGXCR[index]));
 80041d4:	4a02      	ldr	r2, [pc, #8]	; (80041e0 <TSL_acq_GetMeas+0x14>)
 80041d6:	009b      	lsls	r3, r3, #2
 80041d8:	189b      	adds	r3, r3, r2
 80041da:	6858      	ldr	r0, [r3, #4]
 80041dc:	b280      	uxth	r0, r0
}
 80041de:	4770      	bx	lr
 80041e0:	40024030 	.word	0x40024030

080041e4 <TSL_acq_ComputeDelta>:
  return((TSL_tDelta_T)(ref - meas));
 80041e4:	1a40      	subs	r0, r0, r1
 80041e6:	b200      	sxth	r0, r0
}
 80041e8:	4770      	bx	lr

080041ea <TSL_acq_ComputeMeas>:
  return((TSL_tMeas_T)(ref - delta));
 80041ea:	1a40      	subs	r0, r0, r1
 80041ec:	b280      	uxth	r0, r0
}
 80041ee:	4770      	bx	lr

080041f0 <TSL_acq_CheckNoise>:
}
 80041f0:	2000      	movs	r0, #0
 80041f2:	4770      	bx	lr

080041f4 <TSL_acq_UseFilter>:
}
 80041f4:	2001      	movs	r0, #1
 80041f6:	4770      	bx	lr

080041f8 <TSL_acq_TestReferenceOutOfRange>:
}
 80041f8:	2000      	movs	r0, #0
 80041fa:	4770      	bx	lr

080041fc <TSL_acq_TestFirstReferenceIsValid>:
}
 80041fc:	2001      	movs	r0, #1
 80041fe:	4770      	bx	lr

08004200 <TSL_acq_BankStartAcq>:
{
 8004200:	b570      	push	{r4, r5, r6, lr}
  TSC->ICR |= 0x03;
 8004202:	2503      	movs	r5, #3
 8004204:	4c07      	ldr	r4, [pc, #28]	; (8004224 <TSL_acq_BankStartAcq+0x24>)
 8004206:	68a3      	ldr	r3, [r4, #8]
 8004208:	432b      	orrs	r3, r5
 800420a:	60a3      	str	r3, [r4, #8]
  SoftDelay(TSL_Globals.DelayDischarge);
 800420c:	4b06      	ldr	r3, [pc, #24]	; (8004228 <TSL_acq_BankStartAcq+0x28>)
 800420e:	6918      	ldr	r0, [r3, #16]
 8004210:	f7ff ff84 	bl	800411c <SoftDelay>
  TSC->IER &= (uint32_t)(~0x03);
 8004214:	6863      	ldr	r3, [r4, #4]
 8004216:	43ab      	bics	r3, r5
 8004218:	6063      	str	r3, [r4, #4]
  TSC->CR |= 0x02;
 800421a:	2302      	movs	r3, #2
 800421c:	6822      	ldr	r2, [r4, #0]
 800421e:	4313      	orrs	r3, r2
 8004220:	6023      	str	r3, [r4, #0]
}
 8004222:	bd70      	pop	{r4, r5, r6, pc}
 8004224:	40024000 	.word	0x40024000
 8004228:	20000a88 	.word	0x20000a88

0800422c <TSL_dxs_FirstObj>:
#endif // TSLPRM_TOTAL_LNRTS > 0

  }

#endif // TSLPRM_USE_DXS > 0
}
 800422c:	4770      	bx	lr
	...

08004230 <TSL_ecs_CalcK>:
  * @param[in] k_slow  K coefficient when objects have different delta variation
  * @param[in] k_fast  K coefficient when objects have the same delta variation
  * @retval    K coefficient (slow or fast)
  */
TSL_tKCoeff_T TSL_ecs_CalcK(TSL_ObjectGroup_T *objgrp, TSL_tKCoeff_T k_slow, TSL_tKCoeff_T k_fast)
{
 8004230:	b5f0      	push	{r4, r5, r6, r7, lr}
  TSL_tDelta_T ECS_Fast_Enable = 1;
  TSL_tDelta_T ECS_Fast_Direction = 0;
  CONST TSL_Object_T *pobj;
  TSL_tKCoeff_T retval = k_slow;
  TSL_tNb_T nb_channels = 0; // Number of channels inside current object
  TSL_ChannelData_T *p_Ch = 0;
 8004232:	2400      	movs	r4, #0
{
 8004234:	000d      	movs	r5, r1
  TSL_tDelta_T ECS_Fast_Direction = 0;
 8004236:	0027      	movs	r7, r4
  TSL_tDelta_T ECS_Fast_Enable = 1;
 8004238:	2601      	movs	r6, #1
 800423a:	6803      	ldr	r3, [r0, #0]
{
 800423c:	b087      	sub	sp, #28
 800423e:	9004      	str	r0, [sp, #16]
 8004240:	9205      	str	r2, [sp, #20]
 8004242:	9302      	str	r3, [sp, #8]
  TSL_tNb_T nb_channels = 0; // Number of channels inside current object
 8004244:	9403      	str	r4, [sp, #12]
  if (k_fast > 255) k_fast = 255;

  pobj = objgrp->p_Obj; // First object in the group

  // Process all objects
  for (idx_obj = 0; idx_obj < objgrp->NbObjects; idx_obj++)
 8004246:	9401      	str	r4, [sp, #4]
 8004248:	9b04      	ldr	r3, [sp, #16]
 800424a:	9a01      	ldr	r2, [sp, #4]
 800424c:	889b      	ldrh	r3, [r3, #4]
 800424e:	4293      	cmp	r3, r2
 8004250:	d80b      	bhi.n	800426a <TSL_ecs_CalcK+0x3a>
    pobj++; // Next object

  } // for all objects

  // Assign K fast following Delta variations
  if (ECS_Fast_Enable)
 8004252:	2e00      	cmp	r6, #0
 8004254:	d006      	beq.n	8004264 <TSL_ecs_CalcK+0x34>
 8004256:	466b      	mov	r3, sp
 8004258:	8a9d      	ldrh	r5, [r3, #20]
 800425a:	9b05      	ldr	r3, [sp, #20]
 800425c:	2bff      	cmp	r3, #255	; 0xff
 800425e:	d900      	bls.n	8004262 <TSL_ecs_CalcK+0x32>
 8004260:	25ff      	movs	r5, #255	; 0xff
 8004262:	b2ad      	uxth	r5, r5
  {
    retval = k_fast;
  }

  return retval;
}
 8004264:	0028      	movs	r0, r5
 8004266:	b007      	add	sp, #28
 8004268:	bdf0      	pop	{r4, r5, r6, r7, pc}
    TSL_obj_SetGlobalObj(pobj);
 800426a:	9802      	ldr	r0, [sp, #8]
 800426c:	f000 f8ce 	bl	800440c <TSL_obj_SetGlobalObj>
    if ((THIS_OBJ_TYPE == TSL_OBJ_TOUCHKEY) || (THIS_OBJ_TYPE == TSL_OBJ_TOUCHKEYB))
 8004270:	4a18      	ldr	r2, [pc, #96]	; (80042d4 <TSL_ecs_CalcK+0xa4>)
 8004272:	68d3      	ldr	r3, [r2, #12]
 8004274:	781b      	ldrb	r3, [r3, #0]
 8004276:	3b10      	subs	r3, #16
 8004278:	2b01      	cmp	r3, #1
 800427a:	d807      	bhi.n	800428c <TSL_ecs_CalcK+0x5c>
      if (THIS_TKEY_STATEID != TSL_STATEID_RELEASE)
 800427c:	6953      	ldr	r3, [r2, #20]
 800427e:	681a      	ldr	r2, [r3, #0]
 8004280:	7812      	ldrb	r2, [r2, #0]
 8004282:	2a02      	cmp	r2, #2
 8004284:	d108      	bne.n	8004298 <TSL_ecs_CalcK+0x68>
      p_Ch = TSL_Globals.This_TKey->p_ChD;
 8004286:	689c      	ldr	r4, [r3, #8]
      nb_channels = 1;
 8004288:	2301      	movs	r3, #1
 800428a:	9303      	str	r3, [sp, #12]
    if (p_Ch == 0) return 0;
 800428c:	2c00      	cmp	r4, #0
 800428e:	d01e      	beq.n	80042ce <TSL_ecs_CalcK+0x9e>
    for (idx_ch = 0; idx_ch < nb_channels; idx_ch++)
 8004290:	2300      	movs	r3, #0
 8004292:	9a03      	ldr	r2, [sp, #12]
 8004294:	4293      	cmp	r3, r2
 8004296:	d307      	bcc.n	80042a8 <TSL_ecs_CalcK+0x78>
  for (idx_obj = 0; idx_obj < objgrp->NbObjects; idx_obj++)
 8004298:	9b01      	ldr	r3, [sp, #4]
 800429a:	3301      	adds	r3, #1
 800429c:	b2db      	uxtb	r3, r3
 800429e:	9301      	str	r3, [sp, #4]
 80042a0:	9b02      	ldr	r3, [sp, #8]
 80042a2:	3308      	adds	r3, #8
 80042a4:	9302      	str	r3, [sp, #8]
 80042a6:	e7cf      	b.n	8004248 <TSL_ecs_CalcK+0x18>
      ldelta = p_Ch->Delta;
 80042a8:	2108      	movs	r1, #8
 80042aa:	5e62      	ldrsh	r2, [r4, r1]
      if (ldelta == 0) // No Fast ECS !
 80042ac:	2a00      	cmp	r2, #0
 80042ae:	d00c      	beq.n	80042ca <TSL_ecs_CalcK+0x9a>
        if (ldelta < 0)
 80042b0:	da07      	bge.n	80042c2 <TSL_ecs_CalcK+0x92>
          if (ECS_Fast_Direction > 0) // No Fast ECS !
 80042b2:	2f00      	cmp	r7, #0
 80042b4:	dc09      	bgt.n	80042ca <TSL_ecs_CalcK+0x9a>
            ECS_Fast_Direction = -1;
 80042b6:	2701      	movs	r7, #1
 80042b8:	427f      	negs	r7, r7
    for (idx_ch = 0; idx_ch < nb_channels; idx_ch++)
 80042ba:	3301      	adds	r3, #1
      p_Ch++; // Next channel
 80042bc:	340c      	adds	r4, #12
    for (idx_ch = 0; idx_ch < nb_channels; idx_ch++)
 80042be:	b2db      	uxtb	r3, r3
 80042c0:	e7e7      	b.n	8004292 <TSL_ecs_CalcK+0x62>
          if (ECS_Fast_Direction < 0) // No Fast ECS !
 80042c2:	2f00      	cmp	r7, #0
 80042c4:	db01      	blt.n	80042ca <TSL_ecs_CalcK+0x9a>
            ECS_Fast_Direction = 1;
 80042c6:	2701      	movs	r7, #1
 80042c8:	e7f7      	b.n	80042ba <TSL_ecs_CalcK+0x8a>
            ECS_Fast_Enable = 0;
 80042ca:	2600      	movs	r6, #0
 80042cc:	e7f5      	b.n	80042ba <TSL_ecs_CalcK+0x8a>
    if (p_Ch == 0) return 0;
 80042ce:	0025      	movs	r5, r4
 80042d0:	e7c8      	b.n	8004264 <TSL_ecs_CalcK+0x34>
 80042d2:	46c0      	nop			; (mov r8, r8)
 80042d4:	20000a88 	.word	0x20000a88

080042d8 <TSL_ecs_ProcessK>:
  * @param[in] objgrp Pointer to the objects group to process
  * @param[in] Kcoeff K coefficient to apply
  * @retval None
  */
void TSL_ecs_ProcessK(TSL_ObjectGroup_T *objgrp, TSL_tKCoeff_T Kcoeff)
{
 80042d8:	b5f0      	push	{r4, r5, r6, r7, lr}
 80042da:	b087      	sub	sp, #28
 80042dc:	9004      	str	r0, [sp, #16]
 80042de:	1c0b      	adds	r3, r1, #0
 80042e0:	29ff      	cmp	r1, #255	; 0xff
 80042e2:	d900      	bls.n	80042e6 <TSL_ecs_ProcessK+0xe>
 80042e4:	23ff      	movs	r3, #255	; 0xff
  TSL_tKCoeff_T Kcoeff_comp;
  uint32_t ECS_meas;
  uint32_t ECS_ref;
  TSL_tNb_T nb_channels = 0; // Number of channels inside current object
  TSL_ChannelData_T *p_Ch = 0;
  void(*pFunc_SetStateCalibration)(TSL_tCounter_T delay) = 0;
 80042e6:	2500      	movs	r5, #0
 80042e8:	b29b      	uxth	r3, r3
 80042ea:	9302      	str	r3, [sp, #8]
  if (Kcoeff > 255) Kcoeff = 255;

  pobj = objgrp->p_Obj; // First object in the group

  // Calculate the K coefficient complement
  Kcoeff_comp = (0xFF ^ Kcoeff) + 1;
 80042ec:	23ff      	movs	r3, #255	; 0xff
  TSL_ChannelData_T *p_Ch = 0;
 80042ee:	002c      	movs	r4, r5
  Kcoeff_comp = (0xFF ^ Kcoeff) + 1;
 80042f0:	9a02      	ldr	r2, [sp, #8]
  TSL_tNb_T nb_channels = 0; // Number of channels inside current object
 80042f2:	9503      	str	r5, [sp, #12]
  Kcoeff_comp = (0xFF ^ Kcoeff) + 1;
 80042f4:	4053      	eors	r3, r2
 80042f6:	3301      	adds	r3, #1
 80042f8:	b29b      	uxth	r3, r3
 80042fa:	9305      	str	r3, [sp, #20]

  // Process all objects
  for (idx_obj = 0; idx_obj < objgrp->NbObjects; idx_obj++)
 80042fc:	9b04      	ldr	r3, [sp, #16]
 80042fe:	9501      	str	r5, [sp, #4]
 8004300:	681f      	ldr	r7, [r3, #0]
 8004302:	9b04      	ldr	r3, [sp, #16]
 8004304:	9a01      	ldr	r2, [sp, #4]
 8004306:	889b      	ldrh	r3, [r3, #4]
 8004308:	4293      	cmp	r3, r2
 800430a:	d913      	bls.n	8004334 <TSL_ecs_ProcessK+0x5c>
  {

    // Assign global object
    TSL_obj_SetGlobalObj(pobj);
 800430c:	0038      	movs	r0, r7
 800430e:	f000 f87d 	bl	800440c <TSL_obj_SetGlobalObj>

#if TSLPRM_TOTAL_TKEYS > 0
    if ((THIS_OBJ_TYPE == TSL_OBJ_TOUCHKEY) || (THIS_OBJ_TYPE == TSL_OBJ_TOUCHKEYB))
 8004312:	4a1d      	ldr	r2, [pc, #116]	; (8004388 <TSL_ecs_ProcessK+0xb0>)
 8004314:	68d3      	ldr	r3, [r2, #12]
 8004316:	781b      	ldrb	r3, [r3, #0]
 8004318:	3b10      	subs	r3, #16
 800431a:	2b01      	cmp	r3, #1
 800431c:	d808      	bhi.n	8004330 <TSL_ecs_ProcessK+0x58>
    {
      // Ignore object if not in Release state (OFF or Error in this case)
      if (THIS_TKEY_STATEID != TSL_STATEID_RELEASE)
 800431e:	6953      	ldr	r3, [r2, #20]
 8004320:	681a      	ldr	r2, [r3, #0]
 8004322:	7812      	ldrb	r2, [r2, #0]
 8004324:	2a02      	cmp	r2, #2
 8004326:	d127      	bne.n	8004378 <TSL_ecs_ProcessK+0xa0>
      {
        pobj++; // Next object
        continue; // Stop processing of current object
      }
      nb_channels = 1;
      p_Ch = TSL_Globals.This_TKey->p_ChD;
 8004328:	689c      	ldr	r4, [r3, #8]
      nb_channels = 1;
 800432a:	2301      	movs	r3, #1
      pFunc_SetStateCalibration = &TSL_tkey_SetStateCalibration;
 800432c:	4d17      	ldr	r5, [pc, #92]	; (800438c <TSL_ecs_ProcessK+0xb4>)
      nb_channels = 1;
 800432e:	9303      	str	r3, [sp, #12]
      pFunc_SetStateCalibration = &TSL_linrot_SetStateCalibration;
    }
#endif

    // Check channel pointer variable
    if (p_Ch == 0) return;
 8004330:	2c00      	cmp	r4, #0
 8004332:	d127      	bne.n	8004384 <TSL_ecs_ProcessK+0xac>

    pobj++; // Next object

  } // for all objects

}
 8004334:	b007      	add	sp, #28
 8004336:	bdf0      	pop	{r4, r5, r6, r7, pc}
      ECS_meas = TSL_acq_ComputeMeas(p_Ch->Ref, p_Ch->Delta);
 8004338:	2308      	movs	r3, #8
 800433a:	5ee1      	ldrsh	r1, [r4, r3]
 800433c:	88a0      	ldrh	r0, [r4, #4]
 800433e:	f7ff ff54 	bl	80041ea <TSL_acq_ComputeMeas>
      ECS_ref = (uint32_t)(p_Ch->Ref);
 8004342:	88a2      	ldrh	r2, [r4, #4]
      ECS_ref += p_Ch->RefRest;
 8004344:	79a3      	ldrb	r3, [r4, #6]
      ECS_ref <<= 8;
 8004346:	0212      	lsls	r2, r2, #8
      ECS_ref += p_Ch->RefRest;
 8004348:	189b      	adds	r3, r3, r2
      ECS_ref *= Kcoeff_comp;
 800434a:	9a05      	ldr	r2, [sp, #20]
      ECS_meas <<= 8;
 800434c:	0200      	lsls	r0, r0, #8
      ECS_ref *= Kcoeff_comp;
 800434e:	4353      	muls	r3, r2
      ECS_ref += (Kcoeff * ECS_meas);
 8004350:	9a02      	ldr	r2, [sp, #8]
 8004352:	4350      	muls	r0, r2
 8004354:	18c0      	adds	r0, r0, r3
      p_Ch->RefRest = (TSL_tRefRest_T)((ECS_ref >> 8) & 0xFF);
 8004356:	0a03      	lsrs	r3, r0, #8
      p_Ch->Ref = (TSL_tRef_T)(ECS_ref >> 16);
 8004358:	0c00      	lsrs	r0, r0, #16
 800435a:	80a0      	strh	r0, [r4, #4]
      p_Ch->RefRest = (TSL_tRefRest_T)((ECS_ref >> 8) & 0xFF);
 800435c:	71a3      	strb	r3, [r4, #6]
      if (TSL_acq_TestReferenceOutOfRange(p_Ch) == TSL_TRUE)
 800435e:	0020      	movs	r0, r4
 8004360:	f7ff ff4a 	bl	80041f8 <TSL_acq_TestReferenceOutOfRange>
 8004364:	2801      	cmp	r0, #1
 8004366:	d101      	bne.n	800436c <TSL_ecs_ProcessK+0x94>
        pFunc_SetStateCalibration(0);
 8004368:	2000      	movs	r0, #0
 800436a:	47a8      	blx	r5
    for (idx_ch = 0; idx_ch < nb_channels; idx_ch++)
 800436c:	3601      	adds	r6, #1
      p_Ch++; // Next channel
 800436e:	340c      	adds	r4, #12
    for (idx_ch = 0; idx_ch < nb_channels; idx_ch++)
 8004370:	b2f6      	uxtb	r6, r6
 8004372:	9b03      	ldr	r3, [sp, #12]
 8004374:	429e      	cmp	r6, r3
 8004376:	d3df      	bcc.n	8004338 <TSL_ecs_ProcessK+0x60>
  for (idx_obj = 0; idx_obj < objgrp->NbObjects; idx_obj++)
 8004378:	9b01      	ldr	r3, [sp, #4]
 800437a:	3708      	adds	r7, #8
 800437c:	3301      	adds	r3, #1
 800437e:	b2db      	uxtb	r3, r3
 8004380:	9301      	str	r3, [sp, #4]
 8004382:	e7be      	b.n	8004302 <TSL_ecs_ProcessK+0x2a>
    for (idx_ch = 0; idx_ch < nb_channels; idx_ch++)
 8004384:	2600      	movs	r6, #0
 8004386:	e7f4      	b.n	8004372 <TSL_ecs_ProcessK+0x9a>
 8004388:	20000a88 	.word	0x20000a88
 800438c:	080045b5 	.word	0x080045b5

08004390 <TSL_ecs_Process>:
TSL_Status_enum_T TSL_ecs_Process(TSL_ObjectGroup_T *objgrp)
{
  TSL_tKCoeff_T MyKcoeff;
  TSL_Status_enum_T retval;

  if ((objgrp->StateMask & TSL_STATE_RELEASE_BIT_MASK) && !(objgrp->StateMask & TSL_STATEMASK_ACTIVE))
 8004390:	233f      	movs	r3, #63	; 0x3f
{
 8004392:	b570      	push	{r4, r5, r6, lr}
  if ((objgrp->StateMask & TSL_STATE_RELEASE_BIT_MASK) && !(objgrp->StateMask & TSL_STATEMASK_ACTIVE))
 8004394:	88c2      	ldrh	r2, [r0, #6]
{
 8004396:	0004      	movs	r4, r0
  if ((objgrp->StateMask & TSL_STATE_RELEASE_BIT_MASK) && !(objgrp->StateMask & TSL_STATEMASK_ACTIVE))
 8004398:	4013      	ands	r3, r2
 800439a:	2b01      	cmp	r3, #1
 800439c:	d124      	bne.n	80043e8 <TSL_ecs_Process+0x58>
  {
#if TSLPRM_ECS_DELAY > 0
    if (!objgrp->ECS_wait)
 800439e:	7a85      	ldrb	r5, [r0, #10]
 80043a0:	2d00      	cmp	r5, #0
 80043a2:	d12a      	bne.n	80043fa <TSL_ecs_Process+0x6a>
    {
      disableInterrupts();
 80043a4:	2102      	movs	r1, #2
 80043a6:	4a17      	ldr	r2, [pc, #92]	; (8004404 <TSL_ecs_Process+0x74>)
 80043a8:	6810      	ldr	r0, [r2, #0]
 80043aa:	4388      	bics	r0, r1
 80043ac:	6010      	str	r0, [r2, #0]
      objgrp->ECS_start_time = TSL_Globals.Tick_ms; // Save the current time
 80043ae:	4816      	ldr	r0, [pc, #88]	; (8004408 <TSL_ecs_Process+0x78>)
 80043b0:	8800      	ldrh	r0, [r0, #0]
 80043b2:	81a0      	strh	r0, [r4, #12]
      enableInterrupts();
 80043b4:	6810      	ldr	r0, [r2, #0]
 80043b6:	4301      	orrs	r1, r0
 80043b8:	6011      	str	r1, [r2, #0]
      objgrp->ECS_wait = 1;
 80043ba:	72a3      	strb	r3, [r4, #10]
      objgrp->ECS_exec = 0;
 80043bc:	7265      	strb	r5, [r4, #9]

#if TSLPRM_ECS_DELAY > 0
  if (objgrp->ECS_wait && (!objgrp->ECS_exec))
  {
    // Execute the ECS only when the delay has elapsed
    if (TSL_tim_CheckDelay_ms(TSLPRM_ECS_DELAY, &objgrp->ECS_start_time) == TSL_STATUS_OK)
 80043be:	0021      	movs	r1, r4
 80043c0:	20fa      	movs	r0, #250	; 0xfa
 80043c2:	310c      	adds	r1, #12
 80043c4:	0040      	lsls	r0, r0, #1
 80043c6:	f000 f8a5 	bl	8004514 <TSL_tim_CheckDelay_ms>
 80043ca:	2800      	cmp	r0, #0
 80043cc:	d111      	bne.n	80043f2 <TSL_ecs_Process+0x62>
    {
      objgrp->ECS_exec = 1;
 80043ce:	2301      	movs	r3, #1
 80043d0:	7263      	strb	r3, [r4, #9]
#endif

  if (objgrp->ECS_exec)
  {
    // Calculate the K coefficient
    MyKcoeff = TSL_ecs_CalcK(objgrp, TSLPRM_ECS_K_SLOW, TSLPRM_ECS_K_FAST);
 80043d2:	2214      	movs	r2, #20
 80043d4:	210a      	movs	r1, #10
 80043d6:	0020      	movs	r0, r4
 80043d8:	f7ff ff2a 	bl	8004230 <TSL_ecs_CalcK>
 80043dc:	0001      	movs	r1, r0
    // Process the objects
    TSL_ecs_ProcessK(objgrp, MyKcoeff);
 80043de:	0020      	movs	r0, r4
 80043e0:	f7ff ff7a 	bl	80042d8 <TSL_ecs_ProcessK>
    retval = TSL_STATUS_OK;
 80043e4:	2000      	movs	r0, #0
  else
  {
    retval = TSL_STATUS_BUSY;
  }

  return retval;
 80043e6:	e003      	b.n	80043f0 <TSL_ecs_Process+0x60>
    objgrp->ECS_wait = 0;
 80043e8:	2300      	movs	r3, #0
 80043ea:	7283      	strb	r3, [r0, #10]
    objgrp->ECS_exec = 0;
 80043ec:	7243      	strb	r3, [r0, #9]
    retval = TSL_STATUS_BUSY;
 80043ee:	2001      	movs	r0, #1
}
 80043f0:	bd70      	pop	{r4, r5, r6, pc}
  if (objgrp->ECS_exec)
 80043f2:	7a63      	ldrb	r3, [r4, #9]
 80043f4:	2b00      	cmp	r3, #0
 80043f6:	d0fa      	beq.n	80043ee <TSL_ecs_Process+0x5e>
 80043f8:	e7eb      	b.n	80043d2 <TSL_ecs_Process+0x42>
  if (objgrp->ECS_wait && (!objgrp->ECS_exec))
 80043fa:	7a43      	ldrb	r3, [r0, #9]
 80043fc:	2b00      	cmp	r3, #0
 80043fe:	d1e8      	bne.n	80043d2 <TSL_ecs_Process+0x42>
 8004400:	e7dd      	b.n	80043be <TSL_ecs_Process+0x2e>
 8004402:	46c0      	nop			; (mov r8, r8)
 8004404:	e000e010 	.word	0xe000e010
 8004408:	20000a88 	.word	0x20000a88

0800440c <TSL_obj_SetGlobalObj>:
void TSL_obj_SetGlobalObj(CONST TSL_Object_T *pobj)
{

  TSL_Globals.This_Obj = pobj;

  switch (pobj->Type)
 800440c:	7803      	ldrb	r3, [r0, #0]
  TSL_Globals.This_Obj = pobj;
 800440e:	4a04      	ldr	r2, [pc, #16]	; (8004420 <TSL_obj_SetGlobalObj+0x14>)
  switch (pobj->Type)
 8004410:	3b10      	subs	r3, #16
  TSL_Globals.This_Obj = pobj;
 8004412:	60d0      	str	r0, [r2, #12]
  switch (pobj->Type)
 8004414:	2b01      	cmp	r3, #1
 8004416:	d801      	bhi.n	800441c <TSL_obj_SetGlobalObj+0x10>
  {
#if TSLPRM_TOTAL_TKEYS > 0
    case TSL_OBJ_TOUCHKEY:
    case TSL_OBJ_TOUCHKEYB:
      TSL_Globals.This_TKey = (TSL_TouchKey_T *)pobj->Elmt;
 8004418:	6843      	ldr	r3, [r0, #4]
 800441a:	6153      	str	r3, [r2, #20]
      break;
#endif
    default:
      break;
  }
}
 800441c:	4770      	bx	lr
 800441e:	46c0      	nop			; (mov r8, r8)
 8004420:	20000a88 	.word	0x20000a88

08004424 <TSL_obj_GroupInit>:
{
 8004424:	b5f7      	push	{r0, r1, r2, r4, r5, r6, r7, lr}
  objgrp->Change = TSL_STATE_NOT_CHANGED;
 8004426:	2500      	movs	r5, #0
{
 8004428:	0004      	movs	r4, r0
  pobj = objgrp->p_Obj; // First object in the group
 800442a:	6806      	ldr	r6, [r0, #0]
  objgrp->Change = TSL_STATE_NOT_CHANGED;
 800442c:	7205      	strb	r5, [r0, #8]
  for (idx_obj = 0; idx_obj < objgrp->NbObjects; idx_obj++)
 800442e:	9501      	str	r5, [sp, #4]
 8004430:	88a3      	ldrh	r3, [r4, #4]
 8004432:	9a01      	ldr	r2, [sp, #4]
 8004434:	4293      	cmp	r3, r2
 8004436:	d801      	bhi.n	800443c <TSL_obj_GroupInit+0x18>
  objgrp->StateMask = objgrp_state_mask;
 8004438:	80e5      	strh	r5, [r4, #6]
}
 800443a:	bdf7      	pop	{r0, r1, r2, r4, r5, r6, r7, pc}
    TSL_obj_SetGlobalObj(pobj);
 800443c:	0030      	movs	r0, r6
 800443e:	f7ff ffe5 	bl	800440c <TSL_obj_SetGlobalObj>
    switch (pobj->Type)
 8004442:	7833      	ldrb	r3, [r6, #0]
 8004444:	2b11      	cmp	r3, #17
 8004446:	d111      	bne.n	800446c <TSL_obj_GroupInit+0x48>
        TSL_Params.p_TKeyMT->Init();
 8004448:	4f0b      	ldr	r7, [pc, #44]	; (8004478 <TSL_obj_GroupInit+0x54>)
 800444a:	68fb      	ldr	r3, [r7, #12]
 800444c:	681b      	ldr	r3, [r3, #0]
 800444e:	4798      	blx	r3
        if (TSL_Globals.This_TKey->p_Data->Change)
 8004450:	2140      	movs	r1, #64	; 0x40
 8004452:	4b0a      	ldr	r3, [pc, #40]	; (800447c <TSL_obj_GroupInit+0x58>)
 8004454:	695b      	ldr	r3, [r3, #20]
 8004456:	681b      	ldr	r3, [r3, #0]
 8004458:	789a      	ldrb	r2, [r3, #2]
 800445a:	420a      	tst	r2, r1
 800445c:	d001      	beq.n	8004462 <TSL_obj_GroupInit+0x3e>
          objgrp->Change = TSL_STATE_CHANGED;
 800445e:	2201      	movs	r2, #1
 8004460:	7222      	strb	r2, [r4, #8]
        objgrp_state_mask |= TSL_Params.p_TKeySM[TSL_Globals.This_TKey->p_Data->StateId].StateMask;
 8004462:	781b      	ldrb	r3, [r3, #0]
 8004464:	68ba      	ldr	r2, [r7, #8]
 8004466:	00db      	lsls	r3, r3, #3
 8004468:	5c9b      	ldrb	r3, [r3, r2]
 800446a:	431d      	orrs	r5, r3
  for (idx_obj = 0; idx_obj < objgrp->NbObjects; idx_obj++)
 800446c:	9b01      	ldr	r3, [sp, #4]
    pobj++; // Next object
 800446e:	3608      	adds	r6, #8
  for (idx_obj = 0; idx_obj < objgrp->NbObjects; idx_obj++)
 8004470:	3301      	adds	r3, #1
 8004472:	b2db      	uxtb	r3, r3
 8004474:	9301      	str	r3, [sp, #4]
 8004476:	e7db      	b.n	8004430 <TSL_obj_GroupInit+0xc>
 8004478:	20000014 	.word	0x20000014
 800447c:	20000a88 	.word	0x20000a88

08004480 <TSL_obj_GroupProcess>:
{
 8004480:	b5f7      	push	{r0, r1, r2, r4, r5, r6, r7, lr}
  objgrp->Change = TSL_STATE_NOT_CHANGED;
 8004482:	2500      	movs	r5, #0
{
 8004484:	0004      	movs	r4, r0
  pobj = objgrp->p_Obj; // First object in the group
 8004486:	6806      	ldr	r6, [r0, #0]
  objgrp->Change = TSL_STATE_NOT_CHANGED;
 8004488:	7205      	strb	r5, [r0, #8]
  for (idx_obj = 0; idx_obj < objgrp->NbObjects; idx_obj++)
 800448a:	9501      	str	r5, [sp, #4]
 800448c:	88a3      	ldrh	r3, [r4, #4]
 800448e:	9a01      	ldr	r2, [sp, #4]
 8004490:	4293      	cmp	r3, r2
 8004492:	d801      	bhi.n	8004498 <TSL_obj_GroupProcess+0x18>
  objgrp->StateMask = objgrp_state_mask;
 8004494:	80e5      	strh	r5, [r4, #6]
}
 8004496:	bdf7      	pop	{r0, r1, r2, r4, r5, r6, r7, pc}
    TSL_obj_SetGlobalObj(pobj);
 8004498:	0030      	movs	r0, r6
 800449a:	f7ff ffb7 	bl	800440c <TSL_obj_SetGlobalObj>
    switch (pobj->Type)
 800449e:	7833      	ldrb	r3, [r6, #0]
 80044a0:	2b11      	cmp	r3, #17
 80044a2:	d111      	bne.n	80044c8 <TSL_obj_GroupProcess+0x48>
        TSL_Params.p_TKeyMT->Process();
 80044a4:	4f0b      	ldr	r7, [pc, #44]	; (80044d4 <TSL_obj_GroupProcess+0x54>)
 80044a6:	68fb      	ldr	r3, [r7, #12]
 80044a8:	685b      	ldr	r3, [r3, #4]
 80044aa:	4798      	blx	r3
        if (TSL_Globals.This_TKey->p_Data->Change)
 80044ac:	2140      	movs	r1, #64	; 0x40
 80044ae:	4b0a      	ldr	r3, [pc, #40]	; (80044d8 <TSL_obj_GroupProcess+0x58>)
 80044b0:	695b      	ldr	r3, [r3, #20]
 80044b2:	681b      	ldr	r3, [r3, #0]
 80044b4:	789a      	ldrb	r2, [r3, #2]
 80044b6:	420a      	tst	r2, r1
 80044b8:	d001      	beq.n	80044be <TSL_obj_GroupProcess+0x3e>
          objgrp->Change = TSL_STATE_CHANGED;
 80044ba:	2201      	movs	r2, #1
 80044bc:	7222      	strb	r2, [r4, #8]
        objgrp_state_mask |= TSL_Params.p_TKeySM[TSL_Globals.This_TKey->p_Data->StateId].StateMask;
 80044be:	781b      	ldrb	r3, [r3, #0]
 80044c0:	68ba      	ldr	r2, [r7, #8]
 80044c2:	00db      	lsls	r3, r3, #3
 80044c4:	5c9b      	ldrb	r3, [r3, r2]
 80044c6:	431d      	orrs	r5, r3
  for (idx_obj = 0; idx_obj < objgrp->NbObjects; idx_obj++)
 80044c8:	9b01      	ldr	r3, [sp, #4]
    pobj++; // Next object
 80044ca:	3608      	adds	r6, #8
  for (idx_obj = 0; idx_obj < objgrp->NbObjects; idx_obj++)
 80044cc:	3301      	adds	r3, #1
 80044ce:	b2db      	uxtb	r3, r3
 80044d0:	9301      	str	r3, [sp, #4]
 80044d2:	e7db      	b.n	800448c <TSL_obj_GroupProcess+0xc>
 80044d4:	20000014 	.word	0x20000014
 80044d8:	20000a88 	.word	0x20000a88

080044dc <TSL_tim_ProcessIT>:
  // Count 1 global tick every xxx ms (defined by TSLPRM_TICK_FREQ parameter)
  TSL_Globals.Tick_ms++;

  // Check if 1 second has elapsed
  count_1s++;
  if (count_1s > (TSLPRM_TICK_FREQ - 1))
 80044dc:	20fa      	movs	r0, #250	; 0xfa
  TSL_Globals.Tick_ms++;
 80044de:	4a0b      	ldr	r2, [pc, #44]	; (800450c <TSL_tim_ProcessIT+0x30>)
  count_1s++;
 80044e0:	490b      	ldr	r1, [pc, #44]	; (8004510 <TSL_tim_ProcessIT+0x34>)
  TSL_Globals.Tick_ms++;
 80044e2:	8813      	ldrh	r3, [r2, #0]
  if (count_1s > (TSLPRM_TICK_FREQ - 1))
 80044e4:	0080      	lsls	r0, r0, #2
  TSL_Globals.Tick_ms++;
 80044e6:	3301      	adds	r3, #1
 80044e8:	8013      	strh	r3, [r2, #0]
  count_1s++;
 80044ea:	880b      	ldrh	r3, [r1, #0]
 80044ec:	3301      	adds	r3, #1
 80044ee:	b29b      	uxth	r3, r3
 80044f0:	800b      	strh	r3, [r1, #0]
  if (count_1s > (TSLPRM_TICK_FREQ - 1))
 80044f2:	4283      	cmp	r3, r0
 80044f4:	d307      	bcc.n	8004506 <TSL_tim_ProcessIT+0x2a>
  {
    TSL_Globals.Tick_sec++; // 1 global tick every second
 80044f6:	7893      	ldrb	r3, [r2, #2]
 80044f8:	2000      	movs	r0, #0
 80044fa:	3301      	adds	r3, #1
 80044fc:	b2db      	uxtb	r3, r3
    if (TSL_Globals.Tick_sec > 63)  // Due to DTO counter on 6 bits...
 80044fe:	2b3f      	cmp	r3, #63	; 0x3f
 8004500:	d802      	bhi.n	8004508 <TSL_tim_ProcessIT+0x2c>
    TSL_Globals.Tick_sec++; // 1 global tick every second
 8004502:	7093      	strb	r3, [r2, #2]
    {
      TSL_Globals.Tick_sec = 0;
    }
    count_1s = 0;
 8004504:	8008      	strh	r0, [r1, #0]
  }
}
 8004506:	4770      	bx	lr
      TSL_Globals.Tick_sec = 0;
 8004508:	7090      	strb	r0, [r2, #2]
 800450a:	e7fb      	b.n	8004504 <TSL_tim_ProcessIT+0x28>
 800450c:	20000a88 	.word	0x20000a88
 8004510:	20000a60 	.word	0x20000a60

08004514 <TSL_tim_CheckDelay_ms>:
  * @param[in] delay_ms  Delay in ms
  * @param[in] last_tick Variable holding the last tick value
  * @retval Status
  */
TSL_Status_enum_T TSL_tim_CheckDelay_ms(TSL_tTick_ms_T delay_ms, __IO TSL_tTick_ms_T *last_tick)
{
 8004514:	0002      	movs	r2, r0
  TSL_tTick_ms_T tick;
  TSL_tTick_ms_T diff;

  disableInterrupts();
 8004516:	2002      	movs	r0, #2
 8004518:	4b0f      	ldr	r3, [pc, #60]	; (8004558 <TSL_tim_CheckDelay_ms+0x44>)
{
 800451a:	b530      	push	{r4, r5, lr}
  disableInterrupts();
 800451c:	681c      	ldr	r4, [r3, #0]
 800451e:	4384      	bics	r4, r0
 8004520:	601c      	str	r4, [r3, #0]

  tick = TSL_Globals.Tick_ms;

  if (delay_ms == 0)
 8004522:	001c      	movs	r4, r3
 8004524:	2a00      	cmp	r2, #0
 8004526:	d103      	bne.n	8004530 <TSL_tim_CheckDelay_ms+0x1c>
  {
    enableInterrupts();
 8004528:	681a      	ldr	r2, [r3, #0]
 800452a:	4302      	orrs	r2, r0
 800452c:	601a      	str	r2, [r3, #0]
  }

  enableInterrupts();
  return TSL_STATUS_BUSY;

}
 800452e:	bd30      	pop	{r4, r5, pc}
  tick = TSL_Globals.Tick_ms;
 8004530:	4b0a      	ldr	r3, [pc, #40]	; (800455c <TSL_tim_CheckDelay_ms+0x48>)
 8004532:	2502      	movs	r5, #2
 8004534:	8818      	ldrh	r0, [r3, #0]
  if (tick >= *last_tick)
 8004536:	880b      	ldrh	r3, [r1, #0]
    diff = (0xFFFF - *last_tick) + tick + 1;
 8004538:	880b      	ldrh	r3, [r1, #0]
 800453a:	1ac3      	subs	r3, r0, r3
 800453c:	b29b      	uxth	r3, r3
  if (diff >= (TSL_tTick_ms_T)delay_ms) // Direct value for 1ms tick
 800453e:	4293      	cmp	r3, r2
 8004540:	d305      	bcc.n	800454e <TSL_tim_CheckDelay_ms+0x3a>
    *last_tick = tick;
 8004542:	8008      	strh	r0, [r1, #0]
    enableInterrupts();
 8004544:	6823      	ldr	r3, [r4, #0]
    return TSL_STATUS_OK;
 8004546:	2000      	movs	r0, #0
    enableInterrupts();
 8004548:	431d      	orrs	r5, r3
 800454a:	6025      	str	r5, [r4, #0]
    return TSL_STATUS_OK;
 800454c:	e7ef      	b.n	800452e <TSL_tim_CheckDelay_ms+0x1a>
  enableInterrupts();
 800454e:	6823      	ldr	r3, [r4, #0]
  return TSL_STATUS_BUSY;
 8004550:	2001      	movs	r0, #1
  enableInterrupts();
 8004552:	431d      	orrs	r5, r3
 8004554:	6025      	str	r5, [r4, #0]
  return TSL_STATUS_BUSY;
 8004556:	e7ea      	b.n	800452e <TSL_tim_CheckDelay_ms+0x1a>
 8004558:	e000e010 	.word	0xe000e010
 800455c:	20000a88 	.word	0x20000a88

08004560 <TSL_tkey_Process>:
  */
void TSL_tkey_Process(void)
{
  TSL_StateId_enum_T prev_state_id;

  if ((THIS_DATA_READY != 0) || (THIS_STATEID == TSL_STATEID_OFF))
 8004560:	2101      	movs	r1, #1
{
 8004562:	b570      	push	{r4, r5, r6, lr}
  if ((THIS_DATA_READY != 0) || (THIS_STATEID == TSL_STATEID_OFF))
 8004564:	4d11      	ldr	r5, [pc, #68]	; (80045ac <TSL_tkey_Process+0x4c>)
 8004566:	696a      	ldr	r2, [r5, #20]
 8004568:	6893      	ldr	r3, [r2, #8]
 800456a:	6812      	ldr	r2, [r2, #0]
 800456c:	7814      	ldrb	r4, [r2, #0]
 800456e:	781a      	ldrb	r2, [r3, #0]
 8004570:	420a      	tst	r2, r1
 8004572:	d101      	bne.n	8004578 <TSL_tkey_Process+0x18>
 8004574:	2c13      	cmp	r4, #19
 8004576:	d115      	bne.n	80045a4 <TSL_tkey_Process+0x44>
  {

    THIS_DATA_READY = TSL_DATA_NOT_READY; // The new data is processed
 8004578:	781a      	ldrb	r2, [r3, #0]
 800457a:	438a      	bics	r2, r1
 800457c:	701a      	strb	r2, [r3, #0]
      TSL_Globals.This_TKey->p_SM[THIS_STATEID].StateFunc();
    }
#endif

#if TSLPRM_TOTAL_TOUCHKEYS_B > 0
    if (TSL_Globals.This_Obj->Type == TSL_OBJ_TOUCHKEYB)
 800457e:	68eb      	ldr	r3, [r5, #12]
 8004580:	781b      	ldrb	r3, [r3, #0]
 8004582:	2b11      	cmp	r3, #17
 8004584:	d105      	bne.n	8004592 <TSL_tkey_Process+0x32>
    {
      // Launch the TSL_Params state function
      TSL_Params.p_TKeySM[THIS_STATEID].StateFunc();
 8004586:	4b0a      	ldr	r3, [pc, #40]	; (80045b0 <TSL_tkey_Process+0x50>)
 8004588:	00e2      	lsls	r2, r4, #3
 800458a:	689b      	ldr	r3, [r3, #8]
 800458c:	189b      	adds	r3, r3, r2
 800458e:	685b      	ldr	r3, [r3, #4]
 8004590:	4798      	blx	r3
    }
#endif

    // Check if the new state has changed
    if (THIS_STATEID == prev_state_id)
 8004592:	696b      	ldr	r3, [r5, #20]
 8004594:	2240      	movs	r2, #64	; 0x40
 8004596:	681b      	ldr	r3, [r3, #0]
 8004598:	7818      	ldrb	r0, [r3, #0]
 800459a:	7899      	ldrb	r1, [r3, #2]
 800459c:	42a0      	cmp	r0, r4
 800459e:	d102      	bne.n	80045a6 <TSL_tkey_Process+0x46>
    {
      THIS_CHANGE = TSL_STATE_NOT_CHANGED;
 80045a0:	4391      	bics	r1, r2
 80045a2:	7099      	strb	r1, [r3, #2]
      THIS_STATEID = TSL_STATEID_DETECT;
    }
#endif

  }
}
 80045a4:	bd70      	pop	{r4, r5, r6, pc}
      THIS_CHANGE = TSL_STATE_CHANGED;
 80045a6:	430a      	orrs	r2, r1
 80045a8:	709a      	strb	r2, [r3, #2]
}
 80045aa:	e7fb      	b.n	80045a4 <TSL_tkey_Process+0x44>
 80045ac:	20000a88 	.word	0x20000a88
 80045b0:	20000014 	.word	0x20000014

080045b4 <TSL_tkey_SetStateCalibration>:
  * @param[in] delay Delay before calibration starts (stabilization of noise filter)
  * @retval None
  */
void TSL_tkey_SetStateCalibration(TSL_tCounter_T delay)
{
  THIS_STATEID = TSL_STATEID_CALIB;
 80045b4:	4b11      	ldr	r3, [pc, #68]	; (80045fc <TSL_tkey_SetStateCalibration+0x48>)
{
 80045b6:	b530      	push	{r4, r5, lr}
  THIS_STATEID = TSL_STATEID_CALIB;
 80045b8:	6959      	ldr	r1, [r3, #20]
 80045ba:	2300      	movs	r3, #0
 80045bc:	680a      	ldr	r2, [r1, #0]
  THIS_CHANGE = TSL_STATE_CHANGED;
 80045be:	7894      	ldrb	r4, [r2, #2]
  THIS_STATEID = TSL_STATEID_CALIB;
 80045c0:	7013      	strb	r3, [r2, #0]
  THIS_CHANGE = TSL_STATE_CHANGED;
 80045c2:	3340      	adds	r3, #64	; 0x40
 80045c4:	4323      	orrs	r3, r4
 80045c6:	7093      	strb	r3, [r2, #2]
  THIS_OBJ_STATUS = TSL_OBJ_STATUS_ON;
 80045c8:	688b      	ldr	r3, [r1, #8]
 80045ca:	2118      	movs	r1, #24
 80045cc:	781c      	ldrb	r4, [r3, #0]
 80045ce:	4321      	orrs	r1, r4
 80045d0:	7019      	strb	r1, [r3, #0]

  switch (TSL_Params.NbCalibSamples)
 80045d2:	490b      	ldr	r1, [pc, #44]	; (8004600 <TSL_tkey_SetStateCalibration+0x4c>)
 80045d4:	4c0b      	ldr	r4, [pc, #44]	; (8004604 <TSL_tkey_SetStateCalibration+0x50>)
 80045d6:	888d      	ldrh	r5, [r1, #4]
 80045d8:	2d04      	cmp	r5, #4
 80045da:	d005      	beq.n	80045e8 <TSL_tkey_SetStateCalibration+0x34>
 80045dc:	2d10      	cmp	r5, #16
 80045de:	d00b      	beq.n	80045f8 <TSL_tkey_SetStateCalibration+0x44>
      break;
    case 16:
      CalibDiv = 4;
      break;
    default:
      TSL_Params.NbCalibSamples =  8;
 80045e0:	2508      	movs	r5, #8
 80045e2:	808d      	strh	r5, [r1, #4]
      CalibDiv = 3;
 80045e4:	3d05      	subs	r5, #5
 80045e6:	e000      	b.n	80045ea <TSL_tkey_SetStateCalibration+0x36>
      CalibDiv = 2;
 80045e8:	2502      	movs	r5, #2
      CalibDiv = 3;
 80045ea:	8025      	strh	r5, [r4, #0]
      break;
  }

  // If a noise filter is used, the counter must be initialized to a value
  // different from 0 in order to stabilize the filter.
  THIS_COUNTER_DEB = (TSL_tCounter_T)(delay + (TSL_tCounter_T)TSL_Params.NbCalibSamples);
 80045ec:	8889      	ldrh	r1, [r1, #4]
 80045ee:	1840      	adds	r0, r0, r1
 80045f0:	7050      	strb	r0, [r2, #1]
  THIS_REF = 0;
 80045f2:	2200      	movs	r2, #0
 80045f4:	809a      	strh	r2, [r3, #4]
}
 80045f6:	bd30      	pop	{r4, r5, pc}
      CalibDiv = 4;
 80045f8:	2504      	movs	r5, #4
 80045fa:	e7f6      	b.n	80045ea <TSL_tkey_SetStateCalibration+0x36>
 80045fc:	20000a88 	.word	0x20000a88
 8004600:	20000014 	.word	0x20000014
 8004604:	20000a62 	.word	0x20000a62

08004608 <TSL_tkey_Init>:
  THIS_DETECTIN_TH  = TSLPRM_TKEY_DETECT_IN_TH;
 8004608:	2214      	movs	r2, #20
  THIS_CALIB_TH     = TSLPRM_TKEY_CALIB_TH;
 800460a:	2107      	movs	r1, #7
  THIS_DETECTIN_TH  = TSLPRM_TKEY_DETECT_IN_TH;
 800460c:	4b08      	ldr	r3, [pc, #32]	; (8004630 <TSL_tkey_Init+0x28>)
{
 800460e:	b510      	push	{r4, lr}
  THIS_DETECTIN_TH  = TSLPRM_TKEY_DETECT_IN_TH;
 8004610:	695b      	ldr	r3, [r3, #20]
  TSL_tkey_SetStateCalibration(TSLPRM_CALIB_DELAY);
 8004612:	2000      	movs	r0, #0
  THIS_DETECTIN_TH  = TSLPRM_TKEY_DETECT_IN_TH;
 8004614:	685b      	ldr	r3, [r3, #4]
 8004616:	701a      	strb	r2, [r3, #0]
  THIS_DETECTOUT_TH = TSLPRM_TKEY_DETECT_OUT_TH;
 8004618:	3a0a      	subs	r2, #10
 800461a:	705a      	strb	r2, [r3, #1]
  THIS_COUNTER_DEB_CALIB   = TSLPRM_DEBOUNCE_CALIB;
 800461c:	70da      	strb	r2, [r3, #3]
  THIS_COUNTER_DEB_DETECT  = TSLPRM_DEBOUNCE_DETECT;
 800461e:	3a07      	subs	r2, #7
 8004620:	711a      	strb	r2, [r3, #4]
  THIS_COUNTER_DEB_RELEASE = TSLPRM_DEBOUNCE_RELEASE;
 8004622:	715a      	strb	r2, [r3, #5]
  THIS_COUNTER_DEB_ERROR   = TSLPRM_DEBOUNCE_ERROR;
 8004624:	321b      	adds	r2, #27
  THIS_CALIB_TH     = TSLPRM_TKEY_CALIB_TH;
 8004626:	7099      	strb	r1, [r3, #2]
  THIS_COUNTER_DEB_ERROR   = TSLPRM_DEBOUNCE_ERROR;
 8004628:	719a      	strb	r2, [r3, #6]
  TSL_tkey_SetStateCalibration(TSLPRM_CALIB_DELAY);
 800462a:	f7ff ffc3 	bl	80045b4 <TSL_tkey_SetStateCalibration>
}
 800462e:	bd10      	pop	{r4, pc}
 8004630:	20000a88 	.word	0x20000a88

08004634 <TSL_tkey_GetStateMask>:
    state_mask = TSL_Globals.This_TKey->p_SM[THIS_STATEID].StateMask;
  }
#endif

#if TSLPRM_TOTAL_TOUCHKEYS_B > 0
  if (TSL_Globals.This_Obj->Type == TSL_OBJ_TOUCHKEYB)
 8004634:	4b06      	ldr	r3, [pc, #24]	; (8004650 <TSL_tkey_GetStateMask+0x1c>)
  TSL_StateMask_enum_T state_mask = TSL_STATEMASK_UNKNOWN;
 8004636:	2000      	movs	r0, #0
  if (TSL_Globals.This_Obj->Type == TSL_OBJ_TOUCHKEYB)
 8004638:	68da      	ldr	r2, [r3, #12]
 800463a:	7812      	ldrb	r2, [r2, #0]
 800463c:	2a11      	cmp	r2, #17
 800463e:	d106      	bne.n	800464e <TSL_tkey_GetStateMask+0x1a>
  {
    state_mask = TSL_Params.p_TKeySM[THIS_STATEID].StateMask;
 8004640:	695b      	ldr	r3, [r3, #20]
 8004642:	4a04      	ldr	r2, [pc, #16]	; (8004654 <TSL_tkey_GetStateMask+0x20>)
 8004644:	681b      	ldr	r3, [r3, #0]
 8004646:	6892      	ldr	r2, [r2, #8]
 8004648:	781b      	ldrb	r3, [r3, #0]
 800464a:	00db      	lsls	r3, r3, #3
 800464c:	5c98      	ldrb	r0, [r3, r2]
  }
#endif

  return state_mask;
}
 800464e:	4770      	bx	lr
 8004650:	20000a88 	.word	0x20000a88
 8004654:	20000014 	.word	0x20000014

08004658 <TSL_tkey_DebReleaseDetectStateProcess>:
  * @param  None
  * @retval None
  */
void TSL_tkey_DebReleaseDetectStateProcess(void)
{
  if (THIS_ACQ_STATUS & TSL_ACQ_STATUS_ERROR_MASK) // Acquisition error (min or max)
 8004658:	4b0d      	ldr	r3, [pc, #52]	; (8004690 <TSL_tkey_DebReleaseDetectStateProcess+0x38>)
 800465a:	695b      	ldr	r3, [r3, #20]
 800465c:	6899      	ldr	r1, [r3, #8]
 800465e:	681a      	ldr	r2, [r3, #0]
 8004660:	7808      	ldrb	r0, [r1, #0]
 8004662:	0740      	lsls	r0, r0, #29
 8004664:	d502      	bpl.n	800466c <TSL_tkey_DebReleaseDetectStateProcess+0x14>
  else // Acquisition is OK or has NOISE
  {
    if TEST_DELTA(>, THIS_DETECTOUT_TH)
    {
      TEST_DELTA_NEGATIVE;
      THIS_STATEID = TSL_STATEID_DETECT;
 8004666:	230a      	movs	r3, #10
      }
#endif
      if (THIS_COUNTER_DEB > 0) {THIS_COUNTER_DEB--;}
      if (THIS_COUNTER_DEB == 0)
      {
        THIS_STATEID = TSL_STATEID_RELEASE;
 8004668:	7013      	strb	r3, [r2, #0]
      }
      // else stay in Debounce Release
    }
  }
}
 800466a:	4770      	bx	lr
    if TEST_DELTA(>, THIS_DETECTOUT_TH)
 800466c:	685b      	ldr	r3, [r3, #4]
 800466e:	2008      	movs	r0, #8
 8004670:	5e09      	ldrsh	r1, [r1, r0]
 8004672:	785b      	ldrb	r3, [r3, #1]
 8004674:	4299      	cmp	r1, r3
 8004676:	dcf6      	bgt.n	8004666 <TSL_tkey_DebReleaseDetectStateProcess+0xe>
      if (THIS_COUNTER_DEB > 0) {THIS_COUNTER_DEB--;}
 8004678:	7853      	ldrb	r3, [r2, #1]
 800467a:	2b00      	cmp	r3, #0
 800467c:	d101      	bne.n	8004682 <TSL_tkey_DebReleaseDetectStateProcess+0x2a>
        THIS_STATEID = TSL_STATEID_RELEASE;
 800467e:	2302      	movs	r3, #2
 8004680:	e7f2      	b.n	8004668 <TSL_tkey_DebReleaseDetectStateProcess+0x10>
      if (THIS_COUNTER_DEB > 0) {THIS_COUNTER_DEB--;}
 8004682:	3b01      	subs	r3, #1
 8004684:	b2db      	uxtb	r3, r3
 8004686:	7053      	strb	r3, [r2, #1]
      if (THIS_COUNTER_DEB == 0)
 8004688:	2b00      	cmp	r3, #0
 800468a:	d1ee      	bne.n	800466a <TSL_tkey_DebReleaseDetectStateProcess+0x12>
 800468c:	e7f7      	b.n	800467e <TSL_tkey_DebReleaseDetectStateProcess+0x26>
 800468e:	46c0      	nop			; (mov r8, r8)
 8004690:	20000a88 	.word	0x20000a88

08004694 <TSL_tkey_DebReleaseTouchStateProcess>:
  * @param  None
  * @retval None
  */
void TSL_tkey_DebReleaseTouchStateProcess(void)
{
  if (THIS_ACQ_STATUS & TSL_ACQ_STATUS_ERROR_MASK) // Acquisition error (min or max)
 8004694:	4b0d      	ldr	r3, [pc, #52]	; (80046cc <TSL_tkey_DebReleaseTouchStateProcess+0x38>)
 8004696:	695b      	ldr	r3, [r3, #20]
 8004698:	6899      	ldr	r1, [r3, #8]
 800469a:	681a      	ldr	r2, [r3, #0]
 800469c:	7808      	ldrb	r0, [r1, #0]
 800469e:	0740      	lsls	r0, r0, #29
 80046a0:	d502      	bpl.n	80046a8 <TSL_tkey_DebReleaseTouchStateProcess+0x14>
  else // Acquisition is OK or has NOISE
  {
    if TEST_DELTA(>, THIS_DETECTOUT_TH)
    {
      TEST_DELTA_NEGATIVE;
      THIS_STATEID = TSL_STATEID_TOUCH;
 80046a2:	230c      	movs	r3, #12
      }
#endif
      if (THIS_COUNTER_DEB > 0) {THIS_COUNTER_DEB--;}
      if (THIS_COUNTER_DEB == 0)
      {
        THIS_STATEID = TSL_STATEID_RELEASE;
 80046a4:	7013      	strb	r3, [r2, #0]
      }
      // else stay in Debounce Release
    }
  }
}
 80046a6:	4770      	bx	lr
    if TEST_DELTA(>, THIS_DETECTOUT_TH)
 80046a8:	685b      	ldr	r3, [r3, #4]
 80046aa:	2008      	movs	r0, #8
 80046ac:	5e09      	ldrsh	r1, [r1, r0]
 80046ae:	785b      	ldrb	r3, [r3, #1]
 80046b0:	4299      	cmp	r1, r3
 80046b2:	dcf6      	bgt.n	80046a2 <TSL_tkey_DebReleaseTouchStateProcess+0xe>
      if (THIS_COUNTER_DEB > 0) {THIS_COUNTER_DEB--;}
 80046b4:	7853      	ldrb	r3, [r2, #1]
 80046b6:	2b00      	cmp	r3, #0
 80046b8:	d101      	bne.n	80046be <TSL_tkey_DebReleaseTouchStateProcess+0x2a>
        THIS_STATEID = TSL_STATEID_RELEASE;
 80046ba:	2302      	movs	r3, #2
 80046bc:	e7f2      	b.n	80046a4 <TSL_tkey_DebReleaseTouchStateProcess+0x10>
      if (THIS_COUNTER_DEB > 0) {THIS_COUNTER_DEB--;}
 80046be:	3b01      	subs	r3, #1
 80046c0:	b2db      	uxtb	r3, r3
 80046c2:	7053      	strb	r3, [r2, #1]
      if (THIS_COUNTER_DEB == 0)
 80046c4:	2b00      	cmp	r3, #0
 80046c6:	d1ee      	bne.n	80046a6 <TSL_tkey_DebReleaseTouchStateProcess+0x12>
 80046c8:	e7f7      	b.n	80046ba <TSL_tkey_DebReleaseTouchStateProcess+0x26>
 80046ca:	46c0      	nop			; (mov r8, r8)
 80046cc:	20000a88 	.word	0x20000a88

080046d0 <TSL_tkey_ReleaseStateProcess>:
  * @param  None
  * @retval None
  */
void TSL_tkey_ReleaseStateProcess(void)
{
  if (THIS_ACQ_STATUS & TSL_ACQ_STATUS_ERROR_MASK) // Acquisition error (min or max)
 80046d0:	4b16      	ldr	r3, [pc, #88]	; (800472c <TSL_tkey_ReleaseStateProcess+0x5c>)
{
 80046d2:	b510      	push	{r4, lr}
  if (THIS_ACQ_STATUS & TSL_ACQ_STATUS_ERROR_MASK) // Acquisition error (min or max)
 80046d4:	695a      	ldr	r2, [r3, #20]
 80046d6:	6891      	ldr	r1, [r2, #8]
 80046d8:	6853      	ldr	r3, [r2, #4]
 80046da:	7808      	ldrb	r0, [r1, #0]
 80046dc:	0740      	lsls	r0, r0, #29
 80046de:	d509      	bpl.n	80046f4 <TSL_tkey_ReleaseStateProcess+0x24>
  {
    THIS_COUNTER_DEB = THIS_COUNTER_DEB_ERROR;
 80046e0:	6812      	ldr	r2, [r2, #0]
 80046e2:	799b      	ldrb	r3, [r3, #6]
 80046e4:	7053      	strb	r3, [r2, #1]
    if (THIS_COUNTER_DEB == 0)
 80046e6:	2b00      	cmp	r3, #0
 80046e8:	d102      	bne.n	80046f0 <TSL_tkey_ReleaseStateProcess+0x20>
    {
      THIS_STATEID = TSL_STATEID_ERROR;
 80046ea:	330d      	adds	r3, #13
      {
        TSL_tkey_SetStateCalibration(0);
      }
      else
      {
        THIS_STATEID = TSL_STATEID_DEB_CALIB;
 80046ec:	7013      	strb	r3, [r2, #0]
 80046ee:	e01b      	b.n	8004728 <TSL_tkey_ReleaseStateProcess+0x58>
      THIS_STATEID = TSL_STATEID_DEB_ERROR_RELEASE;
 80046f0:	230f      	movs	r3, #15
 80046f2:	e7fb      	b.n	80046ec <TSL_tkey_ReleaseStateProcess+0x1c>
    if TEST_DELTA(>=, THIS_DETECTIN_TH)
 80046f4:	2008      	movs	r0, #8
 80046f6:	5e08      	ldrsh	r0, [r1, r0]
 80046f8:	7819      	ldrb	r1, [r3, #0]
 80046fa:	4288      	cmp	r0, r1
 80046fc:	db08      	blt.n	8004710 <TSL_tkey_ReleaseStateProcess+0x40>
      THIS_COUNTER_DEB = THIS_COUNTER_DEB_DETECT;
 80046fe:	6812      	ldr	r2, [r2, #0]
 8004700:	791b      	ldrb	r3, [r3, #4]
 8004702:	7053      	strb	r3, [r2, #1]
      if (THIS_COUNTER_DEB == 0)
 8004704:	2b00      	cmp	r3, #0
 8004706:	d101      	bne.n	800470c <TSL_tkey_ReleaseStateProcess+0x3c>
        THIS_STATEID = TSL_STATEID_DETECT;
 8004708:	330a      	adds	r3, #10
 800470a:	e7ef      	b.n	80046ec <TSL_tkey_ReleaseStateProcess+0x1c>
        THIS_STATEID = TSL_STATEID_DEB_DETECT;
 800470c:	230b      	movs	r3, #11
 800470e:	e7ed      	b.n	80046ec <TSL_tkey_ReleaseStateProcess+0x1c>
    if TEST_DELTA_N(<=, THIS_CALIB_TH)
 8004710:	7899      	ldrb	r1, [r3, #2]
 8004712:	4249      	negs	r1, r1
 8004714:	4288      	cmp	r0, r1
 8004716:	dc07      	bgt.n	8004728 <TSL_tkey_ReleaseStateProcess+0x58>
      THIS_COUNTER_DEB = THIS_COUNTER_DEB_CALIB;
 8004718:	78d8      	ldrb	r0, [r3, #3]
 800471a:	6812      	ldr	r2, [r2, #0]
        THIS_STATEID = TSL_STATEID_DEB_CALIB;
 800471c:	2301      	movs	r3, #1
      THIS_COUNTER_DEB = THIS_COUNTER_DEB_CALIB;
 800471e:	7050      	strb	r0, [r2, #1]
      if (THIS_COUNTER_DEB == 0)
 8004720:	2800      	cmp	r0, #0
 8004722:	d1e3      	bne.n	80046ec <TSL_tkey_ReleaseStateProcess+0x1c>
        TSL_tkey_SetStateCalibration(0);
 8004724:	f7ff ff46 	bl	80045b4 <TSL_tkey_SetStateCalibration>
      }
    }
  }
}
 8004728:	bd10      	pop	{r4, pc}
 800472a:	46c0      	nop			; (mov r8, r8)
 800472c:	20000a88 	.word	0x20000a88

08004730 <TSL_tkey_DebCalibrationStateProcess>:
  * @param  None
  * @retval None
  */
void TSL_tkey_DebCalibrationStateProcess(void)
{
  if (THIS_ACQ_STATUS & TSL_ACQ_STATUS_ERROR_MASK) // Acquisition error (min or max)
 8004730:	4b0f      	ldr	r3, [pc, #60]	; (8004770 <TSL_tkey_DebCalibrationStateProcess+0x40>)
{
 8004732:	b510      	push	{r4, lr}
  if (THIS_ACQ_STATUS & TSL_ACQ_STATUS_ERROR_MASK) // Acquisition error (min or max)
 8004734:	695b      	ldr	r3, [r3, #20]
 8004736:	2102      	movs	r1, #2
 8004738:	6898      	ldr	r0, [r3, #8]
 800473a:	681a      	ldr	r2, [r3, #0]
 800473c:	7804      	ldrb	r4, [r0, #0]
 800473e:	0764      	lsls	r4, r4, #29
 8004740:	d501      	bpl.n	8004746 <TSL_tkey_DebCalibrationStateProcess+0x16>
      }
      // else stay in Debounce Calibration
    }
    else // Go back to previous state
    {
      THIS_STATEID = TSL_STATEID_RELEASE;
 8004742:	7011      	strb	r1, [r2, #0]
    }
  }
}
 8004744:	e00c      	b.n	8004760 <TSL_tkey_DebCalibrationStateProcess+0x30>
    if TEST_DELTA_N(<=, THIS_CALIB_TH)
 8004746:	685b      	ldr	r3, [r3, #4]
 8004748:	2408      	movs	r4, #8
 800474a:	5f00      	ldrsh	r0, [r0, r4]
 800474c:	789b      	ldrb	r3, [r3, #2]
 800474e:	425b      	negs	r3, r3
 8004750:	4298      	cmp	r0, r3
 8004752:	dcf6      	bgt.n	8004742 <TSL_tkey_DebCalibrationStateProcess+0x12>
      if (THIS_COUNTER_DEB > 0) {THIS_COUNTER_DEB--;}
 8004754:	7853      	ldrb	r3, [r2, #1]
 8004756:	2b00      	cmp	r3, #0
 8004758:	d103      	bne.n	8004762 <TSL_tkey_DebCalibrationStateProcess+0x32>
        TSL_tkey_SetStateCalibration(0);
 800475a:	2000      	movs	r0, #0
 800475c:	f7ff ff2a 	bl	80045b4 <TSL_tkey_SetStateCalibration>
}
 8004760:	bd10      	pop	{r4, pc}
      if (THIS_COUNTER_DEB > 0) {THIS_COUNTER_DEB--;}
 8004762:	3b01      	subs	r3, #1
 8004764:	b2db      	uxtb	r3, r3
 8004766:	7053      	strb	r3, [r2, #1]
      if (THIS_COUNTER_DEB == 0)
 8004768:	2b00      	cmp	r3, #0
 800476a:	d1f9      	bne.n	8004760 <TSL_tkey_DebCalibrationStateProcess+0x30>
 800476c:	e7f5      	b.n	800475a <TSL_tkey_DebCalibrationStateProcess+0x2a>
 800476e:	46c0      	nop			; (mov r8, r8)
 8004770:	20000a88 	.word	0x20000a88

08004774 <TSL_tkey_CalibrationStateProcess>:
  * @brief  Calibration state processing
  * @param  None
  * @retval None
  */
void TSL_tkey_CalibrationStateProcess(void)
{
 8004774:	b570      	push	{r4, r5, r6, lr}
    THIS_COUNTER_DEB--;
    return; // Skip the sample
  }
#endif

  if (THIS_ACQ_STATUS & TSL_ACQ_STATUS_ERROR_MASK) // Acquisition error (min or max)
 8004776:	4c22      	ldr	r4, [pc, #136]	; (8004800 <TSL_tkey_CalibrationStateProcess+0x8c>)
 8004778:	2602      	movs	r6, #2
 800477a:	6965      	ldr	r5, [r4, #20]
 800477c:	68a8      	ldr	r0, [r5, #8]
 800477e:	682a      	ldr	r2, [r5, #0]
 8004780:	7803      	ldrb	r3, [r0, #0]
 8004782:	085b      	lsrs	r3, r3, #1
 8004784:	0019      	movs	r1, r3
 8004786:	4031      	ands	r1, r6
 8004788:	4233      	tst	r3, r6
 800478a:	d009      	beq.n	80047a0 <TSL_tkey_CalibrationStateProcess+0x2c>
  {
    THIS_COUNTER_DEB = THIS_COUNTER_DEB_ERROR;
 800478c:	686b      	ldr	r3, [r5, #4]
 800478e:	799b      	ldrb	r3, [r3, #6]
 8004790:	7053      	strb	r3, [r2, #1]
    if (THIS_COUNTER_DEB == 0)
 8004792:	2b00      	cmp	r3, #0
 8004794:	d101      	bne.n	800479a <TSL_tkey_CalibrationStateProcess+0x26>

      // Check reference overflow
      if (THIS_REF < new_meas)
      {
        THIS_REF = 0; // Suppress the bad reference
        THIS_STATEID = TSL_STATEID_ERROR;
 8004796:	230d      	movs	r3, #13
 8004798:	e000      	b.n	800479c <TSL_tkey_CalibrationStateProcess+0x28>
      THIS_STATEID = TSL_STATEID_DEB_ERROR_CALIB;
 800479a:	230e      	movs	r3, #14
    {
      // Divide temporary Reference by the number of samples
      THIS_REF >>= CalibDiv;
      THIS_REFREST = 0;
      THIS_DELTA = 0;
      THIS_STATEID = TSL_STATEID_RELEASE;
 800479c:	7013      	strb	r3, [r2, #0]
 800479e:	e01e      	b.n	80047de <TSL_tkey_CalibrationStateProcess+0x6a>
    if (THIS_COUNTER_DEB == (TSL_tCounter_T)TSL_Params.NbCalibSamples)
 80047a0:	4b18      	ldr	r3, [pc, #96]	; (8004804 <TSL_tkey_CalibrationStateProcess+0x90>)
 80047a2:	7856      	ldrb	r6, [r2, #1]
 80047a4:	791b      	ldrb	r3, [r3, #4]
    new_meas = THIS_MEAS;
 80047a6:	8945      	ldrh	r5, [r0, #10]
    if (THIS_COUNTER_DEB == (TSL_tCounter_T)TSL_Params.NbCalibSamples)
 80047a8:	429e      	cmp	r6, r3
 80047aa:	d119      	bne.n	80047e0 <TSL_tkey_CalibrationStateProcess+0x6c>
      if (TSL_acq_TestFirstReferenceIsValid(THIS_CHANNEL_DATA, new_meas))
 80047ac:	0029      	movs	r1, r5
 80047ae:	f7ff fd25 	bl	80041fc <TSL_acq_TestFirstReferenceIsValid>
        THIS_REF = new_meas;
 80047b2:	6963      	ldr	r3, [r4, #20]
 80047b4:	689b      	ldr	r3, [r3, #8]
      if (TSL_acq_TestFirstReferenceIsValid(THIS_CHANNEL_DATA, new_meas))
 80047b6:	2800      	cmp	r0, #0
 80047b8:	d010      	beq.n	80047dc <TSL_tkey_CalibrationStateProcess+0x68>
        THIS_REF = new_meas;
 80047ba:	809d      	strh	r5, [r3, #4]
    if (THIS_COUNTER_DEB > 0) {THIS_COUNTER_DEB--;}
 80047bc:	6961      	ldr	r1, [r4, #20]
 80047be:	680a      	ldr	r2, [r1, #0]
 80047c0:	7853      	ldrb	r3, [r2, #1]
 80047c2:	2b00      	cmp	r3, #0
 80047c4:	d115      	bne.n	80047f2 <TSL_tkey_CalibrationStateProcess+0x7e>
      THIS_REF >>= CalibDiv;
 80047c6:	688b      	ldr	r3, [r1, #8]
 80047c8:	480f      	ldr	r0, [pc, #60]	; (8004808 <TSL_tkey_CalibrationStateProcess+0x94>)
 80047ca:	8899      	ldrh	r1, [r3, #4]
 80047cc:	8800      	ldrh	r0, [r0, #0]
 80047ce:	4101      	asrs	r1, r0
 80047d0:	8099      	strh	r1, [r3, #4]
      THIS_REFREST = 0;
 80047d2:	2100      	movs	r1, #0
 80047d4:	7199      	strb	r1, [r3, #6]
      THIS_DELTA = 0;
 80047d6:	8119      	strh	r1, [r3, #8]
      THIS_STATEID = TSL_STATEID_RELEASE;
 80047d8:	2302      	movs	r3, #2
 80047da:	e7df      	b.n	800479c <TSL_tkey_CalibrationStateProcess+0x28>
        THIS_REF = 0;
 80047dc:	8098      	strh	r0, [r3, #4]
    }
  }
}
 80047de:	bd70      	pop	{r4, r5, r6, pc}
      THIS_REF += new_meas;
 80047e0:	8883      	ldrh	r3, [r0, #4]
 80047e2:	18eb      	adds	r3, r5, r3
 80047e4:	b29b      	uxth	r3, r3
      if (THIS_REF < new_meas)
 80047e6:	42ab      	cmp	r3, r5
 80047e8:	d201      	bcs.n	80047ee <TSL_tkey_CalibrationStateProcess+0x7a>
        THIS_REF = 0; // Suppress the bad reference
 80047ea:	8081      	strh	r1, [r0, #4]
 80047ec:	e7d3      	b.n	8004796 <TSL_tkey_CalibrationStateProcess+0x22>
      THIS_REF += new_meas;
 80047ee:	8083      	strh	r3, [r0, #4]
 80047f0:	e7e4      	b.n	80047bc <TSL_tkey_CalibrationStateProcess+0x48>
    if (THIS_COUNTER_DEB > 0) {THIS_COUNTER_DEB--;}
 80047f2:	3b01      	subs	r3, #1
 80047f4:	b2db      	uxtb	r3, r3
 80047f6:	7053      	strb	r3, [r2, #1]
    if (THIS_COUNTER_DEB == 0)
 80047f8:	2b00      	cmp	r3, #0
 80047fa:	d1f0      	bne.n	80047de <TSL_tkey_CalibrationStateProcess+0x6a>
 80047fc:	e7e3      	b.n	80047c6 <TSL_tkey_CalibrationStateProcess+0x52>
 80047fe:	46c0      	nop			; (mov r8, r8)
 8004800:	20000a88 	.word	0x20000a88
 8004804:	20000014 	.word	0x20000014
 8004808:	20000a62 	.word	0x20000a62

0800480c <TSL_tkey_DebDetectStateProcess>:
  * @param  None
  * @retval None
  */
void TSL_tkey_DebDetectStateProcess(void)
{
  if (THIS_ACQ_STATUS & TSL_ACQ_STATUS_ERROR_MASK) // Acquisition error (min or max)
 800480c:	4b0e      	ldr	r3, [pc, #56]	; (8004848 <TSL_tkey_DebDetectStateProcess+0x3c>)
{
 800480e:	b510      	push	{r4, lr}
  if (THIS_ACQ_STATUS & TSL_ACQ_STATUS_ERROR_MASK) // Acquisition error (min or max)
 8004810:	695b      	ldr	r3, [r3, #20]
 8004812:	2102      	movs	r1, #2
 8004814:	6898      	ldr	r0, [r3, #8]
 8004816:	681a      	ldr	r2, [r3, #0]
 8004818:	7804      	ldrb	r4, [r0, #0]
 800481a:	0764      	lsls	r4, r4, #29
 800481c:	d501      	bpl.n	8004822 <TSL_tkey_DebDetectStateProcess+0x16>
      else
      {
        THIS_STATEID = TSL_STATEID_RELEASE;
      }
#else
      THIS_STATEID = TSL_STATEID_RELEASE;
 800481e:	7011      	strb	r1, [r2, #0]
#endif
    }
  }
}
 8004820:	e00a      	b.n	8004838 <TSL_tkey_DebDetectStateProcess+0x2c>
    if TEST_DELTA(>=, THIS_DETECTIN_TH)
 8004822:	685b      	ldr	r3, [r3, #4]
 8004824:	2408      	movs	r4, #8
 8004826:	5f00      	ldrsh	r0, [r0, r4]
 8004828:	781b      	ldrb	r3, [r3, #0]
 800482a:	4298      	cmp	r0, r3
 800482c:	dbf7      	blt.n	800481e <TSL_tkey_DebDetectStateProcess+0x12>
      if (THIS_COUNTER_DEB > 0) {THIS_COUNTER_DEB--;}
 800482e:	7853      	ldrb	r3, [r2, #1]
 8004830:	2b00      	cmp	r3, #0
 8004832:	d102      	bne.n	800483a <TSL_tkey_DebDetectStateProcess+0x2e>
        THIS_STATEID = TSL_STATEID_DETECT;
 8004834:	230a      	movs	r3, #10
 8004836:	7013      	strb	r3, [r2, #0]
}
 8004838:	bd10      	pop	{r4, pc}
      if (THIS_COUNTER_DEB > 0) {THIS_COUNTER_DEB--;}
 800483a:	3b01      	subs	r3, #1
 800483c:	b2db      	uxtb	r3, r3
 800483e:	7053      	strb	r3, [r2, #1]
      if (THIS_COUNTER_DEB == 0)
 8004840:	2b00      	cmp	r3, #0
 8004842:	d1f9      	bne.n	8004838 <TSL_tkey_DebDetectStateProcess+0x2c>
 8004844:	e7f6      	b.n	8004834 <TSL_tkey_DebDetectStateProcess+0x28>
 8004846:	46c0      	nop			; (mov r8, r8)
 8004848:	20000a88 	.word	0x20000a88

0800484c <TSL_tkey_DetectStateProcess>:
{
#if TSLPRM_DTO > 0
  TSL_tTick_sec_T tick_detected;
#endif

  if (THIS_ACQ_STATUS & TSL_ACQ_STATUS_ERROR_MASK) // Acquisition error (min or max)
 800484c:	4b0f      	ldr	r3, [pc, #60]	; (800488c <TSL_tkey_DetectStateProcess+0x40>)
 800484e:	695b      	ldr	r3, [r3, #20]
 8004850:	6899      	ldr	r1, [r3, #8]
 8004852:	685a      	ldr	r2, [r3, #4]
 8004854:	7808      	ldrb	r0, [r1, #0]
 8004856:	0740      	lsls	r0, r0, #29
 8004858:	d509      	bpl.n	800486e <TSL_tkey_DetectStateProcess+0x22>
  {
    THIS_COUNTER_DEB = THIS_COUNTER_DEB_ERROR;
 800485a:	681b      	ldr	r3, [r3, #0]
 800485c:	7992      	ldrb	r2, [r2, #6]
 800485e:	705a      	strb	r2, [r3, #1]
    if (THIS_COUNTER_DEB == 0)
 8004860:	2a00      	cmp	r2, #0
 8004862:	d102      	bne.n	800486a <TSL_tkey_DetectStateProcess+0x1e>
    {
      THIS_STATEID = TSL_STATEID_ERROR;
 8004864:	320d      	adds	r2, #13
    {
      THIS_STATEID = TSL_STATEID_RELEASE;
    }
    else
    {
      THIS_STATEID = TSL_STATEID_DEB_RELEASE_DETECT;
 8004866:	701a      	strb	r2, [r3, #0]
    }

  }
}
 8004868:	4770      	bx	lr
      THIS_STATEID = TSL_STATEID_DEB_ERROR_DETECT;
 800486a:	2211      	movs	r2, #17
 800486c:	e7fb      	b.n	8004866 <TSL_tkey_DetectStateProcess+0x1a>
    if TEST_DELTA(>, THIS_DETECTOUT_TH)
 800486e:	2008      	movs	r0, #8
 8004870:	5e08      	ldrsh	r0, [r1, r0]
 8004872:	7851      	ldrb	r1, [r2, #1]
 8004874:	4288      	cmp	r0, r1
 8004876:	dcf7      	bgt.n	8004868 <TSL_tkey_DetectStateProcess+0x1c>
    THIS_COUNTER_DEB = THIS_COUNTER_DEB_RELEASE;
 8004878:	681b      	ldr	r3, [r3, #0]
 800487a:	7952      	ldrb	r2, [r2, #5]
 800487c:	705a      	strb	r2, [r3, #1]
    if (THIS_COUNTER_DEB == 0)
 800487e:	2a00      	cmp	r2, #0
 8004880:	d101      	bne.n	8004886 <TSL_tkey_DetectStateProcess+0x3a>
      THIS_STATEID = TSL_STATEID_RELEASE;
 8004882:	3202      	adds	r2, #2
 8004884:	e7ef      	b.n	8004866 <TSL_tkey_DetectStateProcess+0x1a>
      THIS_STATEID = TSL_STATEID_DEB_RELEASE_DETECT;
 8004886:	2204      	movs	r2, #4
 8004888:	e7ed      	b.n	8004866 <TSL_tkey_DetectStateProcess+0x1a>
 800488a:	46c0      	nop			; (mov r8, r8)
 800488c:	20000a88 	.word	0x20000a88

08004890 <TSL_tkey_TouchStateProcess>:
{
#if TSLPRM_DTO > 0
  TSL_tTick_sec_T tick_detected;
#endif

  if (THIS_ACQ_STATUS & TSL_ACQ_STATUS_ERROR_MASK) // Acquisition error (min or max)
 8004890:	4b0f      	ldr	r3, [pc, #60]	; (80048d0 <TSL_tkey_TouchStateProcess+0x40>)
 8004892:	695b      	ldr	r3, [r3, #20]
 8004894:	6899      	ldr	r1, [r3, #8]
 8004896:	685a      	ldr	r2, [r3, #4]
 8004898:	7808      	ldrb	r0, [r1, #0]
 800489a:	0740      	lsls	r0, r0, #29
 800489c:	d509      	bpl.n	80048b2 <TSL_tkey_TouchStateProcess+0x22>
  {
    THIS_COUNTER_DEB = THIS_COUNTER_DEB_ERROR;
 800489e:	681b      	ldr	r3, [r3, #0]
 80048a0:	7992      	ldrb	r2, [r2, #6]
 80048a2:	705a      	strb	r2, [r3, #1]
    if (THIS_COUNTER_DEB == 0)
 80048a4:	2a00      	cmp	r2, #0
 80048a6:	d102      	bne.n	80048ae <TSL_tkey_TouchStateProcess+0x1e>
    {
      THIS_STATEID = TSL_STATEID_ERROR;
 80048a8:	320d      	adds	r2, #13
    {
      THIS_STATEID = TSL_STATEID_RELEASE;
    }
    else
    {
      THIS_STATEID = TSL_STATEID_DEB_RELEASE_TOUCH;
 80048aa:	701a      	strb	r2, [r3, #0]
    }

  }
}
 80048ac:	4770      	bx	lr
      THIS_STATEID = TSL_STATEID_DEB_ERROR_TOUCH;
 80048ae:	2212      	movs	r2, #18
 80048b0:	e7fb      	b.n	80048aa <TSL_tkey_TouchStateProcess+0x1a>
    if TEST_DELTA(>, THIS_DETECTOUT_TH)
 80048b2:	2008      	movs	r0, #8
 80048b4:	5e08      	ldrsh	r0, [r1, r0]
 80048b6:	7851      	ldrb	r1, [r2, #1]
 80048b8:	4288      	cmp	r0, r1
 80048ba:	dcf7      	bgt.n	80048ac <TSL_tkey_TouchStateProcess+0x1c>
    THIS_COUNTER_DEB = THIS_COUNTER_DEB_RELEASE;
 80048bc:	681b      	ldr	r3, [r3, #0]
 80048be:	7952      	ldrb	r2, [r2, #5]
 80048c0:	705a      	strb	r2, [r3, #1]
    if (THIS_COUNTER_DEB == 0)
 80048c2:	2a00      	cmp	r2, #0
 80048c4:	d101      	bne.n	80048ca <TSL_tkey_TouchStateProcess+0x3a>
      THIS_STATEID = TSL_STATEID_RELEASE;
 80048c6:	3202      	adds	r2, #2
 80048c8:	e7ef      	b.n	80048aa <TSL_tkey_TouchStateProcess+0x1a>
      THIS_STATEID = TSL_STATEID_DEB_RELEASE_TOUCH;
 80048ca:	2205      	movs	r2, #5
 80048cc:	e7ed      	b.n	80048aa <TSL_tkey_TouchStateProcess+0x1a>
 80048ce:	46c0      	nop			; (mov r8, r8)
 80048d0:	20000a88 	.word	0x20000a88

080048d4 <TSL_tkey_DebErrorStateProcess>:
  */
void TSL_tkey_DebErrorStateProcess(void)
{
  volatile TSL_StateMask_enum_T mask;

  if (THIS_ACQ_STATUS & TSL_ACQ_STATUS_ERROR_MASK) // Acquisition error (min or max)
 80048d4:	4b1b      	ldr	r3, [pc, #108]	; (8004944 <TSL_tkey_DebErrorStateProcess+0x70>)
{
 80048d6:	b513      	push	{r0, r1, r4, lr}
  if (THIS_ACQ_STATUS & TSL_ACQ_STATUS_ERROR_MASK) // Acquisition error (min or max)
 80048d8:	695c      	ldr	r4, [r3, #20]
 80048da:	68a3      	ldr	r3, [r4, #8]
 80048dc:	781b      	ldrb	r3, [r3, #0]
 80048de:	075b      	lsls	r3, r3, #29
 80048e0:	d50c      	bpl.n	80048fc <TSL_tkey_DebErrorStateProcess+0x28>
  {
    if (THIS_COUNTER_DEB > 0) {THIS_COUNTER_DEB--;}
 80048e2:	6822      	ldr	r2, [r4, #0]
 80048e4:	7853      	ldrb	r3, [r2, #1]
 80048e6:	2b00      	cmp	r3, #0
 80048e8:	d102      	bne.n	80048f0 <TSL_tkey_DebErrorStateProcess+0x1c>
    if (THIS_COUNTER_DEB == 0)
    {
      THIS_STATEID = TSL_STATEID_ERROR;
 80048ea:	230d      	movs	r3, #13
 80048ec:	7013      	strb	r3, [r2, #0]
      default:
        TSL_tkey_SetStateCalibration(0);
        break;
    }
  }
}
 80048ee:	bd13      	pop	{r0, r1, r4, pc}
    if (THIS_COUNTER_DEB > 0) {THIS_COUNTER_DEB--;}
 80048f0:	3b01      	subs	r3, #1
 80048f2:	b2db      	uxtb	r3, r3
 80048f4:	7053      	strb	r3, [r2, #1]
    if (THIS_COUNTER_DEB == 0)
 80048f6:	2b00      	cmp	r3, #0
 80048f8:	d1f9      	bne.n	80048ee <TSL_tkey_DebErrorStateProcess+0x1a>
 80048fa:	e7f6      	b.n	80048ea <TSL_tkey_DebErrorStateProcess+0x16>
    mask = TSL_tkey_GetStateMask();
 80048fc:	f7ff fe9a 	bl	8004634 <TSL_tkey_GetStateMask>
 8004900:	466b      	mov	r3, sp
    mask &= (TSL_StateMask_enum_T)(~(TSL_STATE_DEBOUNCE_BIT_MASK | TSL_STATE_ERROR_BIT_MASK));
 8004902:	215f      	movs	r1, #95	; 0x5f
    mask = TSL_tkey_GetStateMask();
 8004904:	71d8      	strb	r0, [r3, #7]
    mask &= (TSL_StateMask_enum_T)(~(TSL_STATE_DEBOUNCE_BIT_MASK | TSL_STATE_ERROR_BIT_MASK));
 8004906:	79da      	ldrb	r2, [r3, #7]
    mask = TSL_tkey_GetStateMask();
 8004908:	3307      	adds	r3, #7
    mask &= (TSL_StateMask_enum_T)(~(TSL_STATE_DEBOUNCE_BIT_MASK | TSL_STATE_ERROR_BIT_MASK));
 800490a:	400a      	ands	r2, r1
 800490c:	701a      	strb	r2, [r3, #0]
    switch (mask)
 800490e:	7818      	ldrb	r0, [r3, #0]
 8004910:	3801      	subs	r0, #1
 8004912:	2807      	cmp	r0, #7
 8004914:	d812      	bhi.n	800493c <TSL_tkey_DebErrorStateProcess+0x68>
 8004916:	f7fb fbf7 	bl	8000108 <__gnu_thumb1_case_uqi>
 800491a:	0804      	.short	0x0804
 800491c:	11110b11 	.word	0x11110b11
 8004920:	0e11      	.short	0x0e11
        THIS_STATEID = TSL_STATEID_RELEASE;
 8004922:	2202      	movs	r2, #2
 8004924:	6823      	ldr	r3, [r4, #0]
        THIS_STATEID = TSL_STATEID_TOUCH;
 8004926:	701a      	strb	r2, [r3, #0]
        break;
 8004928:	e7e1      	b.n	80048ee <TSL_tkey_DebErrorStateProcess+0x1a>
        THIS_STATEID = TSL_STATEID_PROX;
 800492a:	2206      	movs	r2, #6
 800492c:	6823      	ldr	r3, [r4, #0]
 800492e:	e7fa      	b.n	8004926 <TSL_tkey_DebErrorStateProcess+0x52>
        THIS_STATEID = TSL_STATEID_DETECT;
 8004930:	220a      	movs	r2, #10
 8004932:	6823      	ldr	r3, [r4, #0]
 8004934:	e7f7      	b.n	8004926 <TSL_tkey_DebErrorStateProcess+0x52>
        THIS_STATEID = TSL_STATEID_TOUCH;
 8004936:	220c      	movs	r2, #12
 8004938:	6823      	ldr	r3, [r4, #0]
 800493a:	e7f4      	b.n	8004926 <TSL_tkey_DebErrorStateProcess+0x52>
        TSL_tkey_SetStateCalibration(0);
 800493c:	2000      	movs	r0, #0
 800493e:	f7ff fe39 	bl	80045b4 <TSL_tkey_SetStateCalibration>
}
 8004942:	e7d4      	b.n	80048ee <TSL_tkey_DebErrorStateProcess+0x1a>
 8004944:	20000a88 	.word	0x20000a88

08004948 <disk_status>:

DSTATUS disk_status (
	BYTE pdrv		/* Physical drive nmuber to identify the drive */
)
{
	if (SD_ff_hw.initialized)
 8004948:	4b02      	ldr	r3, [pc, #8]	; (8004954 <disk_status+0xc>)
 800494a:	6818      	ldr	r0, [r3, #0]
 800494c:	4243      	negs	r3, r0
 800494e:	4158      	adcs	r0, r3
 8004950:	b2c0      	uxtb	r0, r0
		return 0;

	return STA_NOINIT;
}
 8004952:	4770      	bx	lr
 8004954:	20000aa0 	.word	0x20000aa0

08004958 <disk_initialize>:
/*-----------------------------------------------------------------------*/

DSTATUS disk_initialize (
	BYTE pdrv				/* Physical drive nmuber to identify the drive */
)
{
 8004958:	b510      	push	{r4, lr}
	if (hwif_init(&SD_ff_hw) == 0)
 800495a:	4803      	ldr	r0, [pc, #12]	; (8004968 <disk_initialize+0x10>)
 800495c:	f000 fa7e 	bl	8004e5c <hwif_init>
 8004960:	1e43      	subs	r3, r0, #1
 8004962:	4198      	sbcs	r0, r3
		return 0;

	return STA_NOINIT;
}
 8004964:	b2c0      	uxtb	r0, r0
 8004966:	bd10      	pop	{r4, pc}
 8004968:	20000aa0 	.word	0x20000aa0

0800496c <disk_read>:
	BYTE pdrv,		/* Physical drive nmuber to identify the drive */
	BYTE *buff,		/* Data buffer to store read data */
	DWORD sector,	/* Sector address in LBA */
	UINT count		/* Number of sectors to read */
)
{
 800496c:	b570      	push	{r4, r5, r6, lr}
 800496e:	0014      	movs	r4, r2
 8004970:	000d      	movs	r5, r1
 8004972:	189e      	adds	r6, r3, r2
	int i;

	for (i=0; i<count; i++)
 8004974:	42b4      	cmp	r4, r6
 8004976:	d101      	bne.n	800497c <disk_read+0x10>
		if (sd_read(&SD_ff_hw, sector+i, buff+512*i) != 0)
			return RES_ERROR;

	return RES_OK;
 8004978:	2000      	movs	r0, #0
}
 800497a:	bd70      	pop	{r4, r5, r6, pc}
		if (sd_read(&SD_ff_hw, sector+i, buff+512*i) != 0)
 800497c:	002a      	movs	r2, r5
 800497e:	0021      	movs	r1, r4
 8004980:	4805      	ldr	r0, [pc, #20]	; (8004998 <disk_read+0x2c>)
 8004982:	f000 fb15 	bl	8004fb0 <sd_read>
 8004986:	2380      	movs	r3, #128	; 0x80
 8004988:	009b      	lsls	r3, r3, #2
 800498a:	3401      	adds	r4, #1
 800498c:	18ed      	adds	r5, r5, r3
 800498e:	2800      	cmp	r0, #0
 8004990:	d0f0      	beq.n	8004974 <disk_read+0x8>
			return RES_ERROR;
 8004992:	2001      	movs	r0, #1
 8004994:	e7f1      	b.n	800497a <disk_read+0xe>
 8004996:	46c0      	nop			; (mov r8, r8)
 8004998:	20000aa0 	.word	0x20000aa0

0800499c <crc7_one>:
	int i;
	const uint8_t g = 0x89;
	t ^= data;
	for (i=0; i<8; i++) {
		if (t & 0x80)
			t ^= g;
 800499c:	2277      	movs	r2, #119	; 0x77
	t ^= data;
 800499e:	2308      	movs	r3, #8
 80049a0:	4048      	eors	r0, r1
			t ^= g;
 80049a2:	4252      	negs	r2, r2
		if (t & 0x80)
 80049a4:	b241      	sxtb	r1, r0
 80049a6:	2900      	cmp	r1, #0
 80049a8:	da01      	bge.n	80049ae <crc7_one+0x12>
			t ^= g;
 80049aa:	4050      	eors	r0, r2
 80049ac:	b2c0      	uxtb	r0, r0
		t <<= 1;
 80049ae:	0040      	lsls	r0, r0, #1
 80049b0:	3b01      	subs	r3, #1
 80049b2:	b2c0      	uxtb	r0, r0
	for (i=0; i<8; i++) {
 80049b4:	2b00      	cmp	r3, #0
 80049b6:	d1f5      	bne.n	80049a4 <crc7_one+0x8>
	}
	return t;
}
 80049b8:	4770      	bx	lr
	...

080049bc <spi_txrx>:
{
 80049bc:	b57f      	push	{r0, r1, r2, r3, r4, r5, r6, lr}
	uint8_t out = 0;
 80049be:	2300      	movs	r3, #0
 80049c0:	466a      	mov	r2, sp
{
 80049c2:	210f      	movs	r1, #15
	uint8_t out = 0;
 80049c4:	75d3      	strb	r3, [r2, #23]
	HAL_SPI_TransmitReceive(&FAT_SD_SPI, &data, &out, sizeof(data), HAL_MAX_DELAY);
 80049c6:	2217      	movs	r2, #23
{
 80049c8:	4469      	add	r1, sp
	HAL_SPI_TransmitReceive(&FAT_SD_SPI, &data, &out, sizeof(data), HAL_MAX_DELAY);
 80049ca:	3b01      	subs	r3, #1
{
 80049cc:	7008      	strb	r0, [r1, #0]
	HAL_SPI_TransmitReceive(&FAT_SD_SPI, &data, &out, sizeof(data), HAL_MAX_DELAY);
 80049ce:	446a      	add	r2, sp
 80049d0:	9300      	str	r3, [sp, #0]
 80049d2:	4804      	ldr	r0, [pc, #16]	; (80049e4 <spi_txrx+0x28>)
 80049d4:	3302      	adds	r3, #2
 80049d6:	f7fe fd65 	bl	80034a4 <HAL_SPI_TransmitReceive>
	return out;
 80049da:	466b      	mov	r3, sp
 80049dc:	7dd8      	ldrb	r0, [r3, #23]
}
 80049de:	b007      	add	sp, #28
 80049e0:	bd00      	pop	{pc}
 80049e2:	46c0      	nop			; (mov r8, r8)
 80049e4:	20000128 	.word	0x20000128

080049e8 <sd_cmd>:


/*** sd functions - on top of spi code ***/

static void sd_cmd(uint8_t cmd, uint32_t arg)
{
 80049e8:	b570      	push	{r4, r5, r6, lr}
	uint8_t crc = 0;
	spi_txrx(0x40 | cmd);
 80049ea:	2540      	movs	r5, #64	; 0x40
 80049ec:	4305      	orrs	r5, r0
 80049ee:	0028      	movs	r0, r5
{
 80049f0:	000c      	movs	r4, r1
	spi_txrx(0x40 | cmd);
 80049f2:	f7ff ffe3 	bl	80049bc <spi_txrx>
	crc = crc7_one(crc, 0x40 | cmd);
 80049f6:	0029      	movs	r1, r5
 80049f8:	2000      	movs	r0, #0
 80049fa:	f7ff ffcf 	bl	800499c <crc7_one>
 80049fe:	0005      	movs	r5, r0
	spi_txrx(arg >> 24);
 8004a00:	0e26      	lsrs	r6, r4, #24
 8004a02:	0030      	movs	r0, r6
 8004a04:	f7ff ffda 	bl	80049bc <spi_txrx>
	crc = crc7_one(crc, arg >> 24);
 8004a08:	0031      	movs	r1, r6
 8004a0a:	0028      	movs	r0, r5
 8004a0c:	f7ff ffc6 	bl	800499c <crc7_one>
 8004a10:	0006      	movs	r6, r0
	spi_txrx(arg >> 16);
 8004a12:	0c25      	lsrs	r5, r4, #16
 8004a14:	b2ed      	uxtb	r5, r5
 8004a16:	0028      	movs	r0, r5
 8004a18:	f7ff ffd0 	bl	80049bc <spi_txrx>
	crc = crc7_one(crc, arg >> 16);
 8004a1c:	0029      	movs	r1, r5
 8004a1e:	0030      	movs	r0, r6
 8004a20:	f7ff ffbc 	bl	800499c <crc7_one>
 8004a24:	0006      	movs	r6, r0
	spi_txrx(arg >> 8);
 8004a26:	0a25      	lsrs	r5, r4, #8
 8004a28:	b2ed      	uxtb	r5, r5
 8004a2a:	0028      	movs	r0, r5
 8004a2c:	f7ff ffc6 	bl	80049bc <spi_txrx>
	crc = crc7_one(crc, arg >> 8);
 8004a30:	0029      	movs	r1, r5
 8004a32:	0030      	movs	r0, r6
 8004a34:	f7ff ffb2 	bl	800499c <crc7_one>
 8004a38:	0005      	movs	r5, r0
	spi_txrx(arg);
 8004a3a:	b2e4      	uxtb	r4, r4
 8004a3c:	0020      	movs	r0, r4
 8004a3e:	f7ff ffbd 	bl	80049bc <spi_txrx>
	crc = crc7_one(crc, arg);
 8004a42:	0021      	movs	r1, r4
 8004a44:	0028      	movs	r0, r5
 8004a46:	f7ff ffa9 	bl	800499c <crc7_one>
	//spi_txrx(0x95);
	spi_txrx(crc | 0x1);	/* crc7, for cmd0 */
 8004a4a:	2301      	movs	r3, #1
 8004a4c:	4318      	orrs	r0, r3
 8004a4e:	b2c0      	uxtb	r0, r0
 8004a50:	f7ff ffb4 	bl	80049bc <spi_txrx>
}
 8004a54:	bd70      	pop	{r4, r5, r6, pc}
	...

08004a58 <sd_get_r1>:

static uint8_t sd_get_r1()
{
 8004a58:	b510      	push	{r4, lr}
	int tries = 1000;
	uint8_t r;

	while (tries--) {
 8004a5a:	4c05      	ldr	r4, [pc, #20]	; (8004a70 <sd_get_r1+0x18>)
 8004a5c:	3c01      	subs	r4, #1
		r = spi_txrx(0xff);
 8004a5e:	20ff      	movs	r0, #255	; 0xff
	while (tries--) {
 8004a60:	2c00      	cmp	r4, #0
 8004a62:	d003      	beq.n	8004a6c <sd_get_r1+0x14>
		r = spi_txrx(0xff);
 8004a64:	f7ff ffaa 	bl	80049bc <spi_txrx>
		if ((r & 0x80) == 0)
 8004a68:	0603      	lsls	r3, r0, #24
 8004a6a:	d4f7      	bmi.n	8004a5c <sd_get_r1+0x4>
			return r;
	}
	return 0xff;
}
 8004a6c:	bd10      	pop	{r4, pc}
 8004a6e:	46c0      	nop			; (mov r8, r8)
 8004a70:	000003e9 	.word	0x000003e9

08004a74 <sd_nec>:


/* Nec (=Ncr? which is limited to [0,8]) dummy bytes before lowering CS,
 * as described in sandisk doc, 5.4. */
static void sd_nec()
{
 8004a74:	b510      	push	{r4, lr}
 8004a76:	2408      	movs	r4, #8
	int i;
	for (i=0; i<8; i++)
		spi_txrx(0xff);
 8004a78:	20ff      	movs	r0, #255	; 0xff
 8004a7a:	3c01      	subs	r4, #1
 8004a7c:	f7ff ff9e 	bl	80049bc <spi_txrx>
	for (i=0; i<8; i++)
 8004a80:	2c00      	cmp	r4, #0
 8004a82:	d1f9      	bne.n	8004a78 <sd_nec+0x4>
}
 8004a84:	bd10      	pop	{r4, pc}

08004a86 <sd_get_r7>:
{
 8004a86:	b5f8      	push	{r3, r4, r5, r6, r7, lr}
 8004a88:	0006      	movs	r6, r0
	r = sd_get_r1();
 8004a8a:	f7ff ffe5 	bl	8004a58 <sd_get_r1>
 8004a8e:	0005      	movs	r5, r0
	if (r != 0x01)
 8004a90:	2801      	cmp	r0, #1
 8004a92:	d113      	bne.n	8004abc <sd_get_r7+0x36>
	r = spi_txrx(0xff) << 24;
 8004a94:	20ff      	movs	r0, #255	; 0xff
 8004a96:	f7ff ff91 	bl	80049bc <spi_txrx>
 8004a9a:	0604      	lsls	r4, r0, #24
	r |= spi_txrx(0xff) << 16;
 8004a9c:	20ff      	movs	r0, #255	; 0xff
 8004a9e:	f7ff ff8d 	bl	80049bc <spi_txrx>
 8004aa2:	0407      	lsls	r7, r0, #16
	r |= spi_txrx(0xff) << 8;
 8004aa4:	20ff      	movs	r0, #255	; 0xff
 8004aa6:	f7ff ff89 	bl	80049bc <spi_txrx>
	r |= spi_txrx(0xff) << 16;
 8004aaa:	4327      	orrs	r7, r4
	r |= spi_txrx(0xff) << 8;
 8004aac:	0004      	movs	r4, r0
	r |= spi_txrx(0xff);
 8004aae:	20ff      	movs	r0, #255	; 0xff
 8004ab0:	f7ff ff84 	bl	80049bc <spi_txrx>
	r |= spi_txrx(0xff) << 8;
 8004ab4:	0224      	lsls	r4, r4, #8
 8004ab6:	4307      	orrs	r7, r0
	r |= spi_txrx(0xff);
 8004ab8:	433c      	orrs	r4, r7
	*r7 = r;
 8004aba:	6034      	str	r4, [r6, #0]
}
 8004abc:	0028      	movs	r0, r5
 8004abe:	bdf8      	pop	{r3, r4, r5, r6, r7, pc}

08004ac0 <sd_read_status.isra.0>:

static int sd_read_status(hwif *hw)
{
	uint16_t r2;

	spi_cs_low();
 8004ac0:	2180      	movs	r1, #128	; 0x80
 8004ac2:	20a0      	movs	r0, #160	; 0xa0
static int sd_read_status(hwif *hw)
 8004ac4:	b570      	push	{r4, r5, r6, lr}
	spi_cs_low();
 8004ac6:	2200      	movs	r2, #0
 8004ac8:	0209      	lsls	r1, r1, #8
 8004aca:	05c0      	lsls	r0, r0, #23
 8004acc:	f7fe f81e 	bl	8002b0c <HAL_GPIO_WritePin>
	sd_cmd(13, 0);
 8004ad0:	2100      	movs	r1, #0
 8004ad2:	200d      	movs	r0, #13
 8004ad4:	f7ff ff88 	bl	80049e8 <sd_cmd>
	while (tries--) {
 8004ad8:	4d0b      	ldr	r5, [pc, #44]	; (8004b08 <sd_read_status.isra.0+0x48>)
 8004ada:	3d01      	subs	r5, #1
 8004adc:	2d00      	cmp	r5, #0
 8004ade:	d10a      	bne.n	8004af6 <sd_read_status.isra.0+0x36>
	r2 = sd_get_r2();
	sd_nec();
 8004ae0:	f7ff ffc8 	bl	8004a74 <sd_nec>
	spi_cs_high();
 8004ae4:	2180      	movs	r1, #128	; 0x80
 8004ae6:	20a0      	movs	r0, #160	; 0xa0
 8004ae8:	2201      	movs	r2, #1
 8004aea:	0209      	lsls	r1, r1, #8
 8004aec:	05c0      	lsls	r0, r0, #23
 8004aee:	f7fe f80d 	bl	8002b0c <HAL_GPIO_WritePin>
	if (r2 & 0x8000)
		return -1;
	if (r2)

	return 0;
}
 8004af2:	2000      	movs	r0, #0
 8004af4:	bd70      	pop	{r4, r5, r6, pc}
		r = spi_txrx(0xff);
 8004af6:	20ff      	movs	r0, #255	; 0xff
 8004af8:	f7ff ff60 	bl	80049bc <spi_txrx>
		if ((r & 0x80) == 0)
 8004afc:	0603      	lsls	r3, r0, #24
 8004afe:	d4ec      	bmi.n	8004ada <sd_read_status.isra.0+0x1a>
	r = r<<8 | spi_txrx(0xff);
 8004b00:	20ff      	movs	r0, #255	; 0xff
 8004b02:	f7ff ff5b 	bl	80049bc <spi_txrx>
	return r;
 8004b06:	e7eb      	b.n	8004ae0 <sd_read_status.isra.0+0x20>
 8004b08:	000003e9 	.word	0x000003e9

08004b0c <sd_get_data.isra.0>:

/* 0xfe marks data start, then len bytes of data and crc16 */
static int sd_get_data(hwif *hw, uint8_t *buf, int len)
 8004b0c:	b570      	push	{r4, r5, r6, lr}
 8004b0e:	0005      	movs	r5, r0
 8004b10:	000c      	movs	r4, r1
 8004b12:	4e0c      	ldr	r6, [pc, #48]	; (8004b44 <sd_get_data.isra.0+0x38>)
	uint8_t r;
	uint16_t _crc16;
	uint16_t calc_crc;
	int i;

	while (tries--) {
 8004b14:	3e01      	subs	r6, #1
 8004b16:	2e00      	cmp	r6, #0
 8004b18:	d102      	bne.n	8004b20 <sd_get_data.isra.0+0x14>
		r = spi_txrx(0xff);
		if (r == 0xfe)
			break;
	}
	if (tries < 0)
		return -1;
 8004b1a:	2001      	movs	r0, #1
 8004b1c:	4240      	negs	r0, r0
	//if (_crc16 != calc_crc) {
	//	return -1;
	//}

	return 0;
}
 8004b1e:	bd70      	pop	{r4, r5, r6, pc}
		r = spi_txrx(0xff);
 8004b20:	20ff      	movs	r0, #255	; 0xff
 8004b22:	f7ff ff4b 	bl	80049bc <spi_txrx>
		if (r == 0xfe)
 8004b26:	28fe      	cmp	r0, #254	; 0xfe
 8004b28:	d1f4      	bne.n	8004b14 <sd_get_data.isra.0+0x8>
	dma_complete = 0;
 8004b2a:	2300      	movs	r3, #0
 8004b2c:	4e06      	ldr	r6, [pc, #24]	; (8004b48 <sd_get_data.isra.0+0x3c>)
	HAL_SPI_Receive_DMA(&FAT_SD_SPI, buf, len);
 8004b2e:	0029      	movs	r1, r5
 8004b30:	4806      	ldr	r0, [pc, #24]	; (8004b4c <sd_get_data.isra.0+0x40>)
 8004b32:	b2a2      	uxth	r2, r4
	dma_complete = 0;
 8004b34:	7033      	strb	r3, [r6, #0]
	HAL_SPI_Receive_DMA(&FAT_SD_SPI, buf, len);
 8004b36:	f7fe fe35 	bl	80037a4 <HAL_SPI_Receive_DMA>
	while (dma_complete == 0);
 8004b3a:	7833      	ldrb	r3, [r6, #0]
 8004b3c:	2b00      	cmp	r3, #0
 8004b3e:	d0fc      	beq.n	8004b3a <sd_get_data.isra.0+0x2e>
 8004b40:	2000      	movs	r0, #0
 8004b42:	e7ec      	b.n	8004b1e <sd_get_data.isra.0+0x12>
 8004b44:	00004e21 	.word	0x00004e21
 8004b48:	20000a64 	.word	0x20000a64
 8004b4c:	20000128 	.word	0x20000128

08004b50 <sd_readsector.isra.0>:

	return 0;
}


static int sd_readsector(hwif *hw, uint32_t address, uint8_t *buf)
 8004b50:	b570      	push	{r4, r5, r6, lr}
 8004b52:	0005      	movs	r5, r0
 8004b54:	000c      	movs	r4, r1
{
	int r;

	spi_cs_low();
 8004b56:	20a0      	movs	r0, #160	; 0xa0
 8004b58:	2180      	movs	r1, #128	; 0x80
static int sd_readsector(hwif *hw, uint32_t address, uint8_t *buf)
 8004b5a:	0016      	movs	r6, r2
	spi_cs_low();
 8004b5c:	0209      	lsls	r1, r1, #8
 8004b5e:	2200      	movs	r2, #0
 8004b60:	05c0      	lsls	r0, r0, #23
 8004b62:	f7fd ffd3 	bl	8002b0c <HAL_GPIO_WritePin>
	if (hw->capabilities & CAP_SDHC)
 8004b66:	682b      	ldr	r3, [r5, #0]
		sd_cmd(17, address); /* read single block */
 8004b68:	0021      	movs	r1, r4
	if (hw->capabilities & CAP_SDHC)
 8004b6a:	079b      	lsls	r3, r3, #30
 8004b6c:	d400      	bmi.n	8004b70 <sd_readsector.isra.0+0x20>
	else
		sd_cmd(17, address*512); /* read single block */
 8004b6e:	0261      	lsls	r1, r4, #9
 8004b70:	2011      	movs	r0, #17
 8004b72:	f7ff ff39 	bl	80049e8 <sd_cmd>

	r = sd_get_r1();
 8004b76:	f7ff ff6f 	bl	8004a58 <sd_get_r1>
	if (r == 0xff) {
 8004b7a:	28ff      	cmp	r0, #255	; 0xff
 8004b7c:	d109      	bne.n	8004b92 <sd_readsector.isra.0+0x42>
		spi_cs_high();
 8004b7e:	2180      	movs	r1, #128	; 0x80
 8004b80:	20a0      	movs	r0, #160	; 0xa0
 8004b82:	2201      	movs	r2, #1
 8004b84:	05c0      	lsls	r0, r0, #23
 8004b86:	0209      	lsls	r1, r1, #8
 8004b88:	f7fd ffc0 	bl	8002b0c <HAL_GPIO_WritePin>
		r = -1;
 8004b8c:	2001      	movs	r0, #1

	r = sd_get_data(hw, buf, 512);
	sd_nec();
	spi_cs_high();
	if (r == -1) {
		r = -3;
 8004b8e:	4240      	negs	r0, r0
	}

	return 0;
 fail:
	return r;
}
 8004b90:	bd70      	pop	{r4, r5, r6, pc}
	if (r & 0xfe) {
 8004b92:	2501      	movs	r5, #1
 8004b94:	43a8      	bics	r0, r5
 8004b96:	b2c4      	uxtb	r4, r0
 8004b98:	2c00      	cmp	r4, #0
 8004b9a:	d008      	beq.n	8004bae <sd_readsector.isra.0+0x5e>
		spi_cs_high();
 8004b9c:	2180      	movs	r1, #128	; 0x80
 8004b9e:	20a0      	movs	r0, #160	; 0xa0
 8004ba0:	002a      	movs	r2, r5
 8004ba2:	05c0      	lsls	r0, r0, #23
 8004ba4:	0209      	lsls	r1, r1, #8
 8004ba6:	f7fd ffb1 	bl	8002b0c <HAL_GPIO_WritePin>
		r = -2;
 8004baa:	2002      	movs	r0, #2
 8004bac:	e7ef      	b.n	8004b8e <sd_readsector.isra.0+0x3e>
	r = sd_get_data(hw, buf, 512);
 8004bae:	2180      	movs	r1, #128	; 0x80
 8004bb0:	0030      	movs	r0, r6
 8004bb2:	0089      	lsls	r1, r1, #2
 8004bb4:	f7ff ffaa 	bl	8004b0c <sd_get_data.isra.0>
 8004bb8:	0006      	movs	r6, r0
	sd_nec();
 8004bba:	f7ff ff5b 	bl	8004a74 <sd_nec>
	spi_cs_high();
 8004bbe:	2180      	movs	r1, #128	; 0x80
 8004bc0:	20a0      	movs	r0, #160	; 0xa0
 8004bc2:	002a      	movs	r2, r5
 8004bc4:	05c0      	lsls	r0, r0, #23
 8004bc6:	0209      	lsls	r1, r1, #8
 8004bc8:	f7fd ffa0 	bl	8002b0c <HAL_GPIO_WritePin>
	return 0;
 8004bcc:	0020      	movs	r0, r4
	if (r == -1) {
 8004bce:	1c73      	adds	r3, r6, #1
 8004bd0:	d1de      	bne.n	8004b90 <sd_readsector.isra.0+0x40>
		r = -3;
 8004bd2:	2003      	movs	r0, #3
 8004bd4:	e7db      	b.n	8004b8e <sd_readsector.isra.0+0x3e>
	...

08004bd8 <sd_init.isra.0>:
	hw->capabilities = 0;
 8004bd8:	2300      	movs	r3, #0
static int sd_init(hwif *hw)
 8004bda:	b5f0      	push	{r4, r5, r6, r7, lr}
	hw->capabilities = 0;
 8004bdc:	6003      	str	r3, [r0, #0]
static int sd_init(hwif *hw)
 8004bde:	0004      	movs	r4, r0
	FAT_SD_SPI.Init.BaudRatePrescaler = prescaler;
 8004be0:	489c      	ldr	r0, [pc, #624]	; (8004e54 <sd_init.isra.0+0x27c>)
 8004be2:	3328      	adds	r3, #40	; 0x28
static int sd_init(hwif *hw)
 8004be4:	b085      	sub	sp, #20
	FAT_SD_SPI.Init.BaudRatePrescaler = prescaler;
 8004be6:	61c3      	str	r3, [r0, #28]
	HAL_SPI_Init(&FAT_SD_SPI);
 8004be8:	f7fe fc1c 	bl	8003424 <HAL_SPI_Init>
	spi_cs_high();
 8004bec:	2180      	movs	r1, #128	; 0x80
 8004bee:	20a0      	movs	r0, #160	; 0xa0
 8004bf0:	2201      	movs	r2, #1
 8004bf2:	0209      	lsls	r1, r1, #8
 8004bf4:	05c0      	lsls	r0, r0, #23
 8004bf6:	f7fd ff89 	bl	8002b0c <HAL_GPIO_WritePin>
 8004bfa:	260a      	movs	r6, #10
		spi_txrx(0xff);
 8004bfc:	20ff      	movs	r0, #255	; 0xff
 8004bfe:	3e01      	subs	r6, #1
 8004c00:	f7ff fedc 	bl	80049bc <spi_txrx>
	for (i=0; i<10; i++)
 8004c04:	2e00      	cmp	r6, #0
 8004c06:	d1f9      	bne.n	8004bfc <sd_init.isra.0+0x24>
	spi_cs_low();
 8004c08:	2180      	movs	r1, #128	; 0x80
 8004c0a:	20a0      	movs	r0, #160	; 0xa0
 8004c0c:	0032      	movs	r2, r6
 8004c0e:	0209      	lsls	r1, r1, #8
 8004c10:	05c0      	lsls	r0, r0, #23
 8004c12:	f7fd ff7b 	bl	8002b0c <HAL_GPIO_WritePin>
	sd_cmd(0, 0);
 8004c16:	0031      	movs	r1, r6
 8004c18:	0030      	movs	r0, r6
 8004c1a:	f7ff fee5 	bl	80049e8 <sd_cmd>
	r = sd_get_r1();
 8004c1e:	f7ff ff1b 	bl	8004a58 <sd_get_r1>
 8004c22:	0005      	movs	r5, r0
	sd_nec();
 8004c24:	f7ff ff26 	bl	8004a74 <sd_nec>
	spi_cs_high();
 8004c28:	2180      	movs	r1, #128	; 0x80
 8004c2a:	20a0      	movs	r0, #160	; 0xa0
 8004c2c:	2201      	movs	r2, #1
 8004c2e:	0209      	lsls	r1, r1, #8
 8004c30:	05c0      	lsls	r0, r0, #23
 8004c32:	f7fd ff6b 	bl	8002b0c <HAL_GPIO_WritePin>
	if (r == 0xff)
 8004c36:	2dff      	cmp	r5, #255	; 0xff
 8004c38:	d104      	bne.n	8004c44 <sd_init.isra.0+0x6c>
	return -1;
 8004c3a:	2501      	movs	r5, #1
	return -2;
 8004c3c:	426d      	negs	r5, r5
}
 8004c3e:	0028      	movs	r0, r5
 8004c40:	b005      	add	sp, #20
 8004c42:	bdf0      	pop	{r4, r5, r6, r7, pc}
	if (r != 0x01) {
 8004c44:	2d01      	cmp	r5, #1
 8004c46:	d001      	beq.n	8004c4c <sd_init.isra.0+0x74>
	return -2;
 8004c48:	2502      	movs	r5, #2
 8004c4a:	e7f7      	b.n	8004c3c <sd_init.isra.0+0x64>
	spi_cs_low();
 8004c4c:	2180      	movs	r1, #128	; 0x80
 8004c4e:	20a0      	movs	r0, #160	; 0xa0
 8004c50:	0032      	movs	r2, r6
 8004c52:	0209      	lsls	r1, r1, #8
 8004c54:	05c0      	lsls	r0, r0, #23
 8004c56:	f7fd ff59 	bl	8002b0c <HAL_GPIO_WritePin>
	sd_cmd(8, 0x1aa /* VHS = 1 */);
 8004c5a:	21d5      	movs	r1, #213	; 0xd5
 8004c5c:	2008      	movs	r0, #8
 8004c5e:	0049      	lsls	r1, r1, #1
 8004c60:	f7ff fec2 	bl	80049e8 <sd_cmd>
	r = sd_get_r7(&r7);
 8004c64:	a802      	add	r0, sp, #8
 8004c66:	f7ff ff0e 	bl	8004a86 <sd_get_r7>
 8004c6a:	0007      	movs	r7, r0
	sd_nec();
 8004c6c:	f7ff ff02 	bl	8004a74 <sd_nec>
	spi_cs_high();
 8004c70:	2180      	movs	r1, #128	; 0x80
 8004c72:	20a0      	movs	r0, #160	; 0xa0
 8004c74:	002a      	movs	r2, r5
 8004c76:	0209      	lsls	r1, r1, #8
 8004c78:	05c0      	lsls	r0, r0, #23
 8004c7a:	f7fd ff47 	bl	8002b0c <HAL_GPIO_WritePin>
	hw->capabilities |= CAP_VER2_00;
 8004c7e:	002a      	movs	r2, r5
 8004c80:	6823      	ldr	r3, [r4, #0]
 8004c82:	431a      	orrs	r2, r3
 8004c84:	6022      	str	r2, [r4, #0]
	if (r == 0xff)
 8004c86:	2fff      	cmp	r7, #255	; 0xff
 8004c88:	d0d7      	beq.n	8004c3a <sd_init.isra.0+0x62>
	if (r == 0x01)
 8004c8a:	2f01      	cmp	r7, #1
 8004c8c:	d003      	beq.n	8004c96 <sd_init.isra.0+0xbe>
	else if (r & 0x4) {
 8004c8e:	077a      	lsls	r2, r7, #29
 8004c90:	d5da      	bpl.n	8004c48 <sd_init.isra.0+0x70>
		hw->capabilities &= ~CAP_VER2_00;
 8004c92:	43ab      	bics	r3, r5
 8004c94:	6023      	str	r3, [r4, #0]
	spi_cs_low();
 8004c96:	2180      	movs	r1, #128	; 0x80
 8004c98:	20a0      	movs	r0, #160	; 0xa0
 8004c9a:	2200      	movs	r2, #0
 8004c9c:	0209      	lsls	r1, r1, #8
 8004c9e:	05c0      	lsls	r0, r0, #23
 8004ca0:	f7fd ff34 	bl	8002b0c <HAL_GPIO_WritePin>
	sd_cmd(58, 0);
 8004ca4:	2100      	movs	r1, #0
 8004ca6:	203a      	movs	r0, #58	; 0x3a
 8004ca8:	f7ff fe9e 	bl	80049e8 <sd_cmd>
	r = sd_get_r3(&r3);
 8004cac:	a803      	add	r0, sp, #12
 8004cae:	f7ff feea 	bl	8004a86 <sd_get_r7>
 8004cb2:	0005      	movs	r5, r0
	sd_nec();
 8004cb4:	f7ff fede 	bl	8004a74 <sd_nec>
	spi_cs_high();
 8004cb8:	2180      	movs	r1, #128	; 0x80
 8004cba:	20a0      	movs	r0, #160	; 0xa0
 8004cbc:	2201      	movs	r2, #1
 8004cbe:	0209      	lsls	r1, r1, #8
 8004cc0:	05c0      	lsls	r0, r0, #23
 8004cc2:	f7fd ff23 	bl	8002b0c <HAL_GPIO_WritePin>
	if (r == 0xff)
 8004cc6:	2dff      	cmp	r5, #255	; 0xff
 8004cc8:	d0b7      	beq.n	8004c3a <sd_init.isra.0+0x62>
	if (r != 0x01 && !(r & 0x4)) { /* allow it to not be implemented - old cards */
 8004cca:	2d01      	cmp	r5, #1
 8004ccc:	d001      	beq.n	8004cd2 <sd_init.isra.0+0xfa>
 8004cce:	076b      	lsls	r3, r5, #29
 8004cd0:	d5ba      	bpl.n	8004c48 <sd_init.isra.0+0x70>
	if (hw->capabilities & CAP_VER2_00)
 8004cd2:	6823      	ldr	r3, [r4, #0]
 8004cd4:	07db      	lsls	r3, r3, #31
 8004cd6:	d501      	bpl.n	8004cdc <sd_init.isra.0+0x104>
		hcs = 1<<30;
 8004cd8:	2680      	movs	r6, #128	; 0x80
 8004cda:	05f6      	lsls	r6, r6, #23
 8004cdc:	4b5e      	ldr	r3, [pc, #376]	; (8004e58 <sd_init.isra.0+0x280>)
 8004cde:	9301      	str	r3, [sp, #4]
		spi_cs_low();
 8004ce0:	2180      	movs	r1, #128	; 0x80
 8004ce2:	20a0      	movs	r0, #160	; 0xa0
 8004ce4:	2200      	movs	r2, #0
 8004ce6:	0209      	lsls	r1, r1, #8
 8004ce8:	05c0      	lsls	r0, r0, #23
 8004cea:	f7fd ff0f 	bl	8002b0c <HAL_GPIO_WritePin>
		sd_cmd(55, 0);
 8004cee:	2100      	movs	r1, #0
 8004cf0:	2037      	movs	r0, #55	; 0x37
 8004cf2:	f7ff fe79 	bl	80049e8 <sd_cmd>
		r = sd_get_r1();
 8004cf6:	f7ff feaf 	bl	8004a58 <sd_get_r1>
 8004cfa:	0005      	movs	r5, r0
		sd_nec();
 8004cfc:	f7ff feba 	bl	8004a74 <sd_nec>
		spi_cs_high();
 8004d00:	2180      	movs	r1, #128	; 0x80
 8004d02:	20a0      	movs	r0, #160	; 0xa0
 8004d04:	2201      	movs	r2, #1
 8004d06:	0209      	lsls	r1, r1, #8
 8004d08:	05c0      	lsls	r0, r0, #23
 8004d0a:	f7fd feff 	bl	8002b0c <HAL_GPIO_WritePin>
		if (r == 0xff)
 8004d0e:	2dff      	cmp	r5, #255	; 0xff
 8004d10:	d100      	bne.n	8004d14 <sd_init.isra.0+0x13c>
 8004d12:	e792      	b.n	8004c3a <sd_init.isra.0+0x62>
		if (r & 0xfe) {
 8004d14:	2701      	movs	r7, #1
 8004d16:	43bd      	bics	r5, r7
 8004d18:	b2ea      	uxtb	r2, r5
 8004d1a:	2a00      	cmp	r2, #0
 8004d1c:	d194      	bne.n	8004c48 <sd_init.isra.0+0x70>
		spi_cs_low();
 8004d1e:	2180      	movs	r1, #128	; 0x80
 8004d20:	20a0      	movs	r0, #160	; 0xa0
 8004d22:	0209      	lsls	r1, r1, #8
 8004d24:	05c0      	lsls	r0, r0, #23
 8004d26:	f7fd fef1 	bl	8002b0c <HAL_GPIO_WritePin>
		sd_cmd(41, hcs);
 8004d2a:	0031      	movs	r1, r6
 8004d2c:	2029      	movs	r0, #41	; 0x29
 8004d2e:	f7ff fe5b 	bl	80049e8 <sd_cmd>
		r = sd_get_r1();
 8004d32:	f7ff fe91 	bl	8004a58 <sd_get_r1>
 8004d36:	0005      	movs	r5, r0
		sd_nec();
 8004d38:	f7ff fe9c 	bl	8004a74 <sd_nec>
		spi_cs_high();
 8004d3c:	2180      	movs	r1, #128	; 0x80
 8004d3e:	20a0      	movs	r0, #160	; 0xa0
 8004d40:	003a      	movs	r2, r7
 8004d42:	0209      	lsls	r1, r1, #8
 8004d44:	05c0      	lsls	r0, r0, #23
 8004d46:	f7fd fee1 	bl	8002b0c <HAL_GPIO_WritePin>
		if (r == 0xff)
 8004d4a:	2dff      	cmp	r5, #255	; 0xff
 8004d4c:	d100      	bne.n	8004d50 <sd_init.isra.0+0x178>
 8004d4e:	e774      	b.n	8004c3a <sd_init.isra.0+0x62>
		if (r & 0xfe) {
 8004d50:	002b      	movs	r3, r5
 8004d52:	43bb      	bics	r3, r7
 8004d54:	b2db      	uxtb	r3, r3
 8004d56:	2b00      	cmp	r3, #0
 8004d58:	d000      	beq.n	8004d5c <sd_init.isra.0+0x184>
 8004d5a:	e775      	b.n	8004c48 <sd_init.isra.0+0x70>
	} while (r != 0 && tries--);
 8004d5c:	2d00      	cmp	r5, #0
 8004d5e:	d023      	beq.n	8004da8 <sd_init.isra.0+0x1d0>
 8004d60:	9b01      	ldr	r3, [sp, #4]
 8004d62:	3b01      	subs	r3, #1
 8004d64:	9301      	str	r3, [sp, #4]
 8004d66:	2b00      	cmp	r3, #0
 8004d68:	d1ba      	bne.n	8004ce0 <sd_init.isra.0+0x108>
 8004d6a:	e76d      	b.n	8004c48 <sd_init.isra.0+0x70>
		spi_cs_low();
 8004d6c:	2180      	movs	r1, #128	; 0x80
 8004d6e:	20a0      	movs	r0, #160	; 0xa0
 8004d70:	0209      	lsls	r1, r1, #8
 8004d72:	05c0      	lsls	r0, r0, #23
 8004d74:	f7fd feca 	bl	8002b0c <HAL_GPIO_WritePin>
		sd_cmd(16, 512);
 8004d78:	2180      	movs	r1, #128	; 0x80
 8004d7a:	2010      	movs	r0, #16
 8004d7c:	0089      	lsls	r1, r1, #2
 8004d7e:	f7ff fe33 	bl	80049e8 <sd_cmd>
		r = sd_get_r1();
 8004d82:	f7ff fe69 	bl	8004a58 <sd_get_r1>
 8004d86:	0004      	movs	r4, r0
		sd_nec();
 8004d88:	f7ff fe74 	bl	8004a74 <sd_nec>
		spi_cs_high();
 8004d8c:	2180      	movs	r1, #128	; 0x80
 8004d8e:	20a0      	movs	r0, #160	; 0xa0
 8004d90:	2201      	movs	r2, #1
 8004d92:	0209      	lsls	r1, r1, #8
 8004d94:	05c0      	lsls	r0, r0, #23
 8004d96:	f7fd feb9 	bl	8002b0c <HAL_GPIO_WritePin>
		if (r == 0xff)
 8004d9a:	2cff      	cmp	r4, #255	; 0xff
 8004d9c:	d100      	bne.n	8004da0 <sd_init.isra.0+0x1c8>
 8004d9e:	e74c      	b.n	8004c3a <sd_init.isra.0+0x62>
		if (r & 0xfe) {
 8004da0:	23fe      	movs	r3, #254	; 0xfe
 8004da2:	421c      	tst	r4, r3
 8004da4:	d031      	beq.n	8004e0a <sd_init.isra.0+0x232>
 8004da6:	e74f      	b.n	8004c48 <sd_init.isra.0+0x70>
	if (hw->capabilities & CAP_VER2_00) {
 8004da8:	6823      	ldr	r3, [r4, #0]
 8004daa:	423b      	tst	r3, r7
 8004dac:	d027      	beq.n	8004dfe <sd_init.isra.0+0x226>
		spi_cs_low();
 8004dae:	2180      	movs	r1, #128	; 0x80
 8004db0:	20a0      	movs	r0, #160	; 0xa0
 8004db2:	002a      	movs	r2, r5
 8004db4:	0209      	lsls	r1, r1, #8
 8004db6:	05c0      	lsls	r0, r0, #23
 8004db8:	f7fd fea8 	bl	8002b0c <HAL_GPIO_WritePin>
		sd_cmd(58, 0);
 8004dbc:	0029      	movs	r1, r5
 8004dbe:	203a      	movs	r0, #58	; 0x3a
 8004dc0:	f7ff fe12 	bl	80049e8 <sd_cmd>
		r = sd_get_r3(&r3);
 8004dc4:	a803      	add	r0, sp, #12
 8004dc6:	f7ff fe5e 	bl	8004a86 <sd_get_r7>
 8004dca:	0006      	movs	r6, r0
		sd_nec();
 8004dcc:	f7ff fe52 	bl	8004a74 <sd_nec>
		spi_cs_high();
 8004dd0:	2180      	movs	r1, #128	; 0x80
 8004dd2:	20a0      	movs	r0, #160	; 0xa0
 8004dd4:	003a      	movs	r2, r7
 8004dd6:	0209      	lsls	r1, r1, #8
 8004dd8:	05c0      	lsls	r0, r0, #23
 8004dda:	f7fd fe97 	bl	8002b0c <HAL_GPIO_WritePin>
		if (r == 0xff)
 8004dde:	2eff      	cmp	r6, #255	; 0xff
 8004de0:	d100      	bne.n	8004de4 <sd_init.isra.0+0x20c>
 8004de2:	e72a      	b.n	8004c3a <sd_init.isra.0+0x62>
		if (r & 0xfe) {
 8004de4:	43be      	bics	r6, r7
 8004de6:	b2f6      	uxtb	r6, r6
 8004de8:	2e00      	cmp	r6, #0
 8004dea:	d000      	beq.n	8004dee <sd_init.isra.0+0x216>
 8004dec:	e72c      	b.n	8004c48 <sd_init.isra.0+0x70>
			if (r3>>30 & 1) {
 8004dee:	9b03      	ldr	r3, [sp, #12]
 8004df0:	0f9b      	lsrs	r3, r3, #30
 8004df2:	423b      	tst	r3, r7
 8004df4:	d003      	beq.n	8004dfe <sd_init.isra.0+0x226>
				hw->capabilities |= CAP_SDHC;
 8004df6:	2302      	movs	r3, #2
 8004df8:	6822      	ldr	r2, [r4, #0]
 8004dfa:	4313      	orrs	r3, r2
 8004dfc:	6023      	str	r3, [r4, #0]
	if ((hw->capabilities & CAP_SDHC) == 0) {
 8004dfe:	6821      	ldr	r1, [r4, #0]
 8004e00:	2302      	movs	r3, #2
 8004e02:	000a      	movs	r2, r1
 8004e04:	401a      	ands	r2, r3
 8004e06:	4219      	tst	r1, r3
 8004e08:	d0b0      	beq.n	8004d6c <sd_init.isra.0+0x194>
	spi_cs_low();
 8004e0a:	2180      	movs	r1, #128	; 0x80
 8004e0c:	20a0      	movs	r0, #160	; 0xa0
 8004e0e:	2200      	movs	r2, #0
 8004e10:	0209      	lsls	r1, r1, #8
 8004e12:	05c0      	lsls	r0, r0, #23
 8004e14:	f7fd fe7a 	bl	8002b0c <HAL_GPIO_WritePin>
	sd_cmd(59, 0);
 8004e18:	2100      	movs	r1, #0
 8004e1a:	203b      	movs	r0, #59	; 0x3b
 8004e1c:	f7ff fde4 	bl	80049e8 <sd_cmd>
	r = sd_get_r1();
 8004e20:	f7ff fe1a 	bl	8004a58 <sd_get_r1>
 8004e24:	0004      	movs	r4, r0
	sd_nec();
 8004e26:	f7ff fe25 	bl	8004a74 <sd_nec>
	spi_cs_high();
 8004e2a:	2180      	movs	r1, #128	; 0x80
 8004e2c:	20a0      	movs	r0, #160	; 0xa0
 8004e2e:	2201      	movs	r2, #1
 8004e30:	0209      	lsls	r1, r1, #8
 8004e32:	05c0      	lsls	r0, r0, #23
 8004e34:	f7fd fe6a 	bl	8002b0c <HAL_GPIO_WritePin>
	if (r == 0xff)
 8004e38:	2cff      	cmp	r4, #255	; 0xff
 8004e3a:	d100      	bne.n	8004e3e <sd_init.isra.0+0x266>
 8004e3c:	e6fd      	b.n	8004c3a <sd_init.isra.0+0x62>
	if (r & 0xfe) {
 8004e3e:	23fe      	movs	r3, #254	; 0xfe
 8004e40:	421c      	tst	r4, r3
 8004e42:	d000      	beq.n	8004e46 <sd_init.isra.0+0x26e>
 8004e44:	e700      	b.n	8004c48 <sd_init.isra.0+0x70>
	FAT_SD_SPI.Init.BaudRatePrescaler = prescaler;
 8004e46:	4803      	ldr	r0, [pc, #12]	; (8004e54 <sd_init.isra.0+0x27c>)
 8004e48:	3bee      	subs	r3, #238	; 0xee
 8004e4a:	61c3      	str	r3, [r0, #28]
	HAL_SPI_Init(&FAT_SD_SPI);
 8004e4c:	f7fe faea 	bl	8003424 <HAL_SPI_Init>
}
 8004e50:	e6f5      	b.n	8004c3e <sd_init.isra.0+0x66>
 8004e52:	46c0      	nop			; (mov r8, r8)
 8004e54:	20000128 	.word	0x20000128
 8004e58:	000003e9 	.word	0x000003e9

08004e5c <hwif_init>:


/*** public API - on top of sd/spi code ***/

int hwif_init(hwif* hw)
{
 8004e5c:	b57f      	push	{r0, r1, r2, r3, r4, r5, r6, lr}
	int tries = 10;

	if (hw->initialized)
		return 0;
 8004e5e:	2500      	movs	r5, #0
	if (hw->initialized)
 8004e60:	6803      	ldr	r3, [r0, #0]
{
 8004e62:	0004      	movs	r4, r0
	if (hw->initialized)
 8004e64:	42ab      	cmp	r3, r5
 8004e66:	d10a      	bne.n	8004e7e <hwif_init+0x22>
	FAT_SD_SPI.Init.BaudRatePrescaler = prescaler;
 8004e68:	2328      	movs	r3, #40	; 0x28
 8004e6a:	4850      	ldr	r0, [pc, #320]	; (8004fac <hwif_init+0x150>)
}
 8004e6c:	260b      	movs	r6, #11
	FAT_SD_SPI.Init.BaudRatePrescaler = prescaler;
 8004e6e:	61c3      	str	r3, [r0, #28]
	HAL_SPI_Init(&FAT_SD_SPI);
 8004e70:	f7fe fad8 	bl	8003424 <HAL_SPI_Init>

	spi_init();

	while (tries--) {
 8004e74:	3e01      	subs	r6, #1
 8004e76:	2e00      	cmp	r6, #0
 8004e78:	d104      	bne.n	8004e84 <hwif_init+0x28>
	/* read status register */
	sd_read_status(hw);

	sd_read_cid(hw);
	if (sd_read_csd(hw) != 0)
		return -1;
 8004e7a:	2501      	movs	r5, #1
 8004e7c:	426d      	negs	r5, r5

	hw->initialized = 1;
	return 0;
}
 8004e7e:	0028      	movs	r0, r5
 8004e80:	b004      	add	sp, #16
 8004e82:	bd70      	pop	{r4, r5, r6, pc}
		if (sd_init(hw) == 0)
 8004e84:	0020      	movs	r0, r4
 8004e86:	300c      	adds	r0, #12
 8004e88:	f7ff fea6 	bl	8004bd8 <sd_init.isra.0>
 8004e8c:	1e05      	subs	r5, r0, #0
 8004e8e:	d1f1      	bne.n	8004e74 <hwif_init+0x18>
	sd_read_status(hw);
 8004e90:	f7ff fe16 	bl	8004ac0 <sd_read_status.isra.0>
	spi_cs_low();
 8004e94:	2180      	movs	r1, #128	; 0x80
 8004e96:	20a0      	movs	r0, #160	; 0xa0
 8004e98:	002a      	movs	r2, r5
 8004e9a:	0209      	lsls	r1, r1, #8
 8004e9c:	05c0      	lsls	r0, r0, #23
 8004e9e:	f7fd fe35 	bl	8002b0c <HAL_GPIO_WritePin>
	sd_cmd(10, 0);
 8004ea2:	0029      	movs	r1, r5
 8004ea4:	200a      	movs	r0, #10
 8004ea6:	f7ff fd9f 	bl	80049e8 <sd_cmd>
	r = sd_get_r1();
 8004eaa:	f7ff fdd5 	bl	8004a58 <sd_get_r1>
	if (r == 0xff) {
 8004eae:	28ff      	cmp	r0, #255	; 0xff
 8004eb0:	d11d      	bne.n	8004eee <hwif_init+0x92>
		spi_cs_high();
 8004eb2:	2201      	movs	r2, #1
	spi_cs_high();
 8004eb4:	2180      	movs	r1, #128	; 0x80
 8004eb6:	20a0      	movs	r0, #160	; 0xa0
 8004eb8:	0209      	lsls	r1, r1, #8
 8004eba:	05c0      	lsls	r0, r0, #23
 8004ebc:	f7fd fe26 	bl	8002b0c <HAL_GPIO_WritePin>
	spi_cs_low();
 8004ec0:	2180      	movs	r1, #128	; 0x80
 8004ec2:	20a0      	movs	r0, #160	; 0xa0
 8004ec4:	2200      	movs	r2, #0
 8004ec6:	0209      	lsls	r1, r1, #8
 8004ec8:	05c0      	lsls	r0, r0, #23
 8004eca:	f7fd fe1f 	bl	8002b0c <HAL_GPIO_WritePin>
	sd_cmd(9, 0);
 8004ece:	2100      	movs	r1, #0
 8004ed0:	2009      	movs	r0, #9
 8004ed2:	f7ff fd89 	bl	80049e8 <sd_cmd>
	r = sd_get_r1();
 8004ed6:	f7ff fdbf 	bl	8004a58 <sd_get_r1>
	if (r == 0xff) {
 8004eda:	28ff      	cmp	r0, #255	; 0xff
 8004edc:	d114      	bne.n	8004f08 <hwif_init+0xac>
		spi_cs_high();
 8004ede:	2180      	movs	r1, #128	; 0x80
 8004ee0:	20a0      	movs	r0, #160	; 0xa0
 8004ee2:	2201      	movs	r2, #1
 8004ee4:	0209      	lsls	r1, r1, #8
 8004ee6:	05c0      	lsls	r0, r0, #23
 8004ee8:	f7fd fe10 	bl	8002b0c <HAL_GPIO_WritePin>
 8004eec:	e7c5      	b.n	8004e7a <hwif_init+0x1e>
	if (r & 0xfe) {
 8004eee:	2501      	movs	r5, #1
 8004ef0:	43a8      	bics	r0, r5
 8004ef2:	b2c0      	uxtb	r0, r0
 8004ef4:	2800      	cmp	r0, #0
 8004ef6:	d1dc      	bne.n	8004eb2 <hwif_init+0x56>
	r = sd_get_data(hw, buf, 16);
 8004ef8:	2110      	movs	r1, #16
 8004efa:	4668      	mov	r0, sp
 8004efc:	f7ff fe06 	bl	8004b0c <sd_get_data.isra.0>
	sd_nec();
 8004f00:	f7ff fdb8 	bl	8004a74 <sd_nec>
	spi_cs_high();
 8004f04:	002a      	movs	r2, r5
 8004f06:	e7d5      	b.n	8004eb4 <hwif_init+0x58>
	if (r & 0xfe) {
 8004f08:	2601      	movs	r6, #1
 8004f0a:	43b0      	bics	r0, r6
 8004f0c:	b2c0      	uxtb	r0, r0
 8004f0e:	2800      	cmp	r0, #0
 8004f10:	d1e5      	bne.n	8004ede <hwif_init+0x82>
	r = sd_get_data(hw, buf, 16);
 8004f12:	2110      	movs	r1, #16
 8004f14:	4668      	mov	r0, sp
 8004f16:	f7ff fdf9 	bl	8004b0c <sd_get_data.isra.0>
 8004f1a:	0005      	movs	r5, r0
	sd_nec();
 8004f1c:	f7ff fdaa 	bl	8004a74 <sd_nec>
	spi_cs_high();
 8004f20:	2180      	movs	r1, #128	; 0x80
 8004f22:	20a0      	movs	r0, #160	; 0xa0
 8004f24:	0032      	movs	r2, r6
 8004f26:	0209      	lsls	r1, r1, #8
 8004f28:	05c0      	lsls	r0, r0, #23
 8004f2a:	f7fd fdef 	bl	8002b0c <HAL_GPIO_WritePin>
	if (r == -1) {
 8004f2e:	1c6b      	adds	r3, r5, #1
 8004f30:	d0a5      	beq.n	8004e7e <hwif_init+0x22>
	if ((buf[0] >> 6) + 1 == 1) {
 8004f32:	466b      	mov	r3, sp
 8004f34:	7a99      	ldrb	r1, [r3, #10]
 8004f36:	79da      	ldrb	r2, [r3, #7]
 8004f38:	7a1d      	ldrb	r5, [r3, #8]
 8004f3a:	7a58      	ldrb	r0, [r3, #9]
 8004f3c:	781b      	ldrb	r3, [r3, #0]
 8004f3e:	099b      	lsrs	r3, r3, #6
 8004f40:	d12a      	bne.n	8004f98 <hwif_init+0x13c>
	capacity = (((buf[6]&0x3)<<10 | buf[7]<<2 | buf[8]>>6)+1) << (2+(((buf[9]&3) << 1) | buf[10]>>7)) << ((buf[5] & 0xf) - 9);
 8004f42:	466b      	mov	r3, sp
 8004f44:	26c0      	movs	r6, #192	; 0xc0
 8004f46:	799b      	ldrb	r3, [r3, #6]
 8004f48:	0136      	lsls	r6, r6, #4
 8004f4a:	029b      	lsls	r3, r3, #10
 8004f4c:	0092      	lsls	r2, r2, #2
 8004f4e:	09ad      	lsrs	r5, r5, #6
 8004f50:	432a      	orrs	r2, r5
 8004f52:	4033      	ands	r3, r6
 8004f54:	4313      	orrs	r3, r2
 8004f56:	2206      	movs	r2, #6
 8004f58:	0040      	lsls	r0, r0, #1
 8004f5a:	4010      	ands	r0, r2
 8004f5c:	09ca      	lsrs	r2, r1, #7
 8004f5e:	4310      	orrs	r0, r2
 8004f60:	466a      	mov	r2, sp
 8004f62:	3002      	adds	r0, #2
 8004f64:	3301      	adds	r3, #1
 8004f66:	4083      	lsls	r3, r0
 8004f68:	200f      	movs	r0, #15
 8004f6a:	7952      	ldrb	r2, [r2, #5]
 8004f6c:	4002      	ands	r2, r0
 8004f6e:	3a09      	subs	r2, #9
 8004f70:	4093      	lsls	r3, r2
	hw->sectors = capacity;
 8004f72:	6063      	str	r3, [r4, #4]
	hw->erase_sectors = 1;
 8004f74:	2301      	movs	r3, #1
	if (((buf[10]>>6)&1) == 0)
 8004f76:	098a      	lsrs	r2, r1, #6
	hw->erase_sectors = 1;
 8004f78:	60a3      	str	r3, [r4, #8]
	if (((buf[10]>>6)&1) == 0)
 8004f7a:	421a      	tst	r2, r3
 8004f7c:	d108      	bne.n	8004f90 <hwif_init+0x134>
		hw->erase_sectors = ((buf[10]&0x3f)<<1 | buf[11]>>7) + 1;
 8004f7e:	4099      	lsls	r1, r3
 8004f80:	337d      	adds	r3, #125	; 0x7d
 8004f82:	4019      	ands	r1, r3
 8004f84:	466b      	mov	r3, sp
 8004f86:	7adb      	ldrb	r3, [r3, #11]
 8004f88:	09db      	lsrs	r3, r3, #7
 8004f8a:	4319      	orrs	r1, r3
 8004f8c:	3101      	adds	r1, #1
 8004f8e:	60a1      	str	r1, [r4, #8]
	hw->initialized = 1;
 8004f90:	2301      	movs	r3, #1
	return 0;
 8004f92:	2500      	movs	r5, #0
	hw->initialized = 1;
 8004f94:	6023      	str	r3, [r4, #0]
	return 0;
 8004f96:	e772      	b.n	8004e7e <hwif_init+0x22>
		hw->capabilities |= CAP_SDHC;
 8004f98:	2302      	movs	r3, #2
 8004f9a:	68e6      	ldr	r6, [r4, #12]
	capacity = buf[7]<<16 | buf[8]<<8 | buf[9]; /* in 512 kB */
 8004f9c:	0412      	lsls	r2, r2, #16
		hw->capabilities |= CAP_SDHC;
 8004f9e:	4333      	orrs	r3, r6
 8004fa0:	60e3      	str	r3, [r4, #12]
	capacity = buf[7]<<16 | buf[8]<<8 | buf[9]; /* in 512 kB */
 8004fa2:	022b      	lsls	r3, r5, #8
 8004fa4:	4313      	orrs	r3, r2
 8004fa6:	4303      	orrs	r3, r0
	capacity *= 1024; /* in 512 B sectors */
 8004fa8:	029b      	lsls	r3, r3, #10
 8004faa:	e7e2      	b.n	8004f72 <hwif_init+0x116>
 8004fac:	20000128 	.word	0x20000128

08004fb0 <sd_read>:

int sd_read(hwif* hw, uint32_t address, uint8_t *buf)
{
 8004fb0:	b5f7      	push	{r0, r1, r2, r4, r5, r6, r7, lr}
 8004fb2:	300c      	adds	r0, #12
 8004fb4:	000e      	movs	r6, r1
 8004fb6:	0017      	movs	r7, r2
 8004fb8:	0005      	movs	r5, r0
	int r;
	int tries = 10;

	r = sd_readsector(hw, address, buf);
 8004fba:	f7ff fdc9 	bl	8004b50 <sd_readsector.isra.0>

	while (r < 0 && tries--) {
 8004fbe:	230b      	movs	r3, #11
	r = sd_readsector(hw, address, buf);
 8004fc0:	0004      	movs	r4, r0
	while (r < 0 && tries--) {
 8004fc2:	9301      	str	r3, [sp, #4]
 8004fc4:	2c00      	cmp	r4, #0
 8004fc6:	da04      	bge.n	8004fd2 <sd_read+0x22>
 8004fc8:	9b01      	ldr	r3, [sp, #4]
 8004fca:	3b01      	subs	r3, #1
 8004fcc:	9301      	str	r3, [sp, #4]
 8004fce:	2b00      	cmp	r3, #0
 8004fd0:	d101      	bne.n	8004fd6 <sd_read+0x26>
		r = sd_readsector(hw, address, buf);
	}
	if (tries == -1)

	return r;
}
 8004fd2:	0020      	movs	r0, r4
 8004fd4:	bdfe      	pop	{r1, r2, r3, r4, r5, r6, r7, pc}
		if (sd_init(hw) != 0)
 8004fd6:	0028      	movs	r0, r5
 8004fd8:	f7ff fdfe 	bl	8004bd8 <sd_init.isra.0>
 8004fdc:	2800      	cmp	r0, #0
 8004fde:	d1f1      	bne.n	8004fc4 <sd_read+0x14>
		sd_read_status(hw);
 8004fe0:	f7ff fd6e 	bl	8004ac0 <sd_read_status.isra.0>
		r = sd_readsector(hw, address, buf);
 8004fe4:	003a      	movs	r2, r7
 8004fe6:	0031      	movs	r1, r6
 8004fe8:	0028      	movs	r0, r5
 8004fea:	f7ff fdb1 	bl	8004b50 <sd_readsector.isra.0>
 8004fee:	0004      	movs	r4, r0
 8004ff0:	e7e8      	b.n	8004fc4 <sd_read+0x14>
	...

08004ff4 <HAL_SPI_RxCpltCallback>:

	return r;
}

void HAL_SPI_RxCpltCallback(SPI_HandleTypeDef* hspi) {
    dma_complete = 1;
 8004ff4:	2201      	movs	r2, #1
 8004ff6:	4b01      	ldr	r3, [pc, #4]	; (8004ffc <HAL_SPI_RxCpltCallback+0x8>)
 8004ff8:	701a      	strb	r2, [r3, #0]
	return;
}
 8004ffa:	4770      	bx	lr
 8004ffc:	20000a64 	.word	0x20000a64

08005000 <get_ldnumber>:
	char c;
	TCHAR tc;
#endif


	if (*path) {	/* If the pointer is not a null */
 8005000:	6802      	ldr	r2, [r0, #0]
 8005002:	1e13      	subs	r3, r2, #0
 8005004:	d103      	bne.n	800500e <get_ldnumber+0xe>
	int vol = -1;
 8005006:	2001      	movs	r0, #1
 8005008:	4240      	negs	r0, r0
 800500a:	e00e      	b.n	800502a <get_ldnumber+0x2a>
		for (tt = *path; (UINT)*tt >= (_USE_LFN ? ' ' : '!') && *tt != ':'; tt++) ;	/* Find ':' in the path */
 800500c:	3301      	adds	r3, #1
 800500e:	7819      	ldrb	r1, [r3, #0]
 8005010:	291f      	cmp	r1, #31
 8005012:	d909      	bls.n	8005028 <get_ldnumber+0x28>
 8005014:	293a      	cmp	r1, #58	; 0x3a
 8005016:	d1f9      	bne.n	800500c <get_ldnumber+0xc>
		if (*tt == ':') {	/* If a ':' is exist in the path name */
			tp = *path;
			i = *tp++ - '0'; 
 8005018:	1c51      	adds	r1, r2, #1
			if (i < 10 && tp == tt) {	/* Is there a numeric drive id? */
 800501a:	428b      	cmp	r3, r1
 800501c:	d1f3      	bne.n	8005006 <get_ldnumber+0x6>
				if (i < _VOLUMES) {	/* If a drive id is found, get the value and strip it */
 800501e:	7812      	ldrb	r2, [r2, #0]
 8005020:	2a30      	cmp	r2, #48	; 0x30
 8005022:	d1f0      	bne.n	8005006 <get_ldnumber+0x6>
					vol = (int)i;
					*path = ++tt;
 8005024:	3301      	adds	r3, #1
 8005026:	6003      	str	r3, [r0, #0]
			return vol;
		}
#if _FS_RPATH && _VOLUMES >= 2
		vol = CurrVol;	/* Current drive */
#else
		vol = 0;		/* Drive 0 */
 8005028:	2000      	movs	r0, #0
#endif
	}
	return vol;
}
 800502a:	4770      	bx	lr

0800502c <move_window>:
{
 800502c:	b570      	push	{r4, r5, r6, lr}
 800502e:	0004      	movs	r4, r0
	if (sector != fs->winsect) {	/* Window offset changed? */
 8005030:	6a63      	ldr	r3, [r4, #36]	; 0x24
{
 8005032:	000d      	movs	r5, r1
	FRESULT res = FR_OK;
 8005034:	2000      	movs	r0, #0
	if (sector != fs->winsect) {	/* Window offset changed? */
 8005036:	428b      	cmp	r3, r1
 8005038:	d00c      	beq.n	8005054 <move_window+0x28>
			if (disk_read(fs->drv, fs->win, sector, 1) != RES_OK) {
 800503a:	000a      	movs	r2, r1
 800503c:	0021      	movs	r1, r4
 800503e:	2301      	movs	r3, #1
 8005040:	7860      	ldrb	r0, [r4, #1]
 8005042:	3128      	adds	r1, #40	; 0x28
 8005044:	f7ff fc92 	bl	800496c <disk_read>
 8005048:	2800      	cmp	r0, #0
 800504a:	d002      	beq.n	8005052 <move_window+0x26>
				sector = 0xFFFFFFFF;	/* Invalidate window if data is not reliable */
 800504c:	2501      	movs	r5, #1
				res = FR_DISK_ERR;
 800504e:	2001      	movs	r0, #1
				sector = 0xFFFFFFFF;	/* Invalidate window if data is not reliable */
 8005050:	426d      	negs	r5, r5
			fs->winsect = sector;
 8005052:	6265      	str	r5, [r4, #36]	; 0x24
}
 8005054:	bd70      	pop	{r4, r5, r6, pc}
	...

08005058 <check_fs>:
BYTE check_fs (	/* 0:Valid FAT-BS, 1:Valid BS but not FAT, 2:Not a BS, 3:Disk error */
	FATFS* fs,	/* File system object */
	DWORD sect	/* Sector# (lba) to check if it is an FAT boot record or not */
)
{
	fs->wflag = 0; fs->winsect = 0xFFFFFFFF;	/* Invaidate window */
 8005058:	2300      	movs	r3, #0
{
 800505a:	b510      	push	{r4, lr}
	fs->wflag = 0; fs->winsect = 0xFFFFFFFF;	/* Invaidate window */
 800505c:	7103      	strb	r3, [r0, #4]
 800505e:	3b01      	subs	r3, #1
 8005060:	6243      	str	r3, [r0, #36]	; 0x24
{
 8005062:	0004      	movs	r4, r0
	if (move_window(fs, sect) != FR_OK)			/* Load boot record */
 8005064:	f7ff ffe2 	bl	800502c <move_window>
 8005068:	2800      	cmp	r0, #0
 800506a:	d121      	bne.n	80050b0 <check_fs+0x58>
		return 3;

	if (LD_WORD(&fs->win[BS_55AA]) != 0xAA55)	/* Check boot record signature (always placed at offset 510 even if the sector size is >512) */
 800506c:	4b12      	ldr	r3, [pc, #72]	; (80050b8 <check_fs+0x60>)
 800506e:	5ce2      	ldrb	r2, [r4, r3]
 8005070:	4b12      	ldr	r3, [pc, #72]	; (80050bc <check_fs+0x64>)
 8005072:	0212      	lsls	r2, r2, #8
 8005074:	5ce3      	ldrb	r3, [r4, r3]
 8005076:	4313      	orrs	r3, r2
 8005078:	4a11      	ldr	r2, [pc, #68]	; (80050c0 <check_fs+0x68>)
 800507a:	b21b      	sxth	r3, r3
 800507c:	4293      	cmp	r3, r2
 800507e:	d119      	bne.n	80050b4 <check_fs+0x5c>
		return 2;

	if ((LD_DWORD(&fs->win[BS_FilSysType]) & 0xFFFFFF) == 0x544146)		/* Check "FAT" string */
 8005080:	0022      	movs	r2, r4
 8005082:	325e      	adds	r2, #94	; 0x5e
 8005084:	8853      	ldrh	r3, [r2, #2]
 8005086:	8811      	ldrh	r1, [r2, #0]
 8005088:	041b      	lsls	r3, r3, #16
 800508a:	430b      	orrs	r3, r1
 800508c:	4a0d      	ldr	r2, [pc, #52]	; (80050c4 <check_fs+0x6c>)
 800508e:	021b      	lsls	r3, r3, #8
 8005090:	0a1b      	lsrs	r3, r3, #8
 8005092:	4293      	cmp	r3, r2
 8005094:	d00b      	beq.n	80050ae <check_fs+0x56>
		return 0;
	if ((LD_DWORD(&fs->win[BS_FilSysType32]) & 0xFFFFFF) == 0x544146)	/* Check "FAT" string */
 8005096:	347a      	adds	r4, #122	; 0x7a
 8005098:	8860      	ldrh	r0, [r4, #2]
 800509a:	8823      	ldrh	r3, [r4, #0]
 800509c:	0400      	lsls	r0, r0, #16
 800509e:	4318      	orrs	r0, r3
 80050a0:	0200      	lsls	r0, r0, #8
 80050a2:	4b09      	ldr	r3, [pc, #36]	; (80050c8 <check_fs+0x70>)
 80050a4:	0a00      	lsrs	r0, r0, #8
 80050a6:	18c0      	adds	r0, r0, r3
 80050a8:	1e43      	subs	r3, r0, #1
 80050aa:	4198      	sbcs	r0, r3
		return 3;
 80050ac:	b2c0      	uxtb	r0, r0
		return 0;

	return 1;
}
 80050ae:	bd10      	pop	{r4, pc}
		return 3;
 80050b0:	2003      	movs	r0, #3
 80050b2:	e7fc      	b.n	80050ae <check_fs+0x56>
		return 2;
 80050b4:	2002      	movs	r0, #2
 80050b6:	e7fa      	b.n	80050ae <check_fs+0x56>
 80050b8:	00000227 	.word	0x00000227
 80050bc:	00000226 	.word	0x00000226
 80050c0:	ffffaa55 	.word	0xffffaa55
 80050c4:	00544146 	.word	0x00544146
 80050c8:	ffabbeba 	.word	0xffabbeba

080050cc <find_volume.isra.0>:
/*-----------------------------------------------------------------------*/
/* Find logical drive and check if the volume is mounted                 */
/*-----------------------------------------------------------------------*/

static
FRESULT find_volume (	/* FR_OK(0): successful, !=0: any error occurred */
 80050cc:	b5f0      	push	{r4, r5, r6, r7, lr}
	FATFS *fs;
	UINT i;


	/* Get logical drive number from the path name */
	*rfs = 0;
 80050ce:	2300      	movs	r3, #0
FRESULT find_volume (	/* FR_OK(0): successful, !=0: any error occurred */
 80050d0:	0007      	movs	r7, r0
 80050d2:	b08b      	sub	sp, #44	; 0x2c
 80050d4:	0008      	movs	r0, r1
	*rfs = 0;
 80050d6:	603b      	str	r3, [r7, #0]
	vol = get_ldnumber(path);
 80050d8:	f7ff ff92 	bl	8005000 <get_ldnumber>
	if (vol < 0) return FR_INVALID_DRIVE;
 80050dc:	250b      	movs	r5, #11
	vol = get_ldnumber(path);
 80050de:	1e06      	subs	r6, r0, #0
	if (vol < 0) return FR_INVALID_DRIVE;
 80050e0:	db15      	blt.n	800510e <find_volume.isra.0+0x42>

	/* Check if the file system object is valid or not */
	fs = FatFs[vol];					/* Get pointer to the file system object */
 80050e2:	4b78      	ldr	r3, [pc, #480]	; (80052c4 <find_volume.isra.0+0x1f8>)
 80050e4:	0082      	lsls	r2, r0, #2
 80050e6:	58d4      	ldr	r4, [r2, r3]
	if (!fs) return FR_NOT_ENABLED;		/* Is the file system object available? */
 80050e8:	3501      	adds	r5, #1
 80050ea:	2c00      	cmp	r4, #0
 80050ec:	d00f      	beq.n	800510e <find_volume.isra.0+0x42>

	ENTER_FF(fs);						/* Lock the volume */
	*rfs = fs;							/* Return pointer to the file system object */

	if (fs->fs_type) {					/* If the volume has been mounted */
 80050ee:	7823      	ldrb	r3, [r4, #0]
	*rfs = fs;							/* Return pointer to the file system object */
 80050f0:	603c      	str	r4, [r7, #0]
	if (fs->fs_type) {					/* If the volume has been mounted */
 80050f2:	2b00      	cmp	r3, #0
 80050f4:	d10e      	bne.n	8005114 <find_volume.isra.0+0x48>
	}

	/* The file system object is not valid. */
	/* Following code attempts to mount the volume. (analyze BPB and initialize the fs object) */

	fs->fs_type = 0;					/* Clear the file system object */
 80050f6:	2300      	movs	r3, #0
	fs->drv = LD2PD(vol);				/* Bind the logical drive and a physical drive */
 80050f8:	b2f0      	uxtb	r0, r6
	fs->fs_type = 0;					/* Clear the file system object */
 80050fa:	7023      	strb	r3, [r4, #0]
	fs->drv = LD2PD(vol);				/* Bind the logical drive and a physical drive */
 80050fc:	7060      	strb	r0, [r4, #1]
	stat = disk_initialize(fs->drv);	/* Initialize the physical drive */
 80050fe:	f7ff fc2b 	bl	8004958 <disk_initialize>
	if (stat & STA_NOINIT)				/* Check if the initialization succeeded */
 8005102:	2601      	movs	r6, #1
 8005104:	0007      	movs	r7, r0
		return FR_NOT_READY;			/* Failed to initialize due to no medium or hard error */
 8005106:	2503      	movs	r5, #3
 8005108:	4037      	ands	r7, r6
	if (stat & STA_NOINIT)				/* Check if the initialization succeeded */
 800510a:	4230      	tst	r0, r6
 800510c:	d00b      	beq.n	8005126 <find_volume.isra.0+0x5a>
#if _FS_LOCK			/* Clear file lock semaphores */
	clear_lock(fs);
#endif

	return FR_OK;
}
 800510e:	0028      	movs	r0, r5
 8005110:	b00b      	add	sp, #44	; 0x2c
 8005112:	bdf0      	pop	{r4, r5, r6, r7, pc}
		stat = disk_status(fs->drv);
 8005114:	7860      	ldrb	r0, [r4, #1]
 8005116:	f7ff fc17 	bl	8004948 <disk_status>
		if (!(stat & STA_NOINIT)) {		/* and the physical drive is kept initialized */
 800511a:	2301      	movs	r3, #1
 800511c:	0005      	movs	r5, r0
 800511e:	401d      	ands	r5, r3
 8005120:	4218      	tst	r0, r3
 8005122:	d1e8      	bne.n	80050f6 <find_volume.isra.0+0x2a>
 8005124:	e7f3      	b.n	800510e <find_volume.isra.0+0x42>
	fmt = check_fs(fs, bsect);					/* Load sector 0 and check if it is an FAT boot sector as SFD */
 8005126:	0039      	movs	r1, r7
 8005128:	0020      	movs	r0, r4
 800512a:	f7ff ff95 	bl	8005058 <check_fs>
 800512e:	0005      	movs	r5, r0
	if (fmt == 1 || (!fmt && (LD2PT(vol)))) {	/* Not an FAT boot sector or forced partition number */
 8005130:	2801      	cmp	r0, #1
 8005132:	d12c      	bne.n	800518e <find_volume.isra.0+0xc2>
 8005134:	0023      	movs	r3, r4
 8005136:	4a64      	ldr	r2, [pc, #400]	; (80052c8 <find_volume.isra.0+0x1fc>)
 8005138:	33e7      	adds	r3, #231	; 0xe7
 800513a:	a906      	add	r1, sp, #24
 800513c:	33ff      	adds	r3, #255	; 0xff
 800513e:	18a0      	adds	r0, r4, r2
			br[i] = pt[4] ? LD_DWORD(&pt[8]) : 0;
 8005140:	2200      	movs	r2, #0
 8005142:	791e      	ldrb	r6, [r3, #4]
 8005144:	4296      	cmp	r6, r2
 8005146:	d009      	beq.n	800515c <find_volume.isra.0+0x90>
 8005148:	7a5e      	ldrb	r6, [r3, #9]
 800514a:	7a1a      	ldrb	r2, [r3, #8]
 800514c:	0236      	lsls	r6, r6, #8
 800514e:	4316      	orrs	r6, r2
 8005150:	7a9a      	ldrb	r2, [r3, #10]
 8005152:	0412      	lsls	r2, r2, #16
 8005154:	4316      	orrs	r6, r2
 8005156:	7ada      	ldrb	r2, [r3, #11]
 8005158:	0612      	lsls	r2, r2, #24
 800515a:	4332      	orrs	r2, r6
 800515c:	3310      	adds	r3, #16
 800515e:	c104      	stmia	r1!, {r2}
		for (i = 0; i < 4; i++) {			/* Get partition offset */
 8005160:	4298      	cmp	r0, r3
 8005162:	d1ed      	bne.n	8005140 <find_volume.isra.0+0x74>
 8005164:	2600      	movs	r6, #0
			fmt = bsect ? check_fs(fs, bsect) : 2;	/* Check the partition */
 8005166:	2702      	movs	r7, #2
			bsect = br[i];
 8005168:	00b3      	lsls	r3, r6, #2
 800516a:	aa06      	add	r2, sp, #24
 800516c:	58d3      	ldr	r3, [r2, r3]
			fmt = bsect ? check_fs(fs, bsect) : 2;	/* Check the partition */
 800516e:	0038      	movs	r0, r7
			bsect = br[i];
 8005170:	9301      	str	r3, [sp, #4]
			fmt = bsect ? check_fs(fs, bsect) : 2;	/* Check the partition */
 8005172:	2b00      	cmp	r3, #0
 8005174:	d005      	beq.n	8005182 <find_volume.isra.0+0xb6>
 8005176:	0019      	movs	r1, r3
 8005178:	0020      	movs	r0, r4
 800517a:	f7ff ff6d 	bl	8005058 <check_fs>
		} while (!LD2PT(vol) && fmt && ++i < 4);
 800517e:	2800      	cmp	r0, #0
 8005180:	d00d      	beq.n	800519e <find_volume.isra.0+0xd2>
 8005182:	3601      	adds	r6, #1
 8005184:	2e04      	cmp	r6, #4
 8005186:	d1ef      	bne.n	8005168 <find_volume.isra.0+0x9c>
	if (fmt == 3) return FR_DISK_ERR;		/* An error occured in the disk I/O layer */
 8005188:	2803      	cmp	r0, #3
 800518a:	d106      	bne.n	800519a <find_volume.isra.0+0xce>
 800518c:	e7bf      	b.n	800510e <find_volume.isra.0+0x42>
 800518e:	2803      	cmp	r0, #3
 8005190:	d100      	bne.n	8005194 <find_volume.isra.0+0xc8>
 8005192:	e095      	b.n	80052c0 <find_volume.isra.0+0x1f4>
	bsect = 0;
 8005194:	9701      	str	r7, [sp, #4]
	if (fmt) return FR_NO_FILESYSTEM;		/* No FAT volume is found */
 8005196:	2800      	cmp	r0, #0
 8005198:	d001      	beq.n	800519e <find_volume.isra.0+0xd2>
 800519a:	250d      	movs	r5, #13
 800519c:	e7b7      	b.n	800510e <find_volume.isra.0+0x42>
	if (LD_WORD(fs->win + BPB_BytsPerSec) != SS(fs))	/* (BPB_BytsPerSec must be equal to the physical sector size) */
 800519e:	0023      	movs	r3, r4
 80051a0:	3334      	adds	r3, #52	; 0x34
 80051a2:	781a      	ldrb	r2, [r3, #0]
 80051a4:	3b01      	subs	r3, #1
 80051a6:	781b      	ldrb	r3, [r3, #0]
 80051a8:	0212      	lsls	r2, r2, #8
 80051aa:	4313      	orrs	r3, r2
 80051ac:	2280      	movs	r2, #128	; 0x80
 80051ae:	b21b      	sxth	r3, r3
 80051b0:	0092      	lsls	r2, r2, #2
 80051b2:	4293      	cmp	r3, r2
 80051b4:	d1f1      	bne.n	800519a <find_volume.isra.0+0xce>
	fasize = LD_WORD(fs->win + BPB_FATSz16);			/* Number of sectors per FAT */
 80051b6:	0023      	movs	r3, r4
 80051b8:	0022      	movs	r2, r4
 80051ba:	333f      	adds	r3, #63	; 0x3f
 80051bc:	781b      	ldrb	r3, [r3, #0]
 80051be:	323e      	adds	r2, #62	; 0x3e
 80051c0:	7817      	ldrb	r7, [r2, #0]
 80051c2:	021b      	lsls	r3, r3, #8
 80051c4:	431f      	orrs	r7, r3
	if (!fasize) fasize = LD_DWORD(fs->win + BPB_FATSz32);
 80051c6:	d100      	bne.n	80051ca <find_volume.isra.0+0xfe>
 80051c8:	6ce7      	ldr	r7, [r4, #76]	; 0x4c
	fs->n_fats = fs->win[BPB_NumFATs];					/* Number of FAT copies */
 80051ca:	0023      	movs	r3, r4
	fs->fsize = fasize;
 80051cc:	6127      	str	r7, [r4, #16]
	fs->n_fats = fs->win[BPB_NumFATs];					/* Number of FAT copies */
 80051ce:	3338      	adds	r3, #56	; 0x38
 80051d0:	781a      	ldrb	r2, [r3, #0]
	if (fs->n_fats != 1 && fs->n_fats != 2)				/* (Must be 1 or 2) */
 80051d2:	1e53      	subs	r3, r2, #1
	fs->n_fats = fs->win[BPB_NumFATs];					/* Number of FAT copies */
 80051d4:	70e2      	strb	r2, [r4, #3]
	if (fs->n_fats != 1 && fs->n_fats != 2)				/* (Must be 1 or 2) */
 80051d6:	2b01      	cmp	r3, #1
 80051d8:	d8df      	bhi.n	800519a <find_volume.isra.0+0xce>
	fs->csize = fs->win[BPB_SecPerClus];				/* Number of sectors per cluster */
 80051da:	0023      	movs	r3, r4
 80051dc:	3335      	adds	r3, #53	; 0x35
 80051de:	781e      	ldrb	r6, [r3, #0]
 80051e0:	70a6      	strb	r6, [r4, #2]
	if (!fs->csize || (fs->csize & (fs->csize - 1)))	/* (Must be power of 2) */
 80051e2:	2e00      	cmp	r6, #0
 80051e4:	d0d9      	beq.n	800519a <find_volume.isra.0+0xce>
 80051e6:	1e73      	subs	r3, r6, #1
 80051e8:	421e      	tst	r6, r3
 80051ea:	d1d6      	bne.n	800519a <find_volume.isra.0+0xce>
	fs->n_rootdir = LD_WORD(fs->win + BPB_RootEntCnt);	/* Number of root directory entries */
 80051ec:	0023      	movs	r3, r4
 80051ee:	333a      	adds	r3, #58	; 0x3a
 80051f0:	781d      	ldrb	r5, [r3, #0]
 80051f2:	3b01      	subs	r3, #1
 80051f4:	781b      	ldrb	r3, [r3, #0]
 80051f6:	022d      	lsls	r5, r5, #8
 80051f8:	431d      	orrs	r5, r3
 80051fa:	8125      	strh	r5, [r4, #8]
	if (fs->n_rootdir % (SS(fs) / SZ_DIRE))				/* (Must be sector aligned) */
 80051fc:	072b      	lsls	r3, r5, #28
 80051fe:	d1cc      	bne.n	800519a <find_volume.isra.0+0xce>
	tsect = LD_WORD(fs->win + BPB_TotSec16);			/* Number of sectors on the volume */
 8005200:	0023      	movs	r3, r4
 8005202:	333c      	adds	r3, #60	; 0x3c
 8005204:	7819      	ldrb	r1, [r3, #0]
 8005206:	3b01      	subs	r3, #1
 8005208:	781b      	ldrb	r3, [r3, #0]
 800520a:	0209      	lsls	r1, r1, #8
 800520c:	430b      	orrs	r3, r1
	if (!tsect) tsect = LD_DWORD(fs->win + BPB_TotSec32);
 800520e:	d100      	bne.n	8005212 <find_volume.isra.0+0x146>
 8005210:	6ca3      	ldr	r3, [r4, #72]	; 0x48
	nrsv = LD_WORD(fs->win + BPB_RsvdSecCnt);			/* Number of reserved sectors */
 8005212:	0021      	movs	r1, r4
 8005214:	0020      	movs	r0, r4
 8005216:	3137      	adds	r1, #55	; 0x37
 8005218:	7809      	ldrb	r1, [r1, #0]
 800521a:	3036      	adds	r0, #54	; 0x36
 800521c:	7800      	ldrb	r0, [r0, #0]
 800521e:	0209      	lsls	r1, r1, #8
 8005220:	4308      	orrs	r0, r1
 8005222:	9002      	str	r0, [sp, #8]
	if (!nrsv) return FR_NO_FILESYSTEM;					/* (Must not be 0) */
 8005224:	d0b9      	beq.n	800519a <find_volume.isra.0+0xce>
	fasize *= fs->n_fats;								/* Number of sectors for FAT area */
 8005226:	437a      	muls	r2, r7
 8005228:	9204      	str	r2, [sp, #16]
	sysect = nrsv + fasize + fs->n_rootdir / (SS(fs) / SZ_DIRE);	/* RSV + FAT + DIR */
 800522a:	9904      	ldr	r1, [sp, #16]
 800522c:	092a      	lsrs	r2, r5, #4
 800522e:	1812      	adds	r2, r2, r0
 8005230:	1852      	adds	r2, r2, r1
 8005232:	9203      	str	r2, [sp, #12]
	if (tsect < sysect) return FR_NO_FILESYSTEM;		/* (Invalid volume size) */
 8005234:	429a      	cmp	r2, r3
 8005236:	d8b0      	bhi.n	800519a <find_volume.isra.0+0xce>
	nclst = (tsect - sysect) / fs->csize;				/* Number of clusters */
 8005238:	1a9b      	subs	r3, r3, r2
 800523a:	0018      	movs	r0, r3
 800523c:	0031      	movs	r1, r6
 800523e:	9305      	str	r3, [sp, #20]
 8005240:	f7fa ff6c 	bl	800011c <__udivsi3>
	if (!nclst) return FR_NO_FILESYSTEM;				/* (Invalid volume size) */
 8005244:	9b05      	ldr	r3, [sp, #20]
 8005246:	42b3      	cmp	r3, r6
 8005248:	d3a7      	bcc.n	800519a <find_volume.isra.0+0xce>
	if (nclst >= MIN_FAT16) fmt = FS_FAT16;
 800524a:	4a20      	ldr	r2, [pc, #128]	; (80052cc <find_volume.isra.0+0x200>)
	fmt = FS_FAT12;
 800524c:	2301      	movs	r3, #1
	if (nclst >= MIN_FAT16) fmt = FS_FAT16;
 800524e:	4290      	cmp	r0, r2
 8005250:	d904      	bls.n	800525c <find_volume.isra.0+0x190>
	if (nclst >= MIN_FAT32) fmt = FS_FAT32;
 8005252:	4b1f      	ldr	r3, [pc, #124]	; (80052d0 <find_volume.isra.0+0x204>)
 8005254:	4283      	cmp	r3, r0
 8005256:	419b      	sbcs	r3, r3
 8005258:	425b      	negs	r3, r3
 800525a:	3302      	adds	r3, #2
	fs->fatbase = bsect + nrsv; 						/* FAT start sector */
 800525c:	9901      	ldr	r1, [sp, #4]
	fs->volbase = bsect;								/* Volume start sector */
 800525e:	9a01      	ldr	r2, [sp, #4]
	fs->fatbase = bsect + nrsv; 						/* FAT start sector */
 8005260:	468c      	mov	ip, r1
	fs->volbase = bsect;								/* Volume start sector */
 8005262:	6162      	str	r2, [r4, #20]
	fs->database = bsect + sysect;						/* Data start sector */
 8005264:	9903      	ldr	r1, [sp, #12]
	fs->fatbase = bsect + nrsv; 						/* FAT start sector */
 8005266:	9a02      	ldr	r2, [sp, #8]
	fs->n_fatent = nclst + 2;							/* Number of FAT entries */
 8005268:	3002      	adds	r0, #2
	fs->fatbase = bsect + nrsv; 						/* FAT start sector */
 800526a:	4462      	add	r2, ip
	fs->database = bsect + sysect;						/* Data start sector */
 800526c:	4461      	add	r1, ip
	fs->n_fatent = nclst + 2;							/* Number of FAT entries */
 800526e:	60e0      	str	r0, [r4, #12]
	fs->fatbase = bsect + nrsv; 						/* FAT start sector */
 8005270:	61a2      	str	r2, [r4, #24]
	fs->database = bsect + sysect;						/* Data start sector */
 8005272:	6221      	str	r1, [r4, #32]
	if (fmt == FS_FAT32) {
 8005274:	2b03      	cmp	r3, #3
 8005276:	d112      	bne.n	800529e <find_volume.isra.0+0x1d2>
		if (fs->n_rootdir) return FR_NO_FILESYSTEM;		/* (BPB_RootEntCnt must be 0) */
 8005278:	2d00      	cmp	r5, #0
 800527a:	d18e      	bne.n	800519a <find_volume.isra.0+0xce>
		fs->dirbase = LD_DWORD(fs->win + BPB_RootClus);	/* Root directory start cluster */
 800527c:	6d62      	ldr	r2, [r4, #84]	; 0x54
		szbfat = fs->n_fatent * 4;						/* (Needed FAT size) */
 800527e:	0080      	lsls	r0, r0, #2
		fs->dirbase = LD_DWORD(fs->win + BPB_RootClus);	/* Root directory start cluster */
 8005280:	61e2      	str	r2, [r4, #28]
	if (fs->fsize < (szbfat + (SS(fs) - 1)) / SS(fs))	/* (BPB_FATSz must not be less than the size needed) */
 8005282:	4a14      	ldr	r2, [pc, #80]	; (80052d4 <find_volume.isra.0+0x208>)
 8005284:	1880      	adds	r0, r0, r2
 8005286:	0a40      	lsrs	r0, r0, #9
 8005288:	4287      	cmp	r7, r0
 800528a:	d386      	bcc.n	800519a <find_volume.isra.0+0xce>
	fs->id = ++Fsid;	/* File system mount ID */
 800528c:	4a12      	ldr	r2, [pc, #72]	; (80052d8 <find_volume.isra.0+0x20c>)
	fs->fs_type = fmt;	/* FAT sub-type */
 800528e:	7023      	strb	r3, [r4, #0]
	fs->id = ++Fsid;	/* File system mount ID */
 8005290:	8813      	ldrh	r3, [r2, #0]
	return FR_OK;
 8005292:	2500      	movs	r5, #0
	fs->id = ++Fsid;	/* File system mount ID */
 8005294:	3301      	adds	r3, #1
 8005296:	b29b      	uxth	r3, r3
 8005298:	8013      	strh	r3, [r2, #0]
 800529a:	80e3      	strh	r3, [r4, #6]
	return FR_OK;
 800529c:	e737      	b.n	800510e <find_volume.isra.0+0x42>
		if (!fs->n_rootdir)	return FR_NO_FILESYSTEM;	/* (BPB_RootEntCnt must not be 0) */
 800529e:	2d00      	cmp	r5, #0
 80052a0:	d100      	bne.n	80052a4 <find_volume.isra.0+0x1d8>
 80052a2:	e77a      	b.n	800519a <find_volume.isra.0+0xce>
		fs->dirbase = fs->fatbase + fasize;				/* Root directory start sector */
 80052a4:	9904      	ldr	r1, [sp, #16]
 80052a6:	188a      	adds	r2, r1, r2
 80052a8:	61e2      	str	r2, [r4, #28]
			fs->n_fatent * 2 : fs->n_fatent * 3 / 2 + (fs->n_fatent & 1);
 80052aa:	2b02      	cmp	r3, #2
 80052ac:	d101      	bne.n	80052b2 <find_volume.isra.0+0x1e6>
 80052ae:	0040      	lsls	r0, r0, #1
 80052b0:	e7e7      	b.n	8005282 <find_volume.isra.0+0x1b6>
 80052b2:	2203      	movs	r2, #3
 80052b4:	2101      	movs	r1, #1
 80052b6:	4342      	muls	r2, r0
 80052b8:	4008      	ands	r0, r1
 80052ba:	0852      	lsrs	r2, r2, #1
 80052bc:	1810      	adds	r0, r2, r0
 80052be:	e7e0      	b.n	8005282 <find_volume.isra.0+0x1b6>
	if (fmt == 3) return FR_DISK_ERR;		/* An error occured in the disk I/O layer */
 80052c0:	0035      	movs	r5, r6
 80052c2:	e724      	b.n	800510e <find_volume.isra.0+0x42>
 80052c4:	20000a68 	.word	0x20000a68
 80052c8:	00000226 	.word	0x00000226
 80052cc:	00000ff5 	.word	0x00000ff5
 80052d0:	0000fff5 	.word	0x0000fff5
 80052d4:	000001ff 	.word	0x000001ff
 80052d8:	20000a6c 	.word	0x20000a6c

080052dc <f_mount>:
FRESULT f_mount (
	FATFS* fs,			/* Pointer to the file system object (NULL:unmount)*/
	const TCHAR* path,	/* Logical drive number to be mounted/unmounted */
	BYTE opt			/* 0:Do not mount (delayed mount), 1:Mount immediately */
)
{
 80052dc:	b51f      	push	{r0, r1, r2, r3, r4, lr}
 80052de:	9001      	str	r0, [sp, #4]
	int vol;
	FRESULT res;
	const TCHAR *rp = path;


	vol = get_ldnumber(&rp);
 80052e0:	a803      	add	r0, sp, #12
{
 80052e2:	0014      	movs	r4, r2
 80052e4:	9100      	str	r1, [sp, #0]
	const TCHAR *rp = path;
 80052e6:	9103      	str	r1, [sp, #12]
	vol = get_ldnumber(&rp);
 80052e8:	f7ff fe8a 	bl	8005000 <get_ldnumber>
 80052ec:	0003      	movs	r3, r0
	if (vol < 0) return FR_INVALID_DRIVE;
 80052ee:	200b      	movs	r0, #11
 80052f0:	2b00      	cmp	r3, #0
 80052f2:	db15      	blt.n	8005320 <f_mount+0x44>
	cfs = FatFs[vol];					/* Pointer to fs object */
 80052f4:	490b      	ldr	r1, [pc, #44]	; (8005324 <f_mount+0x48>)
 80052f6:	009b      	lsls	r3, r3, #2
 80052f8:	585a      	ldr	r2, [r3, r1]

	if (cfs) {
 80052fa:	2a00      	cmp	r2, #0
 80052fc:	d001      	beq.n	8005302 <f_mount+0x26>
		clear_lock(cfs);
#endif
#if _FS_REENTRANT						/* Discard sync object of the current volume */
		if (!ff_del_syncobj(cfs->sobj)) return FR_INT_ERR;
#endif
		cfs->fs_type = 0;				/* Clear old fs object */
 80052fe:	2000      	movs	r0, #0
 8005300:	7010      	strb	r0, [r2, #0]
	}

	if (fs) {
 8005302:	9a01      	ldr	r2, [sp, #4]
 8005304:	2a00      	cmp	r2, #0
 8005306:	d001      	beq.n	800530c <f_mount+0x30>
		fs->fs_type = 0;				/* Clear new fs object */
 8005308:	2000      	movs	r0, #0
 800530a:	7010      	strb	r0, [r2, #0]
		if (!ff_cre_syncobj((BYTE)vol, &fs->sobj)) return FR_INT_ERR;
#endif
	}
	FatFs[vol] = fs;					/* Register new fs object */

	if (!fs || opt != 1) return FR_OK;	/* Do not mount now, it will be mounted later */
 800530c:	1e10      	subs	r0, r2, #0
	FatFs[vol] = fs;					/* Register new fs object */
 800530e:	50ca      	str	r2, [r1, r3]
	if (!fs || opt != 1) return FR_OK;	/* Do not mount now, it will be mounted later */
 8005310:	d006      	beq.n	8005320 <f_mount+0x44>
 8005312:	2000      	movs	r0, #0
 8005314:	2c01      	cmp	r4, #1
 8005316:	d103      	bne.n	8005320 <f_mount+0x44>

	res = find_volume(&fs, &path, 0);	/* Force mounted the volume */
 8005318:	4669      	mov	r1, sp
 800531a:	a801      	add	r0, sp, #4
 800531c:	f7ff fed6 	bl	80050cc <find_volume.isra.0>
	LEAVE_FF(fs, res);
}
 8005320:	b004      	add	sp, #16
 8005322:	bd10      	pop	{r4, pc}
 8005324:	20000a68 	.word	0x20000a68

08005328 <MX_TOUCHSENSING_Init>:
/* USER CODE BEGIN 2 */
/* USER CODE END 2 */

/* TOUCHSENSING init function */
void MX_TOUCHSENSING_Init(void)
{
 8005328:	b510      	push	{r4, lr}
/***************************************/
   /**
  */

  tsl_user_Init();
 800532a:	f000 f803 	bl	8005334 <tsl_user_Init>

  /* USER CODE BEGIN 3 */
  /* USER CODE END 3 */

}
 800532e:	bd10      	pop	{r4, pc}

08005330 <MyTKeys_OffStateProcess>:
 8005330:	4770      	bx	lr

08005332 <MyTKeys_ErrorStateProcess>:
 8005332:	4770      	bx	lr

08005334 <tsl_user_Init>:
  * @brief  Initialize the STMTouch Driver
  * @param  None
  * @retval None
  */
void tsl_user_Init(void)
{
 8005334:	b510      	push	{r4, lr}
  TSL_obj_GroupInit(&MyObjGroup); /* Init Objects */
 8005336:	4803      	ldr	r0, [pc, #12]	; (8005344 <tsl_user_Init+0x10>)
 8005338:	f7ff f874 	bl	8004424 <TSL_obj_GroupInit>

  TSL_Init(MyBanks); /* Init acquisition module */
 800533c:	4802      	ldr	r0, [pc, #8]	; (8005348 <tsl_user_Init+0x14>)
 800533e:	f7fe fe45 	bl	8003fcc <TSL_Init>

  tsl_user_SetThresholds(); /* Init thresholds for each object individually (optional) */
}
 8005342:	bd10      	pop	{r4, pc}
 8005344:	20000004 	.word	0x20000004
 8005348:	080057b0 	.word	0x080057b0

0800534c <tsl_user_Exec>:
  * @brief  Execute STMTouch Driver main State machine
  * @param  None
  * @retval status Return TSL_STATUS_OK if the acquisition is done
  */
tsl_user_status_t tsl_user_Exec(void)
{
 800534c:	b570      	push	{r4, r5, r6, lr}
  static uint32_t idx_bank = 0;
  static uint32_t config_done = 0;
  tsl_user_status_t status = TSL_USER_STATUS_BUSY;

  /* Configure and start bank acquisition */
  if (!config_done)
 800534e:	4e1c      	ldr	r6, [pc, #112]	; (80053c0 <tsl_user_Exec+0x74>)
 8005350:	4c1c      	ldr	r4, [pc, #112]	; (80053c4 <tsl_user_Exec+0x78>)
 8005352:	6833      	ldr	r3, [r6, #0]
 8005354:	2b00      	cmp	r3, #0
 8005356:	d107      	bne.n	8005368 <tsl_user_Exec+0x1c>
  {
/* USER CODE BEGIN not config_done start*/

/* USER CODE END not config_done start*/
    TSL_acq_BankConfig(idx_bank);
 8005358:	6823      	ldr	r3, [r4, #0]
 800535a:	b2d8      	uxtb	r0, r3
 800535c:	f7fe fef0 	bl	8004140 <TSL_acq_BankConfig>
    TSL_acq_BankStartAcq();
 8005360:	f7fe ff4e 	bl	8004200 <TSL_acq_BankStartAcq>
    config_done = 1;
 8005364:	2301      	movs	r3, #1
 8005366:	6033      	str	r3, [r6, #0]

/* USER CODE END not config_done */
  }

  /* Check end of acquisition (polling mode) and read result */
  if (TSL_acq_BankWaitEOC() == TSL_STATUS_OK)
 8005368:	f7fe ff24 	bl	80041b4 <TSL_acq_BankWaitEOC>
 800536c:	1e05      	subs	r5, r0, #0
 800536e:	d109      	bne.n	8005384 <tsl_user_Exec+0x38>
  {
/* USER CODE BEGIN end of acquisition start*/

/* USER CODE END end of acquisition start*/
    STMSTUDIO_LOCK;
    TSL_acq_BankGetResult(idx_bank, 0, 0);
 8005370:	6823      	ldr	r3, [r4, #0]
 8005372:	002a      	movs	r2, r5
 8005374:	b2d8      	uxtb	r0, r3
 8005376:	0029      	movs	r1, r5
 8005378:	f7fe fe40 	bl	8003ffc <TSL_acq_BankGetResult>
    STMSTUDIO_UNLOCK;
    idx_bank++; /* Next bank */
 800537c:	6823      	ldr	r3, [r4, #0]
    config_done = 0;
 800537e:	6035      	str	r5, [r6, #0]
    idx_bank++; /* Next bank */
 8005380:	3301      	adds	r3, #1
 8005382:	6023      	str	r3, [r4, #0]
  }

  /* Process objects, DxS and ECS
     Check if all banks have been acquired
  */
  if (idx_bank > TSLPRM_TOTAL_BANKS-1)
 8005384:	6823      	ldr	r3, [r4, #0]
 8005386:	2000      	movs	r0, #0
 8005388:	2b02      	cmp	r3, #2
 800538a:	d917      	bls.n	80053bc <tsl_user_Exec+0x70>
  {
/* USER CODE BEGIN before reset*/

/* USER CODE END before reset*/
    /* Reset flags for next banks acquisition */
    idx_bank = 0;
 800538c:	6020      	str	r0, [r4, #0]
    config_done = 0;

    /* Process Objects */
    TSL_obj_GroupProcess(&MyObjGroup);
 800538e:	4c0e      	ldr	r4, [pc, #56]	; (80053c8 <tsl_user_Exec+0x7c>)
    config_done = 0;
 8005390:	6030      	str	r0, [r6, #0]
    TSL_obj_GroupProcess(&MyObjGroup);
 8005392:	0020      	movs	r0, r4
 8005394:	f7ff f874 	bl	8004480 <TSL_obj_GroupProcess>

    /* DxS processing (if TSLPRM_USE_DXS option is set) */
    TSL_dxs_FirstObj(&MyObjGroup);
 8005398:	0020      	movs	r0, r4
 800539a:	f7fe ff47 	bl	800422c <TSL_dxs_FirstObj>

    /* ECS every TSLPRM_ECS_DELAY (in ms) */
    if (TSL_tim_CheckDelay_ms(TSLPRM_ECS_DELAY, &ECSLastTick) == TSL_STATUS_OK)
 800539e:	20fa      	movs	r0, #250	; 0xfa
 80053a0:	490a      	ldr	r1, [pc, #40]	; (80053cc <tsl_user_Exec+0x80>)
 80053a2:	0040      	lsls	r0, r0, #1
 80053a4:	f7ff f8b6 	bl	8004514 <TSL_tim_CheckDelay_ms>
 80053a8:	0003      	movs	r3, r0
        status = TSL_USER_STATUS_OK_ECS_OFF;
      }
    }
    else
    {
      status = TSL_USER_STATUS_OK_NO_ECS;
 80053aa:	2001      	movs	r0, #1
    if (TSL_tim_CheckDelay_ms(TSLPRM_ECS_DELAY, &ECSLastTick) == TSL_STATUS_OK)
 80053ac:	2b00      	cmp	r3, #0
 80053ae:	d105      	bne.n	80053bc <tsl_user_Exec+0x70>
      if (TSL_ecs_Process(&MyObjGroup) == TSL_STATUS_OK)
 80053b0:	0020      	movs	r0, r4
 80053b2:	f7fe ffed 	bl	8004390 <TSL_ecs_Process>
        status = TSL_USER_STATUS_OK_ECS_OFF;
 80053b6:	1e43      	subs	r3, r0, #1
 80053b8:	4198      	sbcs	r0, r3
 80053ba:	3002      	adds	r0, #2

/* USER CODE END TSL_USER_STATUS_BUSY */
  }

  return status;
}
 80053bc:	bd70      	pop	{r4, r5, r6, pc}
 80053be:	46c0      	nop			; (mov r8, r8)
 80053c0:	20000a70 	.word	0x20000a70
 80053c4:	20000a74 	.word	0x20000a74
 80053c8:	20000004 	.word	0x20000004
 80053cc:	20000c78 	.word	0x20000c78

080053d0 <_ZdlPv>:
 80053d0:	b510      	push	{r4, lr}
 80053d2:	f000 f85b 	bl	800548c <free>
 80053d6:	bd10      	pop	{r4, pc}

080053d8 <_Znwj>:
 80053d8:	b510      	push	{r4, lr}
 80053da:	1e04      	subs	r4, r0, #0
 80053dc:	d100      	bne.n	80053e0 <_Znwj+0x8>
 80053de:	3401      	adds	r4, #1
 80053e0:	0020      	movs	r0, r4
 80053e2:	f000 f849 	bl	8005478 <malloc>
 80053e6:	2800      	cmp	r0, #0
 80053e8:	d107      	bne.n	80053fa <_Znwj+0x22>
 80053ea:	f000 f80d 	bl	8005408 <_ZSt15get_new_handlerv>
 80053ee:	2800      	cmp	r0, #0
 80053f0:	d101      	bne.n	80053f6 <_Znwj+0x1e>
 80053f2:	f000 f80f 	bl	8005414 <abort>
 80053f6:	4780      	blx	r0
 80053f8:	e7f2      	b.n	80053e0 <_Znwj+0x8>
 80053fa:	bd10      	pop	{r4, pc}

080053fc <_ZSt17__throw_bad_allocv>:
 80053fc:	b510      	push	{r4, lr}
 80053fe:	f000 f809 	bl	8005414 <abort>

08005402 <_ZSt20__throw_length_errorPKc>:
 8005402:	b510      	push	{r4, lr}
 8005404:	f000 f806 	bl	8005414 <abort>

08005408 <_ZSt15get_new_handlerv>:
 8005408:	4b01      	ldr	r3, [pc, #4]	; (8005410 <_ZSt15get_new_handlerv+0x8>)
 800540a:	6818      	ldr	r0, [r3, #0]
 800540c:	4770      	bx	lr
 800540e:	46c0      	nop			; (mov r8, r8)
 8005410:	20000a78 	.word	0x20000a78

08005414 <abort>:
 8005414:	2006      	movs	r0, #6
 8005416:	b510      	push	{r4, lr}
 8005418:	f000 f94a 	bl	80056b0 <raise>
 800541c:	2001      	movs	r0, #1
 800541e:	f7fd f8d1 	bl	80025c4 <_exit>
	...

08005424 <__errno>:
 8005424:	4b01      	ldr	r3, [pc, #4]	; (800542c <__errno+0x8>)
 8005426:	6818      	ldr	r0, [r3, #0]
 8005428:	4770      	bx	lr
 800542a:	46c0      	nop			; (mov r8, r8)
 800542c:	20000024 	.word	0x20000024

08005430 <__libc_init_array>:
 8005430:	b570      	push	{r4, r5, r6, lr}
 8005432:	2600      	movs	r6, #0
 8005434:	4d0c      	ldr	r5, [pc, #48]	; (8005468 <__libc_init_array+0x38>)
 8005436:	4c0d      	ldr	r4, [pc, #52]	; (800546c <__libc_init_array+0x3c>)
 8005438:	1b64      	subs	r4, r4, r5
 800543a:	10a4      	asrs	r4, r4, #2
 800543c:	42a6      	cmp	r6, r4
 800543e:	d109      	bne.n	8005454 <__libc_init_array+0x24>
 8005440:	2600      	movs	r6, #0
 8005442:	f000 f967 	bl	8005714 <_init>
 8005446:	4d0a      	ldr	r5, [pc, #40]	; (8005470 <__libc_init_array+0x40>)
 8005448:	4c0a      	ldr	r4, [pc, #40]	; (8005474 <__libc_init_array+0x44>)
 800544a:	1b64      	subs	r4, r4, r5
 800544c:	10a4      	asrs	r4, r4, #2
 800544e:	42a6      	cmp	r6, r4
 8005450:	d105      	bne.n	800545e <__libc_init_array+0x2e>
 8005452:	bd70      	pop	{r4, r5, r6, pc}
 8005454:	00b3      	lsls	r3, r6, #2
 8005456:	58eb      	ldr	r3, [r5, r3]
 8005458:	4798      	blx	r3
 800545a:	3601      	adds	r6, #1
 800545c:	e7ee      	b.n	800543c <__libc_init_array+0xc>
 800545e:	00b3      	lsls	r3, r6, #2
 8005460:	58eb      	ldr	r3, [r5, r3]
 8005462:	4798      	blx	r3
 8005464:	3601      	adds	r6, #1
 8005466:	e7f2      	b.n	800544e <__libc_init_array+0x1e>
 8005468:	08005bd0 	.word	0x08005bd0
 800546c:	08005bd0 	.word	0x08005bd0
 8005470:	08005bd0 	.word	0x08005bd0
 8005474:	08005bd8 	.word	0x08005bd8

08005478 <malloc>:
 8005478:	b510      	push	{r4, lr}
 800547a:	4b03      	ldr	r3, [pc, #12]	; (8005488 <malloc+0x10>)
 800547c:	0001      	movs	r1, r0
 800547e:	6818      	ldr	r0, [r3, #0]
 8005480:	f000 f87c 	bl	800557c <_malloc_r>
 8005484:	bd10      	pop	{r4, pc}
 8005486:	46c0      	nop			; (mov r8, r8)
 8005488:	20000024 	.word	0x20000024

0800548c <free>:
 800548c:	b510      	push	{r4, lr}
 800548e:	4b03      	ldr	r3, [pc, #12]	; (800549c <free+0x10>)
 8005490:	0001      	movs	r1, r0
 8005492:	6818      	ldr	r0, [r3, #0]
 8005494:	f000 f828 	bl	80054e8 <_free_r>
 8005498:	bd10      	pop	{r4, pc}
 800549a:	46c0      	nop			; (mov r8, r8)
 800549c:	20000024 	.word	0x20000024

080054a0 <memcpy>:
 80054a0:	2300      	movs	r3, #0
 80054a2:	b510      	push	{r4, lr}
 80054a4:	429a      	cmp	r2, r3
 80054a6:	d100      	bne.n	80054aa <memcpy+0xa>
 80054a8:	bd10      	pop	{r4, pc}
 80054aa:	5ccc      	ldrb	r4, [r1, r3]
 80054ac:	54c4      	strb	r4, [r0, r3]
 80054ae:	3301      	adds	r3, #1
 80054b0:	e7f8      	b.n	80054a4 <memcpy+0x4>

080054b2 <memmove>:
 80054b2:	b510      	push	{r4, lr}
 80054b4:	4288      	cmp	r0, r1
 80054b6:	d902      	bls.n	80054be <memmove+0xc>
 80054b8:	188b      	adds	r3, r1, r2
 80054ba:	4298      	cmp	r0, r3
 80054bc:	d303      	bcc.n	80054c6 <memmove+0x14>
 80054be:	2300      	movs	r3, #0
 80054c0:	e007      	b.n	80054d2 <memmove+0x20>
 80054c2:	5c8b      	ldrb	r3, [r1, r2]
 80054c4:	5483      	strb	r3, [r0, r2]
 80054c6:	3a01      	subs	r2, #1
 80054c8:	d2fb      	bcs.n	80054c2 <memmove+0x10>
 80054ca:	bd10      	pop	{r4, pc}
 80054cc:	5ccc      	ldrb	r4, [r1, r3]
 80054ce:	54c4      	strb	r4, [r0, r3]
 80054d0:	3301      	adds	r3, #1
 80054d2:	429a      	cmp	r2, r3
 80054d4:	d1fa      	bne.n	80054cc <memmove+0x1a>
 80054d6:	e7f8      	b.n	80054ca <memmove+0x18>

080054d8 <memset>:
 80054d8:	0003      	movs	r3, r0
 80054da:	1882      	adds	r2, r0, r2
 80054dc:	4293      	cmp	r3, r2
 80054de:	d100      	bne.n	80054e2 <memset+0xa>
 80054e0:	4770      	bx	lr
 80054e2:	7019      	strb	r1, [r3, #0]
 80054e4:	3301      	adds	r3, #1
 80054e6:	e7f9      	b.n	80054dc <memset+0x4>

080054e8 <_free_r>:
 80054e8:	b570      	push	{r4, r5, r6, lr}
 80054ea:	0005      	movs	r5, r0
 80054ec:	2900      	cmp	r1, #0
 80054ee:	d010      	beq.n	8005512 <_free_r+0x2a>
 80054f0:	1f0c      	subs	r4, r1, #4
 80054f2:	6823      	ldr	r3, [r4, #0]
 80054f4:	2b00      	cmp	r3, #0
 80054f6:	da00      	bge.n	80054fa <_free_r+0x12>
 80054f8:	18e4      	adds	r4, r4, r3
 80054fa:	0028      	movs	r0, r5
 80054fc:	f000 f8f8 	bl	80056f0 <__malloc_lock>
 8005500:	4a1d      	ldr	r2, [pc, #116]	; (8005578 <_free_r+0x90>)
 8005502:	6813      	ldr	r3, [r2, #0]
 8005504:	2b00      	cmp	r3, #0
 8005506:	d105      	bne.n	8005514 <_free_r+0x2c>
 8005508:	6063      	str	r3, [r4, #4]
 800550a:	6014      	str	r4, [r2, #0]
 800550c:	0028      	movs	r0, r5
 800550e:	f000 f8f7 	bl	8005700 <__malloc_unlock>
 8005512:	bd70      	pop	{r4, r5, r6, pc}
 8005514:	42a3      	cmp	r3, r4
 8005516:	d908      	bls.n	800552a <_free_r+0x42>
 8005518:	6821      	ldr	r1, [r4, #0]
 800551a:	1860      	adds	r0, r4, r1
 800551c:	4283      	cmp	r3, r0
 800551e:	d1f3      	bne.n	8005508 <_free_r+0x20>
 8005520:	6818      	ldr	r0, [r3, #0]
 8005522:	685b      	ldr	r3, [r3, #4]
 8005524:	1841      	adds	r1, r0, r1
 8005526:	6021      	str	r1, [r4, #0]
 8005528:	e7ee      	b.n	8005508 <_free_r+0x20>
 800552a:	001a      	movs	r2, r3
 800552c:	685b      	ldr	r3, [r3, #4]
 800552e:	2b00      	cmp	r3, #0
 8005530:	d001      	beq.n	8005536 <_free_r+0x4e>
 8005532:	42a3      	cmp	r3, r4
 8005534:	d9f9      	bls.n	800552a <_free_r+0x42>
 8005536:	6811      	ldr	r1, [r2, #0]
 8005538:	1850      	adds	r0, r2, r1
 800553a:	42a0      	cmp	r0, r4
 800553c:	d10b      	bne.n	8005556 <_free_r+0x6e>
 800553e:	6820      	ldr	r0, [r4, #0]
 8005540:	1809      	adds	r1, r1, r0
 8005542:	1850      	adds	r0, r2, r1
 8005544:	6011      	str	r1, [r2, #0]
 8005546:	4283      	cmp	r3, r0
 8005548:	d1e0      	bne.n	800550c <_free_r+0x24>
 800554a:	6818      	ldr	r0, [r3, #0]
 800554c:	685b      	ldr	r3, [r3, #4]
 800554e:	1841      	adds	r1, r0, r1
 8005550:	6011      	str	r1, [r2, #0]
 8005552:	6053      	str	r3, [r2, #4]
 8005554:	e7da      	b.n	800550c <_free_r+0x24>
 8005556:	42a0      	cmp	r0, r4
 8005558:	d902      	bls.n	8005560 <_free_r+0x78>
 800555a:	230c      	movs	r3, #12
 800555c:	602b      	str	r3, [r5, #0]
 800555e:	e7d5      	b.n	800550c <_free_r+0x24>
 8005560:	6821      	ldr	r1, [r4, #0]
 8005562:	1860      	adds	r0, r4, r1
 8005564:	4283      	cmp	r3, r0
 8005566:	d103      	bne.n	8005570 <_free_r+0x88>
 8005568:	6818      	ldr	r0, [r3, #0]
 800556a:	685b      	ldr	r3, [r3, #4]
 800556c:	1841      	adds	r1, r0, r1
 800556e:	6021      	str	r1, [r4, #0]
 8005570:	6063      	str	r3, [r4, #4]
 8005572:	6054      	str	r4, [r2, #4]
 8005574:	e7ca      	b.n	800550c <_free_r+0x24>
 8005576:	46c0      	nop			; (mov r8, r8)
 8005578:	20000a7c 	.word	0x20000a7c

0800557c <_malloc_r>:
 800557c:	b5f8      	push	{r3, r4, r5, r6, r7, lr}
 800557e:	2303      	movs	r3, #3
 8005580:	1ccd      	adds	r5, r1, #3
 8005582:	439d      	bics	r5, r3
 8005584:	3508      	adds	r5, #8
 8005586:	0006      	movs	r6, r0
 8005588:	2d0c      	cmp	r5, #12
 800558a:	d21f      	bcs.n	80055cc <_malloc_r+0x50>
 800558c:	250c      	movs	r5, #12
 800558e:	42a9      	cmp	r1, r5
 8005590:	d81e      	bhi.n	80055d0 <_malloc_r+0x54>
 8005592:	0030      	movs	r0, r6
 8005594:	f000 f8ac 	bl	80056f0 <__malloc_lock>
 8005598:	4925      	ldr	r1, [pc, #148]	; (8005630 <_malloc_r+0xb4>)
 800559a:	680a      	ldr	r2, [r1, #0]
 800559c:	0014      	movs	r4, r2
 800559e:	2c00      	cmp	r4, #0
 80055a0:	d11a      	bne.n	80055d8 <_malloc_r+0x5c>
 80055a2:	4f24      	ldr	r7, [pc, #144]	; (8005634 <_malloc_r+0xb8>)
 80055a4:	683b      	ldr	r3, [r7, #0]
 80055a6:	2b00      	cmp	r3, #0
 80055a8:	d104      	bne.n	80055b4 <_malloc_r+0x38>
 80055aa:	0021      	movs	r1, r4
 80055ac:	0030      	movs	r0, r6
 80055ae:	f000 f843 	bl	8005638 <_sbrk_r>
 80055b2:	6038      	str	r0, [r7, #0]
 80055b4:	0029      	movs	r1, r5
 80055b6:	0030      	movs	r0, r6
 80055b8:	f000 f83e 	bl	8005638 <_sbrk_r>
 80055bc:	1c43      	adds	r3, r0, #1
 80055be:	d12b      	bne.n	8005618 <_malloc_r+0x9c>
 80055c0:	230c      	movs	r3, #12
 80055c2:	0030      	movs	r0, r6
 80055c4:	6033      	str	r3, [r6, #0]
 80055c6:	f000 f89b 	bl	8005700 <__malloc_unlock>
 80055ca:	e003      	b.n	80055d4 <_malloc_r+0x58>
 80055cc:	2d00      	cmp	r5, #0
 80055ce:	dade      	bge.n	800558e <_malloc_r+0x12>
 80055d0:	230c      	movs	r3, #12
 80055d2:	6033      	str	r3, [r6, #0]
 80055d4:	2000      	movs	r0, #0
 80055d6:	bdf8      	pop	{r3, r4, r5, r6, r7, pc}
 80055d8:	6823      	ldr	r3, [r4, #0]
 80055da:	1b5b      	subs	r3, r3, r5
 80055dc:	d419      	bmi.n	8005612 <_malloc_r+0x96>
 80055de:	2b0b      	cmp	r3, #11
 80055e0:	d903      	bls.n	80055ea <_malloc_r+0x6e>
 80055e2:	6023      	str	r3, [r4, #0]
 80055e4:	18e4      	adds	r4, r4, r3
 80055e6:	6025      	str	r5, [r4, #0]
 80055e8:	e003      	b.n	80055f2 <_malloc_r+0x76>
 80055ea:	6863      	ldr	r3, [r4, #4]
 80055ec:	42a2      	cmp	r2, r4
 80055ee:	d10e      	bne.n	800560e <_malloc_r+0x92>
 80055f0:	600b      	str	r3, [r1, #0]
 80055f2:	0030      	movs	r0, r6
 80055f4:	f000 f884 	bl	8005700 <__malloc_unlock>
 80055f8:	0020      	movs	r0, r4
 80055fa:	2207      	movs	r2, #7
 80055fc:	300b      	adds	r0, #11
 80055fe:	1d23      	adds	r3, r4, #4
 8005600:	4390      	bics	r0, r2
 8005602:	1ac2      	subs	r2, r0, r3
 8005604:	4298      	cmp	r0, r3
 8005606:	d0e6      	beq.n	80055d6 <_malloc_r+0x5a>
 8005608:	1a1b      	subs	r3, r3, r0
 800560a:	50a3      	str	r3, [r4, r2]
 800560c:	e7e3      	b.n	80055d6 <_malloc_r+0x5a>
 800560e:	6053      	str	r3, [r2, #4]
 8005610:	e7ef      	b.n	80055f2 <_malloc_r+0x76>
 8005612:	0022      	movs	r2, r4
 8005614:	6864      	ldr	r4, [r4, #4]
 8005616:	e7c2      	b.n	800559e <_malloc_r+0x22>
 8005618:	2303      	movs	r3, #3
 800561a:	1cc4      	adds	r4, r0, #3
 800561c:	439c      	bics	r4, r3
 800561e:	42a0      	cmp	r0, r4
 8005620:	d0e1      	beq.n	80055e6 <_malloc_r+0x6a>
 8005622:	1a21      	subs	r1, r4, r0
 8005624:	0030      	movs	r0, r6
 8005626:	f000 f807 	bl	8005638 <_sbrk_r>
 800562a:	1c43      	adds	r3, r0, #1
 800562c:	d1db      	bne.n	80055e6 <_malloc_r+0x6a>
 800562e:	e7c7      	b.n	80055c0 <_malloc_r+0x44>
 8005630:	20000a7c 	.word	0x20000a7c
 8005634:	20000a80 	.word	0x20000a80

08005638 <_sbrk_r>:
 8005638:	2300      	movs	r3, #0
 800563a:	b570      	push	{r4, r5, r6, lr}
 800563c:	4d06      	ldr	r5, [pc, #24]	; (8005658 <_sbrk_r+0x20>)
 800563e:	0004      	movs	r4, r0
 8005640:	0008      	movs	r0, r1
 8005642:	602b      	str	r3, [r5, #0]
 8005644:	f7fc ffc4 	bl	80025d0 <_sbrk>
 8005648:	1c43      	adds	r3, r0, #1
 800564a:	d103      	bne.n	8005654 <_sbrk_r+0x1c>
 800564c:	682b      	ldr	r3, [r5, #0]
 800564e:	2b00      	cmp	r3, #0
 8005650:	d000      	beq.n	8005654 <_sbrk_r+0x1c>
 8005652:	6023      	str	r3, [r4, #0]
 8005654:	bd70      	pop	{r4, r5, r6, pc}
 8005656:	46c0      	nop			; (mov r8, r8)
 8005658:	20000cdc 	.word	0x20000cdc

0800565c <_raise_r>:
 800565c:	b570      	push	{r4, r5, r6, lr}
 800565e:	0004      	movs	r4, r0
 8005660:	000d      	movs	r5, r1
 8005662:	291f      	cmp	r1, #31
 8005664:	d904      	bls.n	8005670 <_raise_r+0x14>
 8005666:	2316      	movs	r3, #22
 8005668:	6003      	str	r3, [r0, #0]
 800566a:	2001      	movs	r0, #1
 800566c:	4240      	negs	r0, r0
 800566e:	bd70      	pop	{r4, r5, r6, pc}
 8005670:	6c43      	ldr	r3, [r0, #68]	; 0x44
 8005672:	2b00      	cmp	r3, #0
 8005674:	d004      	beq.n	8005680 <_raise_r+0x24>
 8005676:	008a      	lsls	r2, r1, #2
 8005678:	189b      	adds	r3, r3, r2
 800567a:	681a      	ldr	r2, [r3, #0]
 800567c:	2a00      	cmp	r2, #0
 800567e:	d108      	bne.n	8005692 <_raise_r+0x36>
 8005680:	0020      	movs	r0, r4
 8005682:	f000 f831 	bl	80056e8 <_getpid_r>
 8005686:	002a      	movs	r2, r5
 8005688:	0001      	movs	r1, r0
 800568a:	0020      	movs	r0, r4
 800568c:	f000 f81a 	bl	80056c4 <_kill_r>
 8005690:	e7ed      	b.n	800566e <_raise_r+0x12>
 8005692:	2000      	movs	r0, #0
 8005694:	2a01      	cmp	r2, #1
 8005696:	d0ea      	beq.n	800566e <_raise_r+0x12>
 8005698:	1c51      	adds	r1, r2, #1
 800569a:	d103      	bne.n	80056a4 <_raise_r+0x48>
 800569c:	2316      	movs	r3, #22
 800569e:	3001      	adds	r0, #1
 80056a0:	6023      	str	r3, [r4, #0]
 80056a2:	e7e4      	b.n	800566e <_raise_r+0x12>
 80056a4:	2400      	movs	r4, #0
 80056a6:	0028      	movs	r0, r5
 80056a8:	601c      	str	r4, [r3, #0]
 80056aa:	4790      	blx	r2
 80056ac:	0020      	movs	r0, r4
 80056ae:	e7de      	b.n	800566e <_raise_r+0x12>

080056b0 <raise>:
 80056b0:	b510      	push	{r4, lr}
 80056b2:	4b03      	ldr	r3, [pc, #12]	; (80056c0 <raise+0x10>)
 80056b4:	0001      	movs	r1, r0
 80056b6:	6818      	ldr	r0, [r3, #0]
 80056b8:	f7ff ffd0 	bl	800565c <_raise_r>
 80056bc:	bd10      	pop	{r4, pc}
 80056be:	46c0      	nop			; (mov r8, r8)
 80056c0:	20000024 	.word	0x20000024

080056c4 <_kill_r>:
 80056c4:	2300      	movs	r3, #0
 80056c6:	b570      	push	{r4, r5, r6, lr}
 80056c8:	4d06      	ldr	r5, [pc, #24]	; (80056e4 <_kill_r+0x20>)
 80056ca:	0004      	movs	r4, r0
 80056cc:	0008      	movs	r0, r1
 80056ce:	0011      	movs	r1, r2
 80056d0:	602b      	str	r3, [r5, #0]
 80056d2:	f7fc ff6f 	bl	80025b4 <_kill>
 80056d6:	1c43      	adds	r3, r0, #1
 80056d8:	d103      	bne.n	80056e2 <_kill_r+0x1e>
 80056da:	682b      	ldr	r3, [r5, #0]
 80056dc:	2b00      	cmp	r3, #0
 80056de:	d000      	beq.n	80056e2 <_kill_r+0x1e>
 80056e0:	6023      	str	r3, [r4, #0]
 80056e2:	bd70      	pop	{r4, r5, r6, pc}
 80056e4:	20000cdc 	.word	0x20000cdc

080056e8 <_getpid_r>:
 80056e8:	b510      	push	{r4, lr}
 80056ea:	f7fc ff61 	bl	80025b0 <_getpid>
 80056ee:	bd10      	pop	{r4, pc}

080056f0 <__malloc_lock>:
 80056f0:	b510      	push	{r4, lr}
 80056f2:	4802      	ldr	r0, [pc, #8]	; (80056fc <__malloc_lock+0xc>)
 80056f4:	f000 f80c 	bl	8005710 <__retarget_lock_acquire_recursive>
 80056f8:	bd10      	pop	{r4, pc}
 80056fa:	46c0      	nop			; (mov r8, r8)
 80056fc:	20000ce4 	.word	0x20000ce4

08005700 <__malloc_unlock>:
 8005700:	b510      	push	{r4, lr}
 8005702:	4802      	ldr	r0, [pc, #8]	; (800570c <__malloc_unlock+0xc>)
 8005704:	f000 f805 	bl	8005712 <__retarget_lock_release_recursive>
 8005708:	bd10      	pop	{r4, pc}
 800570a:	46c0      	nop			; (mov r8, r8)
 800570c:	20000ce4 	.word	0x20000ce4

08005710 <__retarget_lock_acquire_recursive>:
 8005710:	4770      	bx	lr

08005712 <__retarget_lock_release_recursive>:
 8005712:	4770      	bx	lr

08005714 <_init>:
 8005714:	b5f8      	push	{r3, r4, r5, r6, r7, lr}
 8005716:	46c0      	nop			; (mov r8, r8)
 8005718:	bcf8      	pop	{r3, r4, r5, r6, r7}
 800571a:	bc08      	pop	{r3}
 800571c:	469e      	mov	lr, r3
 800571e:	4770      	bx	lr

08005720 <_fini>:
 8005720:	b5f8      	push	{r3, r4, r5, r6, r7, lr}
 8005722:	46c0      	nop			; (mov r8, r8)
 8005724:	bcf8      	pop	{r3, r4, r5, r6, r7}
 8005726:	bc08      	pop	{r3}
 8005728:	469e      	mov	lr, r3
 800572a:	4770      	bx	lr
