
SpaceCenter.elf:     file format elf32-littlearm

Sections:
Idx Name          Size      VMA       LMA       File off  Algn
  0 .isr_vector   000000c0  08000000  08000000  00010000  2**0
                  CONTENTS, ALLOC, LOAD, READONLY, DATA
  1 .text         00005304  080000c0  080000c0  000100c0  2**2
                  CONTENTS, ALLOC, LOAD, READONLY, CODE
  2 .rodata       00000084  080053c4  080053c4  000153c4  2**2
                  CONTENTS, ALLOC, LOAD, READONLY, DATA
  3 .ARM.extab    00000000  08005448  08005448  000200f0  2**0
                  CONTENTS
  4 .ARM          00000008  08005448  08005448  00015448  2**2
                  CONTENTS, ALLOC, LOAD, READONLY, DATA
  5 .preinit_array 00000000  08005450  08005450  000200f0  2**0
                  CONTENTS, ALLOC, LOAD, DATA
  6 .init_array   00000008  08005450  08005450  00015450  2**2
                  CONTENTS, ALLOC, LOAD, DATA
  7 .fini_array   00000008  08005458  08005458  00015458  2**2
                  CONTENTS, ALLOC, LOAD, DATA
  8 .data         000000f0  20000000  08005460  00020000  2**2
                  CONTENTS, ALLOC, LOAD, DATA
  9 .bss          00000d0c  200000f0  08005550  000200f0  2**2
                  ALLOC
 10 ._user_heap_stack 00000604  20000dfc  08005550  00020dfc  2**0
                  ALLOC
 11 .ARM.attributes 00000028  00000000  00000000  000200f0  2**0
                  CONTENTS, READONLY
 12 .comment      00000043  00000000  00000000  00020118  2**0
                  CONTENTS, READONLY
 13 .debug_info   0001f256  00000000  00000000  0002015b  2**0
                  CONTENTS, READONLY, DEBUGGING, OCTETS
 14 .debug_abbrev 0000492c  00000000  00000000  0003f3b1  2**0
                  CONTENTS, READONLY, DEBUGGING, OCTETS
 15 .debug_aranges 00001200  00000000  00000000  00043ce0  2**3
                  CONTENTS, READONLY, DEBUGGING, OCTETS
 16 .debug_rnglists 0000116d  00000000  00000000  00044ee0  2**0
                  CONTENTS, READONLY, DEBUGGING, OCTETS
 17 .debug_macro  0001960b  00000000  00000000  0004604d  2**0
                  CONTENTS, READONLY, DEBUGGING, OCTETS
 18 .debug_line   0001862f  00000000  00000000  0005f658  2**0
                  CONTENTS, READONLY, DEBUGGING, OCTETS
 19 .debug_str    000905e1  00000000  00000000  00077c87  2**0
                  CONTENTS, READONLY, DEBUGGING, OCTETS
 20 .debug_frame  0000435c  00000000  00000000  00108268  2**2
                  CONTENTS, READONLY, DEBUGGING, OCTETS
 21 .debug_loclists 0000819d  00000000  00000000  0010c5c4  2**0
                  CONTENTS, READONLY, DEBUGGING, OCTETS
 22 .debug_line_str 0000005f  00000000  00000000  00114761  2**0
                  CONTENTS, READONLY, DEBUGGING, OCTETS

Disassembly of section .text:

080000c0 <__do_global_dtors_aux>:
 80000c0:	b510      	push	{r4, lr}
 80000c2:	4c06      	ldr	r4, [pc, #24]	; (80000dc <__do_global_dtors_aux+0x1c>)
 80000c4:	7823      	ldrb	r3, [r4, #0]
 80000c6:	2b00      	cmp	r3, #0
 80000c8:	d107      	bne.n	80000da <__do_global_dtors_aux+0x1a>
 80000ca:	4b05      	ldr	r3, [pc, #20]	; (80000e0 <__do_global_dtors_aux+0x20>)
 80000cc:	2b00      	cmp	r3, #0
 80000ce:	d002      	beq.n	80000d6 <__do_global_dtors_aux+0x16>
 80000d0:	4804      	ldr	r0, [pc, #16]	; (80000e4 <__do_global_dtors_aux+0x24>)
 80000d2:	e000      	b.n	80000d6 <__do_global_dtors_aux+0x16>
 80000d4:	bf00      	nop
 80000d6:	2301      	movs	r3, #1
 80000d8:	7023      	strb	r3, [r4, #0]
 80000da:	bd10      	pop	{r4, pc}
 80000dc:	200000f0 	.word	0x200000f0
 80000e0:	00000000 	.word	0x00000000
 80000e4:	080053ac 	.word	0x080053ac

080000e8 <frame_dummy>:
 80000e8:	4b04      	ldr	r3, [pc, #16]	; (80000fc <frame_dummy+0x14>)
 80000ea:	b510      	push	{r4, lr}
 80000ec:	2b00      	cmp	r3, #0
 80000ee:	d003      	beq.n	80000f8 <frame_dummy+0x10>
 80000f0:	4903      	ldr	r1, [pc, #12]	; (8000100 <frame_dummy+0x18>)
 80000f2:	4804      	ldr	r0, [pc, #16]	; (8000104 <frame_dummy+0x1c>)
 80000f4:	e000      	b.n	80000f8 <frame_dummy+0x10>
 80000f6:	bf00      	nop
 80000f8:	bd10      	pop	{r4, pc}
 80000fa:	46c0      	nop			; (mov r8, r8)
 80000fc:	00000000 	.word	0x00000000
 8000100:	200000f4 	.word	0x200000f4
 8000104:	080053ac 	.word	0x080053ac

08000108 <__udivsi3>:
 8000108:	2200      	movs	r2, #0
 800010a:	0843      	lsrs	r3, r0, #1
 800010c:	428b      	cmp	r3, r1
 800010e:	d374      	bcc.n	80001fa <__udivsi3+0xf2>
 8000110:	0903      	lsrs	r3, r0, #4
 8000112:	428b      	cmp	r3, r1
 8000114:	d35f      	bcc.n	80001d6 <__udivsi3+0xce>
 8000116:	0a03      	lsrs	r3, r0, #8
 8000118:	428b      	cmp	r3, r1
 800011a:	d344      	bcc.n	80001a6 <__udivsi3+0x9e>
 800011c:	0b03      	lsrs	r3, r0, #12
 800011e:	428b      	cmp	r3, r1
 8000120:	d328      	bcc.n	8000174 <__udivsi3+0x6c>
 8000122:	0c03      	lsrs	r3, r0, #16
 8000124:	428b      	cmp	r3, r1
 8000126:	d30d      	bcc.n	8000144 <__udivsi3+0x3c>
 8000128:	22ff      	movs	r2, #255	; 0xff
 800012a:	0209      	lsls	r1, r1, #8
 800012c:	ba12      	rev	r2, r2
 800012e:	0c03      	lsrs	r3, r0, #16
 8000130:	428b      	cmp	r3, r1
 8000132:	d302      	bcc.n	800013a <__udivsi3+0x32>
 8000134:	1212      	asrs	r2, r2, #8
 8000136:	0209      	lsls	r1, r1, #8
 8000138:	d065      	beq.n	8000206 <__udivsi3+0xfe>
 800013a:	0b03      	lsrs	r3, r0, #12
 800013c:	428b      	cmp	r3, r1
 800013e:	d319      	bcc.n	8000174 <__udivsi3+0x6c>
 8000140:	e000      	b.n	8000144 <__udivsi3+0x3c>
 8000142:	0a09      	lsrs	r1, r1, #8
 8000144:	0bc3      	lsrs	r3, r0, #15
 8000146:	428b      	cmp	r3, r1
 8000148:	d301      	bcc.n	800014e <__udivsi3+0x46>
 800014a:	03cb      	lsls	r3, r1, #15
 800014c:	1ac0      	subs	r0, r0, r3
 800014e:	4152      	adcs	r2, r2
 8000150:	0b83      	lsrs	r3, r0, #14
 8000152:	428b      	cmp	r3, r1
 8000154:	d301      	bcc.n	800015a <__udivsi3+0x52>
 8000156:	038b      	lsls	r3, r1, #14
 8000158:	1ac0      	subs	r0, r0, r3
 800015a:	4152      	adcs	r2, r2
 800015c:	0b43      	lsrs	r3, r0, #13
 800015e:	428b      	cmp	r3, r1
 8000160:	d301      	bcc.n	8000166 <__udivsi3+0x5e>
 8000162:	034b      	lsls	r3, r1, #13
 8000164:	1ac0      	subs	r0, r0, r3
 8000166:	4152      	adcs	r2, r2
 8000168:	0b03      	lsrs	r3, r0, #12
 800016a:	428b      	cmp	r3, r1
 800016c:	d301      	bcc.n	8000172 <__udivsi3+0x6a>
 800016e:	030b      	lsls	r3, r1, #12
 8000170:	1ac0      	subs	r0, r0, r3
 8000172:	4152      	adcs	r2, r2
 8000174:	0ac3      	lsrs	r3, r0, #11
 8000176:	428b      	cmp	r3, r1
 8000178:	d301      	bcc.n	800017e <__udivsi3+0x76>
 800017a:	02cb      	lsls	r3, r1, #11
 800017c:	1ac0      	subs	r0, r0, r3
 800017e:	4152      	adcs	r2, r2
 8000180:	0a83      	lsrs	r3, r0, #10
 8000182:	428b      	cmp	r3, r1
 8000184:	d301      	bcc.n	800018a <__udivsi3+0x82>
 8000186:	028b      	lsls	r3, r1, #10
 8000188:	1ac0      	subs	r0, r0, r3
 800018a:	4152      	adcs	r2, r2
 800018c:	0a43      	lsrs	r3, r0, #9
 800018e:	428b      	cmp	r3, r1
 8000190:	d301      	bcc.n	8000196 <__udivsi3+0x8e>
 8000192:	024b      	lsls	r3, r1, #9
 8000194:	1ac0      	subs	r0, r0, r3
 8000196:	4152      	adcs	r2, r2
 8000198:	0a03      	lsrs	r3, r0, #8
 800019a:	428b      	cmp	r3, r1
 800019c:	d301      	bcc.n	80001a2 <__udivsi3+0x9a>
 800019e:	020b      	lsls	r3, r1, #8
 80001a0:	1ac0      	subs	r0, r0, r3
 80001a2:	4152      	adcs	r2, r2
 80001a4:	d2cd      	bcs.n	8000142 <__udivsi3+0x3a>
 80001a6:	09c3      	lsrs	r3, r0, #7
 80001a8:	428b      	cmp	r3, r1
 80001aa:	d301      	bcc.n	80001b0 <__udivsi3+0xa8>
 80001ac:	01cb      	lsls	r3, r1, #7
 80001ae:	1ac0      	subs	r0, r0, r3
 80001b0:	4152      	adcs	r2, r2
 80001b2:	0983      	lsrs	r3, r0, #6
 80001b4:	428b      	cmp	r3, r1
 80001b6:	d301      	bcc.n	80001bc <__udivsi3+0xb4>
 80001b8:	018b      	lsls	r3, r1, #6
 80001ba:	1ac0      	subs	r0, r0, r3
 80001bc:	4152      	adcs	r2, r2
 80001be:	0943      	lsrs	r3, r0, #5
 80001c0:	428b      	cmp	r3, r1
 80001c2:	d301      	bcc.n	80001c8 <__udivsi3+0xc0>
 80001c4:	014b      	lsls	r3, r1, #5
 80001c6:	1ac0      	subs	r0, r0, r3
 80001c8:	4152      	adcs	r2, r2
 80001ca:	0903      	lsrs	r3, r0, #4
 80001cc:	428b      	cmp	r3, r1
 80001ce:	d301      	bcc.n	80001d4 <__udivsi3+0xcc>
 80001d0:	010b      	lsls	r3, r1, #4
 80001d2:	1ac0      	subs	r0, r0, r3
 80001d4:	4152      	adcs	r2, r2
 80001d6:	08c3      	lsrs	r3, r0, #3
 80001d8:	428b      	cmp	r3, r1
 80001da:	d301      	bcc.n	80001e0 <__udivsi3+0xd8>
 80001dc:	00cb      	lsls	r3, r1, #3
 80001de:	1ac0      	subs	r0, r0, r3
 80001e0:	4152      	adcs	r2, r2
 80001e2:	0883      	lsrs	r3, r0, #2
 80001e4:	428b      	cmp	r3, r1
 80001e6:	d301      	bcc.n	80001ec <__udivsi3+0xe4>
 80001e8:	008b      	lsls	r3, r1, #2
 80001ea:	1ac0      	subs	r0, r0, r3
 80001ec:	4152      	adcs	r2, r2
 80001ee:	0843      	lsrs	r3, r0, #1
 80001f0:	428b      	cmp	r3, r1
 80001f2:	d301      	bcc.n	80001f8 <__udivsi3+0xf0>
 80001f4:	004b      	lsls	r3, r1, #1
 80001f6:	1ac0      	subs	r0, r0, r3
 80001f8:	4152      	adcs	r2, r2
 80001fa:	1a41      	subs	r1, r0, r1
 80001fc:	d200      	bcs.n	8000200 <__udivsi3+0xf8>
 80001fe:	4601      	mov	r1, r0
 8000200:	4152      	adcs	r2, r2
 8000202:	4610      	mov	r0, r2
 8000204:	4770      	bx	lr
 8000206:	e7ff      	b.n	8000208 <__udivsi3+0x100>
 8000208:	b501      	push	{r0, lr}
 800020a:	2000      	movs	r0, #0
 800020c:	f000 f806 	bl	800021c <__aeabi_idiv0>
 8000210:	bd02      	pop	{r1, pc}
 8000212:	46c0      	nop			; (mov r8, r8)

08000214 <__aeabi_uidivmod>:
 8000214:	2900      	cmp	r1, #0
 8000216:	d0f7      	beq.n	8000208 <__udivsi3+0x100>
 8000218:	e776      	b.n	8000108 <__udivsi3>
 800021a:	4770      	bx	lr

0800021c <__aeabi_idiv0>:
 800021c:	4770      	bx	lr
 800021e:	46c0      	nop			; (mov r8, r8)

08000220 <__aeabi_uldivmod>:
 8000220:	2b00      	cmp	r3, #0
 8000222:	d111      	bne.n	8000248 <__aeabi_uldivmod+0x28>
 8000224:	2a00      	cmp	r2, #0
 8000226:	d10f      	bne.n	8000248 <__aeabi_uldivmod+0x28>
 8000228:	2900      	cmp	r1, #0
 800022a:	d100      	bne.n	800022e <__aeabi_uldivmod+0xe>
 800022c:	2800      	cmp	r0, #0
 800022e:	d002      	beq.n	8000236 <__aeabi_uldivmod+0x16>
 8000230:	2100      	movs	r1, #0
 8000232:	43c9      	mvns	r1, r1
 8000234:	0008      	movs	r0, r1
 8000236:	b407      	push	{r0, r1, r2}
 8000238:	4802      	ldr	r0, [pc, #8]	; (8000244 <__aeabi_uldivmod+0x24>)
 800023a:	a102      	add	r1, pc, #8	; (adr r1, 8000244 <__aeabi_uldivmod+0x24>)
 800023c:	1840      	adds	r0, r0, r1
 800023e:	9002      	str	r0, [sp, #8]
 8000240:	bd03      	pop	{r0, r1, pc}
 8000242:	46c0      	nop			; (mov r8, r8)
 8000244:	ffffffd9 	.word	0xffffffd9
 8000248:	b403      	push	{r0, r1}
 800024a:	4668      	mov	r0, sp
 800024c:	b501      	push	{r0, lr}
 800024e:	9802      	ldr	r0, [sp, #8]
 8000250:	f000 f834 	bl	80002bc <__udivmoddi4>
 8000254:	9b01      	ldr	r3, [sp, #4]
 8000256:	469e      	mov	lr, r3
 8000258:	b002      	add	sp, #8
 800025a:	bc0c      	pop	{r2, r3}
 800025c:	4770      	bx	lr
 800025e:	46c0      	nop			; (mov r8, r8)

08000260 <__aeabi_lmul>:
 8000260:	b5f0      	push	{r4, r5, r6, r7, lr}
 8000262:	46ce      	mov	lr, r9
 8000264:	4699      	mov	r9, r3
 8000266:	0c03      	lsrs	r3, r0, #16
 8000268:	469c      	mov	ip, r3
 800026a:	0413      	lsls	r3, r2, #16
 800026c:	4647      	mov	r7, r8
 800026e:	0c1b      	lsrs	r3, r3, #16
 8000270:	001d      	movs	r5, r3
 8000272:	000e      	movs	r6, r1
 8000274:	4661      	mov	r1, ip
 8000276:	0404      	lsls	r4, r0, #16
 8000278:	0c24      	lsrs	r4, r4, #16
 800027a:	b580      	push	{r7, lr}
 800027c:	0007      	movs	r7, r0
 800027e:	0c10      	lsrs	r0, r2, #16
 8000280:	434b      	muls	r3, r1
 8000282:	4365      	muls	r5, r4
 8000284:	4341      	muls	r1, r0
 8000286:	4360      	muls	r0, r4
 8000288:	0c2c      	lsrs	r4, r5, #16
 800028a:	18c0      	adds	r0, r0, r3
 800028c:	1820      	adds	r0, r4, r0
 800028e:	468c      	mov	ip, r1
 8000290:	4283      	cmp	r3, r0
 8000292:	d903      	bls.n	800029c <__aeabi_lmul+0x3c>
 8000294:	2380      	movs	r3, #128	; 0x80
 8000296:	025b      	lsls	r3, r3, #9
 8000298:	4698      	mov	r8, r3
 800029a:	44c4      	add	ip, r8
 800029c:	4649      	mov	r1, r9
 800029e:	4379      	muls	r1, r7
 80002a0:	4356      	muls	r6, r2
 80002a2:	0c03      	lsrs	r3, r0, #16
 80002a4:	042d      	lsls	r5, r5, #16
 80002a6:	0c2d      	lsrs	r5, r5, #16
 80002a8:	1989      	adds	r1, r1, r6
 80002aa:	4463      	add	r3, ip
 80002ac:	0400      	lsls	r0, r0, #16
 80002ae:	1940      	adds	r0, r0, r5
 80002b0:	18c9      	adds	r1, r1, r3
 80002b2:	bcc0      	pop	{r6, r7}
 80002b4:	46b9      	mov	r9, r7
 80002b6:	46b0      	mov	r8, r6
 80002b8:	bdf0      	pop	{r4, r5, r6, r7, pc}
 80002ba:	46c0      	nop			; (mov r8, r8)

080002bc <__udivmoddi4>:
 80002bc:	b5f0      	push	{r4, r5, r6, r7, lr}
 80002be:	4657      	mov	r7, sl
 80002c0:	464e      	mov	r6, r9
 80002c2:	4645      	mov	r5, r8
 80002c4:	46de      	mov	lr, fp
 80002c6:	b5e0      	push	{r5, r6, r7, lr}
 80002c8:	0004      	movs	r4, r0
 80002ca:	000d      	movs	r5, r1
 80002cc:	4692      	mov	sl, r2
 80002ce:	4699      	mov	r9, r3
 80002d0:	b083      	sub	sp, #12
 80002d2:	428b      	cmp	r3, r1
 80002d4:	d830      	bhi.n	8000338 <__udivmoddi4+0x7c>
 80002d6:	d02d      	beq.n	8000334 <__udivmoddi4+0x78>
 80002d8:	4649      	mov	r1, r9
 80002da:	4650      	mov	r0, sl
 80002dc:	f000 f8ba 	bl	8000454 <__clzdi2>
 80002e0:	0029      	movs	r1, r5
 80002e2:	0006      	movs	r6, r0
 80002e4:	0020      	movs	r0, r4
 80002e6:	f000 f8b5 	bl	8000454 <__clzdi2>
 80002ea:	1a33      	subs	r3, r6, r0
 80002ec:	4698      	mov	r8, r3
 80002ee:	3b20      	subs	r3, #32
 80002f0:	d434      	bmi.n	800035c <__udivmoddi4+0xa0>
 80002f2:	469b      	mov	fp, r3
 80002f4:	4653      	mov	r3, sl
 80002f6:	465a      	mov	r2, fp
 80002f8:	4093      	lsls	r3, r2
 80002fa:	4642      	mov	r2, r8
 80002fc:	001f      	movs	r7, r3
 80002fe:	4653      	mov	r3, sl
 8000300:	4093      	lsls	r3, r2
 8000302:	001e      	movs	r6, r3
 8000304:	42af      	cmp	r7, r5
 8000306:	d83b      	bhi.n	8000380 <__udivmoddi4+0xc4>
 8000308:	42af      	cmp	r7, r5
 800030a:	d100      	bne.n	800030e <__udivmoddi4+0x52>
 800030c:	e079      	b.n	8000402 <__udivmoddi4+0x146>
 800030e:	465b      	mov	r3, fp
 8000310:	1ba4      	subs	r4, r4, r6
 8000312:	41bd      	sbcs	r5, r7
 8000314:	2b00      	cmp	r3, #0
 8000316:	da00      	bge.n	800031a <__udivmoddi4+0x5e>
 8000318:	e076      	b.n	8000408 <__udivmoddi4+0x14c>
 800031a:	2200      	movs	r2, #0
 800031c:	2300      	movs	r3, #0
 800031e:	9200      	str	r2, [sp, #0]
 8000320:	9301      	str	r3, [sp, #4]
 8000322:	2301      	movs	r3, #1
 8000324:	465a      	mov	r2, fp
 8000326:	4093      	lsls	r3, r2
 8000328:	9301      	str	r3, [sp, #4]
 800032a:	2301      	movs	r3, #1
 800032c:	4642      	mov	r2, r8
 800032e:	4093      	lsls	r3, r2
 8000330:	9300      	str	r3, [sp, #0]
 8000332:	e029      	b.n	8000388 <__udivmoddi4+0xcc>
 8000334:	4282      	cmp	r2, r0
 8000336:	d9cf      	bls.n	80002d8 <__udivmoddi4+0x1c>
 8000338:	2200      	movs	r2, #0
 800033a:	2300      	movs	r3, #0
 800033c:	9200      	str	r2, [sp, #0]
 800033e:	9301      	str	r3, [sp, #4]
 8000340:	9b0c      	ldr	r3, [sp, #48]	; 0x30
 8000342:	2b00      	cmp	r3, #0
 8000344:	d001      	beq.n	800034a <__udivmoddi4+0x8e>
 8000346:	601c      	str	r4, [r3, #0]
 8000348:	605d      	str	r5, [r3, #4]
 800034a:	9800      	ldr	r0, [sp, #0]
 800034c:	9901      	ldr	r1, [sp, #4]
 800034e:	b003      	add	sp, #12
 8000350:	bcf0      	pop	{r4, r5, r6, r7}
 8000352:	46bb      	mov	fp, r7
 8000354:	46b2      	mov	sl, r6
 8000356:	46a9      	mov	r9, r5
 8000358:	46a0      	mov	r8, r4
 800035a:	bdf0      	pop	{r4, r5, r6, r7, pc}
 800035c:	4642      	mov	r2, r8
 800035e:	469b      	mov	fp, r3
 8000360:	2320      	movs	r3, #32
 8000362:	1a9b      	subs	r3, r3, r2
 8000364:	4652      	mov	r2, sl
 8000366:	40da      	lsrs	r2, r3
 8000368:	4641      	mov	r1, r8
 800036a:	0013      	movs	r3, r2
 800036c:	464a      	mov	r2, r9
 800036e:	408a      	lsls	r2, r1
 8000370:	0017      	movs	r7, r2
 8000372:	4642      	mov	r2, r8
 8000374:	431f      	orrs	r7, r3
 8000376:	4653      	mov	r3, sl
 8000378:	4093      	lsls	r3, r2
 800037a:	001e      	movs	r6, r3
 800037c:	42af      	cmp	r7, r5
 800037e:	d9c3      	bls.n	8000308 <__udivmoddi4+0x4c>
 8000380:	2200      	movs	r2, #0
 8000382:	2300      	movs	r3, #0
 8000384:	9200      	str	r2, [sp, #0]
 8000386:	9301      	str	r3, [sp, #4]
 8000388:	4643      	mov	r3, r8
 800038a:	2b00      	cmp	r3, #0
 800038c:	d0d8      	beq.n	8000340 <__udivmoddi4+0x84>
 800038e:	07fb      	lsls	r3, r7, #31
 8000390:	0872      	lsrs	r2, r6, #1
 8000392:	431a      	orrs	r2, r3
 8000394:	4646      	mov	r6, r8
 8000396:	087b      	lsrs	r3, r7, #1
 8000398:	e00e      	b.n	80003b8 <__udivmoddi4+0xfc>
 800039a:	42ab      	cmp	r3, r5
 800039c:	d101      	bne.n	80003a2 <__udivmoddi4+0xe6>
 800039e:	42a2      	cmp	r2, r4
 80003a0:	d80c      	bhi.n	80003bc <__udivmoddi4+0x100>
 80003a2:	1aa4      	subs	r4, r4, r2
 80003a4:	419d      	sbcs	r5, r3
 80003a6:	2001      	movs	r0, #1
 80003a8:	1924      	adds	r4, r4, r4
 80003aa:	416d      	adcs	r5, r5
 80003ac:	2100      	movs	r1, #0
 80003ae:	3e01      	subs	r6, #1
 80003b0:	1824      	adds	r4, r4, r0
 80003b2:	414d      	adcs	r5, r1
 80003b4:	2e00      	cmp	r6, #0
 80003b6:	d006      	beq.n	80003c6 <__udivmoddi4+0x10a>
 80003b8:	42ab      	cmp	r3, r5
 80003ba:	d9ee      	bls.n	800039a <__udivmoddi4+0xde>
 80003bc:	3e01      	subs	r6, #1
 80003be:	1924      	adds	r4, r4, r4
 80003c0:	416d      	adcs	r5, r5
 80003c2:	2e00      	cmp	r6, #0
 80003c4:	d1f8      	bne.n	80003b8 <__udivmoddi4+0xfc>
 80003c6:	9800      	ldr	r0, [sp, #0]
 80003c8:	9901      	ldr	r1, [sp, #4]
 80003ca:	465b      	mov	r3, fp
 80003cc:	1900      	adds	r0, r0, r4
 80003ce:	4169      	adcs	r1, r5
 80003d0:	2b00      	cmp	r3, #0
 80003d2:	db24      	blt.n	800041e <__udivmoddi4+0x162>
 80003d4:	002b      	movs	r3, r5
 80003d6:	465a      	mov	r2, fp
 80003d8:	4644      	mov	r4, r8
 80003da:	40d3      	lsrs	r3, r2
 80003dc:	002a      	movs	r2, r5
 80003de:	40e2      	lsrs	r2, r4
 80003e0:	001c      	movs	r4, r3
 80003e2:	465b      	mov	r3, fp
 80003e4:	0015      	movs	r5, r2
 80003e6:	2b00      	cmp	r3, #0
 80003e8:	db2a      	blt.n	8000440 <__udivmoddi4+0x184>
 80003ea:	0026      	movs	r6, r4
 80003ec:	409e      	lsls	r6, r3
 80003ee:	0033      	movs	r3, r6
 80003f0:	0026      	movs	r6, r4
 80003f2:	4647      	mov	r7, r8
 80003f4:	40be      	lsls	r6, r7
 80003f6:	0032      	movs	r2, r6
 80003f8:	1a80      	subs	r0, r0, r2
 80003fa:	4199      	sbcs	r1, r3
 80003fc:	9000      	str	r0, [sp, #0]
 80003fe:	9101      	str	r1, [sp, #4]
 8000400:	e79e      	b.n	8000340 <__udivmoddi4+0x84>
 8000402:	42a3      	cmp	r3, r4
 8000404:	d8bc      	bhi.n	8000380 <__udivmoddi4+0xc4>
 8000406:	e782      	b.n	800030e <__udivmoddi4+0x52>
 8000408:	4642      	mov	r2, r8
 800040a:	2320      	movs	r3, #32
 800040c:	2100      	movs	r1, #0
 800040e:	1a9b      	subs	r3, r3, r2
 8000410:	2200      	movs	r2, #0
 8000412:	9100      	str	r1, [sp, #0]
 8000414:	9201      	str	r2, [sp, #4]
 8000416:	2201      	movs	r2, #1
 8000418:	40da      	lsrs	r2, r3
 800041a:	9201      	str	r2, [sp, #4]
 800041c:	e785      	b.n	800032a <__udivmoddi4+0x6e>
 800041e:	4642      	mov	r2, r8
 8000420:	2320      	movs	r3, #32
 8000422:	1a9b      	subs	r3, r3, r2
 8000424:	002a      	movs	r2, r5
 8000426:	4646      	mov	r6, r8
 8000428:	409a      	lsls	r2, r3
 800042a:	0023      	movs	r3, r4
 800042c:	40f3      	lsrs	r3, r6
 800042e:	4644      	mov	r4, r8
 8000430:	4313      	orrs	r3, r2
 8000432:	002a      	movs	r2, r5
 8000434:	40e2      	lsrs	r2, r4
 8000436:	001c      	movs	r4, r3
 8000438:	465b      	mov	r3, fp
 800043a:	0015      	movs	r5, r2
 800043c:	2b00      	cmp	r3, #0
 800043e:	dad4      	bge.n	80003ea <__udivmoddi4+0x12e>
 8000440:	4642      	mov	r2, r8
 8000442:	002f      	movs	r7, r5
 8000444:	2320      	movs	r3, #32
 8000446:	0026      	movs	r6, r4
 8000448:	4097      	lsls	r7, r2
 800044a:	1a9b      	subs	r3, r3, r2
 800044c:	40de      	lsrs	r6, r3
 800044e:	003b      	movs	r3, r7
 8000450:	4333      	orrs	r3, r6
 8000452:	e7cd      	b.n	80003f0 <__udivmoddi4+0x134>

08000454 <__clzdi2>:
 8000454:	b510      	push	{r4, lr}
 8000456:	2900      	cmp	r1, #0
 8000458:	d103      	bne.n	8000462 <__clzdi2+0xe>
 800045a:	f000 f807 	bl	800046c <__clzsi2>
 800045e:	3020      	adds	r0, #32
 8000460:	e002      	b.n	8000468 <__clzdi2+0x14>
 8000462:	0008      	movs	r0, r1
 8000464:	f000 f802 	bl	800046c <__clzsi2>
 8000468:	bd10      	pop	{r4, pc}
 800046a:	46c0      	nop			; (mov r8, r8)

0800046c <__clzsi2>:
 800046c:	211c      	movs	r1, #28
 800046e:	2301      	movs	r3, #1
 8000470:	041b      	lsls	r3, r3, #16
 8000472:	4298      	cmp	r0, r3
 8000474:	d301      	bcc.n	800047a <__clzsi2+0xe>
 8000476:	0c00      	lsrs	r0, r0, #16
 8000478:	3910      	subs	r1, #16
 800047a:	0a1b      	lsrs	r3, r3, #8
 800047c:	4298      	cmp	r0, r3
 800047e:	d301      	bcc.n	8000484 <__clzsi2+0x18>
 8000480:	0a00      	lsrs	r0, r0, #8
 8000482:	3908      	subs	r1, #8
 8000484:	091b      	lsrs	r3, r3, #4
 8000486:	4298      	cmp	r0, r3
 8000488:	d301      	bcc.n	800048e <__clzsi2+0x22>
 800048a:	0900      	lsrs	r0, r0, #4
 800048c:	3904      	subs	r1, #4
 800048e:	a202      	add	r2, pc, #8	; (adr r2, 8000498 <__clzsi2+0x2c>)
 8000490:	5c10      	ldrb	r0, [r2, r0]
 8000492:	1840      	adds	r0, r0, r1
 8000494:	4770      	bx	lr
 8000496:	46c0      	nop			; (mov r8, r8)
 8000498:	02020304 	.word	0x02020304
 800049c:	01010101 	.word	0x01010101
	...

080004a8 <_ZN9LedButtonC1EP12GPIO_TypeDeftS1_t>:
#include "LedButton.hpp"

LedButton::LedButton(GPIO_TypeDef* ledGpioIn, uint16_t ledGpioPinIn, 
 80004a8:	b580      	push	{r7, lr}
 80004aa:	b084      	sub	sp, #16
 80004ac:	af00      	add	r7, sp, #0
 80004ae:	60f8      	str	r0, [r7, #12]
 80004b0:	60b9      	str	r1, [r7, #8]
 80004b2:	603b      	str	r3, [r7, #0]
 80004b4:	1dbb      	adds	r3, r7, #6
 80004b6:	801a      	strh	r2, [r3, #0]
                      GPIO_TypeDef* buttonGpioIn, uint16_t buttonGpioPinIn) {
  ledGpio = ledGpioIn;
 80004b8:	68fb      	ldr	r3, [r7, #12]
 80004ba:	68ba      	ldr	r2, [r7, #8]
 80004bc:	601a      	str	r2, [r3, #0]
  ledGpioPin = ledGpioPinIn;
 80004be:	68fb      	ldr	r3, [r7, #12]
 80004c0:	1dba      	adds	r2, r7, #6
 80004c2:	8812      	ldrh	r2, [r2, #0]
 80004c4:	809a      	strh	r2, [r3, #4]
  buttonGpio = buttonGpioIn;
 80004c6:	68fb      	ldr	r3, [r7, #12]
 80004c8:	683a      	ldr	r2, [r7, #0]
 80004ca:	609a      	str	r2, [r3, #8]
  buttonGpioPin = buttonGpioPinIn;
 80004cc:	68fa      	ldr	r2, [r7, #12]
 80004ce:	2318      	movs	r3, #24
 80004d0:	18fb      	adds	r3, r7, r3
 80004d2:	881b      	ldrh	r3, [r3, #0]
 80004d4:	8193      	strh	r3, [r2, #12]
  buttonState = NOT_PRESSED;
 80004d6:	68fb      	ldr	r3, [r7, #12]
 80004d8:	2200      	movs	r2, #0
 80004da:	739a      	strb	r2, [r3, #14]
  ledState = OFF;
 80004dc:	68fb      	ldr	r3, [r7, #12]
 80004de:	2200      	movs	r2, #0
 80004e0:	73da      	strb	r2, [r3, #15]
  timeLast = 0;
 80004e2:	68fb      	ldr	r3, [r7, #12]
 80004e4:	2200      	movs	r2, #0
 80004e6:	611a      	str	r2, [r3, #16]
  debounceButton = false;
 80004e8:	68fb      	ldr	r3, [r7, #12]
 80004ea:	2200      	movs	r2, #0
 80004ec:	751a      	strb	r2, [r3, #20]
}
 80004ee:	68fb      	ldr	r3, [r7, #12]
 80004f0:	0018      	movs	r0, r3
 80004f2:	46bd      	mov	sp, r7
 80004f4:	b004      	add	sp, #16
 80004f6:	bd80      	pop	{r7, pc}

080004f8 <_ZN9LedButtonD1Ev>:

LedButton::~LedButton() {
 80004f8:	b580      	push	{r7, lr}
 80004fa:	b082      	sub	sp, #8
 80004fc:	af00      	add	r7, sp, #0
 80004fe:	6078      	str	r0, [r7, #4]
}
 8000500:	687b      	ldr	r3, [r7, #4]
 8000502:	0018      	movs	r0, r3
 8000504:	46bd      	mov	sp, r7
 8000506:	b002      	add	sp, #8
 8000508:	bd80      	pop	{r7, pc}

0800050a <_ZN9LedButton11setLedStateE13LedState_enum>:

void LedButton::setLedState(LedState_enum state) {
 800050a:	b580      	push	{r7, lr}
 800050c:	b082      	sub	sp, #8
 800050e:	af00      	add	r7, sp, #0
 8000510:	6078      	str	r0, [r7, #4]
 8000512:	000a      	movs	r2, r1
 8000514:	1cfb      	adds	r3, r7, #3
 8000516:	701a      	strb	r2, [r3, #0]
  HAL_GPIO_WritePin(ledGpio, ledGpioPin, static_cast<GPIO_PinState>(state));
 8000518:	687b      	ldr	r3, [r7, #4]
 800051a:	6818      	ldr	r0, [r3, #0]
 800051c:	687b      	ldr	r3, [r7, #4]
 800051e:	8899      	ldrh	r1, [r3, #4]
 8000520:	1cfb      	adds	r3, r7, #3
 8000522:	781b      	ldrb	r3, [r3, #0]
 8000524:	001a      	movs	r2, r3
 8000526:	f002 fd31 	bl	8002f8c <HAL_GPIO_WritePin>
  ledState = state;
 800052a:	687b      	ldr	r3, [r7, #4]
 800052c:	1cfa      	adds	r2, r7, #3
 800052e:	7812      	ldrb	r2, [r2, #0]
 8000530:	73da      	strb	r2, [r3, #15]
}
 8000532:	46c0      	nop			; (mov r8, r8)
 8000534:	46bd      	mov	sp, r7
 8000536:	b002      	add	sp, #8
 8000538:	bd80      	pop	{r7, pc}

0800053a <_ZN9LedButton17updateButtonStateEv>:

LedState_enum LedButton::getLedState() {
  return ledState;
}

void LedButton::updateButtonState() {
 800053a:	b5b0      	push	{r4, r5, r7, lr}
 800053c:	b086      	sub	sp, #24
 800053e:	af00      	add	r7, sp, #0
 8000540:	6078      	str	r0, [r7, #4]
  if (debounceButton == false) {
 8000542:	687b      	ldr	r3, [r7, #4]
 8000544:	7d1b      	ldrb	r3, [r3, #20]
 8000546:	2b00      	cmp	r3, #0
 8000548:	d11f      	bne.n	800058a <_ZN9LedButton17updateButtonStateEv+0x50>
	ButtonState_enum newButtonState = static_cast<ButtonState_enum>(HAL_GPIO_ReadPin(buttonGpio, buttonGpioPin));
 800054a:	687b      	ldr	r3, [r7, #4]
 800054c:	689a      	ldr	r2, [r3, #8]
 800054e:	687b      	ldr	r3, [r7, #4]
 8000550:	899b      	ldrh	r3, [r3, #12]
 8000552:	250f      	movs	r5, #15
 8000554:	197c      	adds	r4, r7, r5
 8000556:	0019      	movs	r1, r3
 8000558:	0010      	movs	r0, r2
 800055a:	f002 fd11 	bl	8002f80 <HAL_GPIO_ReadPin>
 800055e:	0003      	movs	r3, r0
 8000560:	7023      	strb	r3, [r4, #0]
    if (newButtonState != buttonState) {
 8000562:	687b      	ldr	r3, [r7, #4]
 8000564:	7b9b      	ldrb	r3, [r3, #14]
 8000566:	197a      	adds	r2, r7, r5
 8000568:	7812      	ldrb	r2, [r2, #0]
 800056a:	429a      	cmp	r2, r3
 800056c:	d007      	beq.n	800057e <_ZN9LedButton17updateButtonStateEv+0x44>
      debounceButton = true;
 800056e:	687b      	ldr	r3, [r7, #4]
 8000570:	2201      	movs	r2, #1
 8000572:	751a      	strb	r2, [r3, #20]
      timeLast = HAL_GetTick();
 8000574:	f002 fb02 	bl	8002b7c <HAL_GetTick>
 8000578:	0002      	movs	r2, r0
 800057a:	687b      	ldr	r3, [r7, #4]
 800057c:	611a      	str	r2, [r3, #16]
    }
    buttonState = newButtonState;
 800057e:	687b      	ldr	r3, [r7, #4]
 8000580:	220f      	movs	r2, #15
 8000582:	18ba      	adds	r2, r7, r2
 8000584:	7812      	ldrb	r2, [r2, #0]
 8000586:	739a      	strb	r2, [r3, #14]
    uint32_t timeDiff = timeNew - timeLast;
    if (timeDiff >= BUTTON_DEBOUNCE_MS) {
      debounceButton = false;
    }
  }
}
 8000588:	e00e      	b.n	80005a8 <_ZN9LedButton17updateButtonStateEv+0x6e>
    uint32_t timeNew = HAL_GetTick();
 800058a:	f002 faf7 	bl	8002b7c <HAL_GetTick>
 800058e:	0003      	movs	r3, r0
 8000590:	617b      	str	r3, [r7, #20]
    uint32_t timeDiff = timeNew - timeLast;
 8000592:	687b      	ldr	r3, [r7, #4]
 8000594:	691b      	ldr	r3, [r3, #16]
 8000596:	697a      	ldr	r2, [r7, #20]
 8000598:	1ad3      	subs	r3, r2, r3
 800059a:	613b      	str	r3, [r7, #16]
    if (timeDiff >= BUTTON_DEBOUNCE_MS) {
 800059c:	693b      	ldr	r3, [r7, #16]
 800059e:	2b63      	cmp	r3, #99	; 0x63
 80005a0:	d902      	bls.n	80005a8 <_ZN9LedButton17updateButtonStateEv+0x6e>
      debounceButton = false;
 80005a2:	687b      	ldr	r3, [r7, #4]
 80005a4:	2200      	movs	r2, #0
 80005a6:	751a      	strb	r2, [r3, #20]
}
 80005a8:	46c0      	nop			; (mov r8, r8)
 80005aa:	46bd      	mov	sp, r7
 80005ac:	b006      	add	sp, #24
 80005ae:	bdb0      	pop	{r4, r5, r7, pc}

080005b0 <_ZN9LedButton14getButtonStateEv>:

ButtonState_enum LedButton::getButtonState() {
 80005b0:	b580      	push	{r7, lr}
 80005b2:	b082      	sub	sp, #8
 80005b4:	af00      	add	r7, sp, #0
 80005b6:	6078      	str	r0, [r7, #4]
  return buttonState;
 80005b8:	687b      	ldr	r3, [r7, #4]
 80005ba:	7b9b      	ldrb	r3, [r3, #14]
}
 80005bc:	0018      	movs	r0, r3
 80005be:	46bd      	mov	sp, r7
 80005c0:	b002      	add	sp, #8
 80005c2:	bd80      	pop	{r7, pc}

080005c4 <_ZN8NeoPixelC1EtR17TIM_HandleTypeDefmR19__DMA_HandleTypeDef>:
// Peripheral usage
#include "NeoPixel.hpp"
#include <stdlib.h>

NeoPixel::NeoPixel(uint16_t n, TIM_HandleTypeDef &timHandle, uint32_t timChannel, DMA_HandleTypeDef &dmaHandle) 
 80005c4:	b580      	push	{r7, lr}
 80005c6:	b084      	sub	sp, #16
 80005c8:	af00      	add	r7, sp, #0
 80005ca:	60f8      	str	r0, [r7, #12]
 80005cc:	607a      	str	r2, [r7, #4]
 80005ce:	603b      	str	r3, [r7, #0]
 80005d0:	200a      	movs	r0, #10
 80005d2:	183b      	adds	r3, r7, r0
 80005d4:	1c0a      	adds	r2, r1, #0
 80005d6:	801a      	strh	r2, [r3, #0]
        : htim(timHandle), hdma(dmaHandle), timCh{timChannel} {
 80005d8:	68fb      	ldr	r3, [r7, #12]
 80005da:	687a      	ldr	r2, [r7, #4]
 80005dc:	615a      	str	r2, [r3, #20]
 80005de:	68fb      	ldr	r3, [r7, #12]
 80005e0:	69ba      	ldr	r2, [r7, #24]
 80005e2:	619a      	str	r2, [r3, #24]
 80005e4:	68fb      	ldr	r3, [r7, #12]
 80005e6:	683a      	ldr	r2, [r7, #0]
 80005e8:	61da      	str	r2, [r3, #28]
  updateLength(n);
 80005ea:	183b      	adds	r3, r7, r0
 80005ec:	881a      	ldrh	r2, [r3, #0]
 80005ee:	68fb      	ldr	r3, [r7, #12]
 80005f0:	0011      	movs	r1, r2
 80005f2:	0018      	movs	r0, r3
 80005f4:	f000 f80e 	bl	8000614 <_ZN8NeoPixel12updateLengthEt>
}
 80005f8:	68fb      	ldr	r3, [r7, #12]
 80005fa:	0018      	movs	r0, r3
 80005fc:	46bd      	mov	sp, r7
 80005fe:	b004      	add	sp, #16
 8000600:	bd80      	pop	{r7, pc}

08000602 <_ZN8NeoPixelD1Ev>:

NeoPixel::~NeoPixel() {
 8000602:	b580      	push	{r7, lr}
 8000604:	b082      	sub	sp, #8
 8000606:	af00      	add	r7, sp, #0
 8000608:	6078      	str	r0, [r7, #4]
}
 800060a:	687b      	ldr	r3, [r7, #4]
 800060c:	0018      	movs	r0, r3
 800060e:	46bd      	mov	sp, r7
 8000610:	b002      	add	sp, #8
 8000612:	bd80      	pop	{r7, pc}

08000614 <_ZN8NeoPixel12updateLengthEt>:

void NeoPixel::updateLength(uint16_t n) {
 8000614:	b580      	push	{r7, lr}
 8000616:	b082      	sub	sp, #8
 8000618:	af00      	add	r7, sp, #0
 800061a:	6078      	str	r0, [r7, #4]
 800061c:	000a      	movs	r2, r1
 800061e:	1cbb      	adds	r3, r7, #2
 8000620:	801a      	strh	r2, [r3, #0]

  // Allocate new data -- note: ALL PIXELS ARE CLEARED
  numBytes = n * 3;
 8000622:	1cbb      	adds	r3, r7, #2
 8000624:	881b      	ldrh	r3, [r3, #0]
 8000626:	1c1a      	adds	r2, r3, #0
 8000628:	1892      	adds	r2, r2, r2
 800062a:	18d3      	adds	r3, r2, r3
 800062c:	b29a      	uxth	r2, r3
 800062e:	687b      	ldr	r3, [r7, #4]
 8000630:	809a      	strh	r2, [r3, #4]
  pixels = (uint8_t *)malloc(numBytes);
 8000632:	687b      	ldr	r3, [r7, #4]
 8000634:	889b      	ldrh	r3, [r3, #4]
 8000636:	0018      	movs	r0, r3
 8000638:	f004 fcf8 	bl	800502c <malloc>
 800063c:	0003      	movs	r3, r0
 800063e:	001a      	movs	r2, r3
 8000640:	687b      	ldr	r3, [r7, #4]
 8000642:	609a      	str	r2, [r3, #8]
  wrBufLen = n*3*8+8;
 8000644:	1cbb      	adds	r3, r7, #2
 8000646:	881b      	ldrh	r3, [r3, #0]
 8000648:	2218      	movs	r2, #24
 800064a:	4353      	muls	r3, r2
 800064c:	b29b      	uxth	r3, r3
 800064e:	3308      	adds	r3, #8
 8000650:	b29a      	uxth	r2, r3
 8000652:	687b      	ldr	r3, [r7, #4]
 8000654:	801a      	strh	r2, [r3, #0]
  wr_buf = (uint8_t *)malloc(wrBufLen);
 8000656:	687b      	ldr	r3, [r7, #4]
 8000658:	881b      	ldrh	r3, [r3, #0]
 800065a:	0018      	movs	r0, r3
 800065c:	f004 fce6 	bl	800502c <malloc>
 8000660:	0003      	movs	r3, r0
 8000662:	001a      	movs	r2, r3
 8000664:	687b      	ldr	r3, [r7, #4]
 8000666:	60da      	str	r2, [r3, #12]
  numLEDs = n;
 8000668:	687b      	ldr	r3, [r7, #4]
 800066a:	1cba      	adds	r2, r7, #2
 800066c:	8812      	ldrh	r2, [r2, #0]
 800066e:	805a      	strh	r2, [r3, #2]
}
 8000670:	46c0      	nop			; (mov r8, r8)
 8000672:	46bd      	mov	sp, r7
 8000674:	b002      	add	sp, #8
 8000676:	bd80      	pop	{r7, pc}

08000678 <_ZN8NeoPixel13setPixelColorEthhh>:

void NeoPixel::setPixelColor(uint16_t n, uint8_t r, uint8_t g, uint8_t b) {
 8000678:	b590      	push	{r4, r7, lr}
 800067a:	b083      	sub	sp, #12
 800067c:	af00      	add	r7, sp, #0
 800067e:	6078      	str	r0, [r7, #4]
 8000680:	000c      	movs	r4, r1
 8000682:	0010      	movs	r0, r2
 8000684:	0019      	movs	r1, r3
 8000686:	1cbb      	adds	r3, r7, #2
 8000688:	1c22      	adds	r2, r4, #0
 800068a:	801a      	strh	r2, [r3, #0]
 800068c:	1c7b      	adds	r3, r7, #1
 800068e:	1c02      	adds	r2, r0, #0
 8000690:	701a      	strb	r2, [r3, #0]
 8000692:	003b      	movs	r3, r7
 8000694:	1c0a      	adds	r2, r1, #0
 8000696:	701a      	strb	r2, [r3, #0]
  pixels[n * 3] = g;
 8000698:	687b      	ldr	r3, [r7, #4]
 800069a:	6899      	ldr	r1, [r3, #8]
 800069c:	1cbb      	adds	r3, r7, #2
 800069e:	881a      	ldrh	r2, [r3, #0]
 80006a0:	0013      	movs	r3, r2
 80006a2:	005b      	lsls	r3, r3, #1
 80006a4:	189b      	adds	r3, r3, r2
 80006a6:	18cb      	adds	r3, r1, r3
 80006a8:	003a      	movs	r2, r7
 80006aa:	7812      	ldrb	r2, [r2, #0]
 80006ac:	701a      	strb	r2, [r3, #0]
  pixels[n * 3 + 1] = r;
 80006ae:	687b      	ldr	r3, [r7, #4]
 80006b0:	6899      	ldr	r1, [r3, #8]
 80006b2:	1cbb      	adds	r3, r7, #2
 80006b4:	881a      	ldrh	r2, [r3, #0]
 80006b6:	0013      	movs	r3, r2
 80006b8:	005b      	lsls	r3, r3, #1
 80006ba:	189b      	adds	r3, r3, r2
 80006bc:	3301      	adds	r3, #1
 80006be:	18cb      	adds	r3, r1, r3
 80006c0:	1c7a      	adds	r2, r7, #1
 80006c2:	7812      	ldrb	r2, [r2, #0]
 80006c4:	701a      	strb	r2, [r3, #0]
  pixels[n * 3 + 2] = b;
 80006c6:	687b      	ldr	r3, [r7, #4]
 80006c8:	6899      	ldr	r1, [r3, #8]
 80006ca:	1cbb      	adds	r3, r7, #2
 80006cc:	881a      	ldrh	r2, [r3, #0]
 80006ce:	0013      	movs	r3, r2
 80006d0:	005b      	lsls	r3, r3, #1
 80006d2:	189b      	adds	r3, r3, r2
 80006d4:	3302      	adds	r3, #2
 80006d6:	18ca      	adds	r2, r1, r3
 80006d8:	2318      	movs	r3, #24
 80006da:	18fb      	adds	r3, r7, r3
 80006dc:	781b      	ldrb	r3, [r3, #0]
 80006de:	7013      	strb	r3, [r2, #0]
}
 80006e0:	46c0      	nop			; (mov r8, r8)
 80006e2:	46bd      	mov	sp, r7
 80006e4:	b003      	add	sp, #12
 80006e6:	bd90      	pop	{r4, r7, pc}

080006e8 <_ZN8NeoPixel4showEv>:

void NeoPixel::show(void) {
 80006e8:	b580      	push	{r7, lr}
 80006ea:	b086      	sub	sp, #24
 80006ec:	af00      	add	r7, sp, #0
 80006ee:	6078      	str	r0, [r7, #4]

  for(uint16_t j = 0; j < numBytes; j++) {
 80006f0:	2316      	movs	r3, #22
 80006f2:	18fb      	adds	r3, r7, r3
 80006f4:	2200      	movs	r2, #0
 80006f6:	801a      	strh	r2, [r3, #0]
 80006f8:	e02c      	b.n	8000754 <_ZN8NeoPixel4showEv+0x6c>
	  for(uint_fast8_t i = 0; i < 8; i++) {
 80006fa:	2300      	movs	r3, #0
 80006fc:	613b      	str	r3, [r7, #16]
 80006fe:	e020      	b.n	8000742 <_ZN8NeoPixel4showEv+0x5a>
		  wr_buf[i+8*j   ] = PWM_LO << (((pixels[j]  << i) & 0x80) > 0);
 8000700:	687b      	ldr	r3, [r7, #4]
 8000702:	689a      	ldr	r2, [r3, #8]
 8000704:	2316      	movs	r3, #22
 8000706:	18fb      	adds	r3, r7, r3
 8000708:	881b      	ldrh	r3, [r3, #0]
 800070a:	18d3      	adds	r3, r2, r3
 800070c:	781b      	ldrb	r3, [r3, #0]
 800070e:	001a      	movs	r2, r3
 8000710:	693b      	ldr	r3, [r7, #16]
 8000712:	409a      	lsls	r2, r3
 8000714:	0013      	movs	r3, r2
 8000716:	2280      	movs	r2, #128	; 0x80
 8000718:	4013      	ands	r3, r2
 800071a:	2b00      	cmp	r3, #0
 800071c:	dd01      	ble.n	8000722 <_ZN8NeoPixel4showEv+0x3a>
 800071e:	2118      	movs	r1, #24
 8000720:	e000      	b.n	8000724 <_ZN8NeoPixel4showEv+0x3c>
 8000722:	210c      	movs	r1, #12
 8000724:	687b      	ldr	r3, [r7, #4]
 8000726:	68da      	ldr	r2, [r3, #12]
 8000728:	2316      	movs	r3, #22
 800072a:	18fb      	adds	r3, r7, r3
 800072c:	881b      	ldrh	r3, [r3, #0]
 800072e:	00db      	lsls	r3, r3, #3
 8000730:	0018      	movs	r0, r3
 8000732:	693b      	ldr	r3, [r7, #16]
 8000734:	18c3      	adds	r3, r0, r3
 8000736:	18d3      	adds	r3, r2, r3
 8000738:	1c0a      	adds	r2, r1, #0
 800073a:	701a      	strb	r2, [r3, #0]
	  for(uint_fast8_t i = 0; i < 8; i++) {
 800073c:	693b      	ldr	r3, [r7, #16]
 800073e:	3301      	adds	r3, #1
 8000740:	613b      	str	r3, [r7, #16]
 8000742:	693b      	ldr	r3, [r7, #16]
 8000744:	2b07      	cmp	r3, #7
 8000746:	d9db      	bls.n	8000700 <_ZN8NeoPixel4showEv+0x18>
  for(uint16_t j = 0; j < numBytes; j++) {
 8000748:	2116      	movs	r1, #22
 800074a:	187b      	adds	r3, r7, r1
 800074c:	881a      	ldrh	r2, [r3, #0]
 800074e:	187b      	adds	r3, r7, r1
 8000750:	3201      	adds	r2, #1
 8000752:	801a      	strh	r2, [r3, #0]
 8000754:	687b      	ldr	r3, [r7, #4]
 8000756:	889b      	ldrh	r3, [r3, #4]
 8000758:	2216      	movs	r2, #22
 800075a:	18ba      	adds	r2, r7, r2
 800075c:	8812      	ldrh	r2, [r2, #0]
 800075e:	429a      	cmp	r2, r3
 8000760:	d3cb      	bcc.n	80006fa <_ZN8NeoPixel4showEv+0x12>
	  }
  }
  for(uint_fast8_t i = 0; i < 8; i++) {
 8000762:	2300      	movs	r3, #0
 8000764:	60fb      	str	r3, [r7, #12]
 8000766:	e00d      	b.n	8000784 <_ZN8NeoPixel4showEv+0x9c>
	  wr_buf[i+8*numBytes   ] = 0;
 8000768:	687b      	ldr	r3, [r7, #4]
 800076a:	68da      	ldr	r2, [r3, #12]
 800076c:	687b      	ldr	r3, [r7, #4]
 800076e:	889b      	ldrh	r3, [r3, #4]
 8000770:	00db      	lsls	r3, r3, #3
 8000772:	0019      	movs	r1, r3
 8000774:	68fb      	ldr	r3, [r7, #12]
 8000776:	18cb      	adds	r3, r1, r3
 8000778:	18d3      	adds	r3, r2, r3
 800077a:	2200      	movs	r2, #0
 800077c:	701a      	strb	r2, [r3, #0]
  for(uint_fast8_t i = 0; i < 8; i++) {
 800077e:	68fb      	ldr	r3, [r7, #12]
 8000780:	3301      	adds	r3, #1
 8000782:	60fb      	str	r3, [r7, #12]
 8000784:	68fb      	ldr	r3, [r7, #12]
 8000786:	2b07      	cmp	r3, #7
 8000788:	d9ee      	bls.n	8000768 <_ZN8NeoPixel4showEv+0x80>
  }
  HAL_TIM_PWM_Start_DMA(&htim, timCh, (uint32_t *)wr_buf, wrBufLen);
 800078a:	687b      	ldr	r3, [r7, #4]
 800078c:	6958      	ldr	r0, [r3, #20]
 800078e:	687b      	ldr	r3, [r7, #4]
 8000790:	69d9      	ldr	r1, [r3, #28]
 8000792:	687b      	ldr	r3, [r7, #4]
 8000794:	68da      	ldr	r2, [r3, #12]
 8000796:	687b      	ldr	r3, [r7, #4]
 8000798:	881b      	ldrh	r3, [r3, #0]
 800079a:	f003 fd4e 	bl	800423a <HAL_TIM_PWM_Start_DMA>
}
 800079e:	46c0      	nop			; (mov r8, r8)
 80007a0:	46bd      	mov	sp, r7
 80007a2:	b006      	add	sp, #24
 80007a4:	bd80      	pop	{r7, pc}

080007a6 <_ZN10TouchBoardC1Ev>:
#include "TouchBoard.hpp"

TouchBoard::TouchBoard() {
 80007a6:	b580      	push	{r7, lr}
 80007a8:	b084      	sub	sp, #16
 80007aa:	af00      	add	r7, sp, #0
 80007ac:	6078      	str	r0, [r7, #4]
  myTouchState = NOT_TOUCHED;
 80007ae:	687b      	ldr	r3, [r7, #4]
 80007b0:	2201      	movs	r2, #1
 80007b2:	739a      	strb	r2, [r3, #14]
  for (int i=0; i<NUM_PIXELS_PER_BOARD; i++) {
 80007b4:	2300      	movs	r3, #0
 80007b6:	60fb      	str	r3, [r7, #12]
 80007b8:	e01b      	b.n	80007f2 <_ZN10TouchBoardC1Ev+0x4c>
    pixelColors[i].r = 0;
 80007ba:	6879      	ldr	r1, [r7, #4]
 80007bc:	68fa      	ldr	r2, [r7, #12]
 80007be:	0013      	movs	r3, r2
 80007c0:	005b      	lsls	r3, r3, #1
 80007c2:	189b      	adds	r3, r3, r2
 80007c4:	2200      	movs	r2, #0
 80007c6:	545a      	strb	r2, [r3, r1]
    pixelColors[i].g = 0;
 80007c8:	6879      	ldr	r1, [r7, #4]
 80007ca:	68fa      	ldr	r2, [r7, #12]
 80007cc:	0013      	movs	r3, r2
 80007ce:	005b      	lsls	r3, r3, #1
 80007d0:	189b      	adds	r3, r3, r2
 80007d2:	18cb      	adds	r3, r1, r3
 80007d4:	3301      	adds	r3, #1
 80007d6:	2200      	movs	r2, #0
 80007d8:	701a      	strb	r2, [r3, #0]
    pixelColors[i].b = 0;
 80007da:	6879      	ldr	r1, [r7, #4]
 80007dc:	68fa      	ldr	r2, [r7, #12]
 80007de:	0013      	movs	r3, r2
 80007e0:	005b      	lsls	r3, r3, #1
 80007e2:	189b      	adds	r3, r3, r2
 80007e4:	18cb      	adds	r3, r1, r3
 80007e6:	3302      	adds	r3, #2
 80007e8:	2200      	movs	r2, #0
 80007ea:	701a      	strb	r2, [r3, #0]
  for (int i=0; i<NUM_PIXELS_PER_BOARD; i++) {
 80007ec:	68fb      	ldr	r3, [r7, #12]
 80007ee:	3301      	adds	r3, #1
 80007f0:	60fb      	str	r3, [r7, #12]
 80007f2:	68fb      	ldr	r3, [r7, #12]
 80007f4:	2b01      	cmp	r3, #1
 80007f6:	dde0      	ble.n	80007ba <_ZN10TouchBoardC1Ev+0x14>
  }
}
 80007f8:	687b      	ldr	r3, [r7, #4]
 80007fa:	0018      	movs	r0, r3
 80007fc:	46bd      	mov	sp, r7
 80007fe:	b004      	add	sp, #16
 8000800:	bd80      	pop	{r7, pc}

08000802 <_ZN10TouchBoardD1Ev>:

TouchBoard::~TouchBoard() {
 8000802:	b580      	push	{r7, lr}
 8000804:	b082      	sub	sp, #8
 8000806:	af00      	add	r7, sp, #0
 8000808:	6078      	str	r0, [r7, #4]
}
 800080a:	687b      	ldr	r3, [r7, #4]
 800080c:	0018      	movs	r0, r3
 800080e:	46bd      	mov	sp, r7
 8000810:	b002      	add	sp, #8
 8000812:	bd80      	pop	{r7, pc}

08000814 <_ZN10TouchBoard16setAllPixelColorEhhh>:
  pixelColors[pixel_num].r = r;
  pixelColors[pixel_num].g = g;
  pixelColors[pixel_num].b = b;
}

void TouchBoard::setAllPixelColor(uint8_t r, uint8_t g, uint8_t b) {
 8000814:	b590      	push	{r4, r7, lr}
 8000816:	b085      	sub	sp, #20
 8000818:	af00      	add	r7, sp, #0
 800081a:	6078      	str	r0, [r7, #4]
 800081c:	000c      	movs	r4, r1
 800081e:	0010      	movs	r0, r2
 8000820:	0019      	movs	r1, r3
 8000822:	1cfb      	adds	r3, r7, #3
 8000824:	1c22      	adds	r2, r4, #0
 8000826:	701a      	strb	r2, [r3, #0]
 8000828:	1cbb      	adds	r3, r7, #2
 800082a:	1c02      	adds	r2, r0, #0
 800082c:	701a      	strb	r2, [r3, #0]
 800082e:	1c7b      	adds	r3, r7, #1
 8000830:	1c0a      	adds	r2, r1, #0
 8000832:	701a      	strb	r2, [r3, #0]
  for (int i=0; i<NUM_PIXELS_PER_BOARD; i++) {
 8000834:	2300      	movs	r3, #0
 8000836:	60fb      	str	r3, [r7, #12]
 8000838:	e01e      	b.n	8000878 <_ZN10TouchBoard16setAllPixelColorEhhh+0x64>
    pixelColors[i].r = r;
 800083a:	6879      	ldr	r1, [r7, #4]
 800083c:	68fa      	ldr	r2, [r7, #12]
 800083e:	0013      	movs	r3, r2
 8000840:	005b      	lsls	r3, r3, #1
 8000842:	189b      	adds	r3, r3, r2
 8000844:	1cfa      	adds	r2, r7, #3
 8000846:	7812      	ldrb	r2, [r2, #0]
 8000848:	545a      	strb	r2, [r3, r1]
    pixelColors[i].g = g;
 800084a:	6879      	ldr	r1, [r7, #4]
 800084c:	68fa      	ldr	r2, [r7, #12]
 800084e:	0013      	movs	r3, r2
 8000850:	005b      	lsls	r3, r3, #1
 8000852:	189b      	adds	r3, r3, r2
 8000854:	18cb      	adds	r3, r1, r3
 8000856:	3301      	adds	r3, #1
 8000858:	1cba      	adds	r2, r7, #2
 800085a:	7812      	ldrb	r2, [r2, #0]
 800085c:	701a      	strb	r2, [r3, #0]
    pixelColors[i].b = b;
 800085e:	6879      	ldr	r1, [r7, #4]
 8000860:	68fa      	ldr	r2, [r7, #12]
 8000862:	0013      	movs	r3, r2
 8000864:	005b      	lsls	r3, r3, #1
 8000866:	189b      	adds	r3, r3, r2
 8000868:	18cb      	adds	r3, r1, r3
 800086a:	3302      	adds	r3, #2
 800086c:	1c7a      	adds	r2, r7, #1
 800086e:	7812      	ldrb	r2, [r2, #0]
 8000870:	701a      	strb	r2, [r3, #0]
  for (int i=0; i<NUM_PIXELS_PER_BOARD; i++) {
 8000872:	68fb      	ldr	r3, [r7, #12]
 8000874:	3301      	adds	r3, #1
 8000876:	60fb      	str	r3, [r7, #12]
 8000878:	68fb      	ldr	r3, [r7, #12]
 800087a:	2b01      	cmp	r3, #1
 800087c:	dddd      	ble.n	800083a <_ZN10TouchBoard16setAllPixelColorEhhh+0x26>
  }
}
 800087e:	46c0      	nop			; (mov r8, r8)
 8000880:	46c0      	nop			; (mov r8, r8)
 8000882:	46bd      	mov	sp, r7
 8000884:	b005      	add	sp, #20
 8000886:	bd90      	pop	{r4, r7, pc}

08000888 <_ZN10TouchBoard13getPixelColorEh>:

PixelColor_s TouchBoard::getPixelColor(uint8_t pixel_ind) {
 8000888:	b590      	push	{r4, r7, lr}
 800088a:	b085      	sub	sp, #20
 800088c:	af00      	add	r7, sp, #0
 800088e:	6078      	str	r0, [r7, #4]
 8000890:	000a      	movs	r2, r1
 8000892:	1cfb      	adds	r3, r7, #3
 8000894:	701a      	strb	r2, [r3, #0]
  return pixelColors[pixel_ind];
 8000896:	1cfb      	adds	r3, r7, #3
 8000898:	781a      	ldrb	r2, [r3, #0]
 800089a:	240c      	movs	r4, #12
 800089c:	1938      	adds	r0, r7, r4
 800089e:	6879      	ldr	r1, [r7, #4]
 80008a0:	0013      	movs	r3, r2
 80008a2:	005b      	lsls	r3, r3, #1
 80008a4:	189b      	adds	r3, r3, r2
 80008a6:	18cb      	adds	r3, r1, r3
 80008a8:	2203      	movs	r2, #3
 80008aa:	0019      	movs	r1, r3
 80008ac:	f004 fd2a 	bl	8005304 <memcpy>
 80008b0:	193a      	adds	r2, r7, r4
 80008b2:	2300      	movs	r3, #0
 80008b4:	7811      	ldrb	r1, [r2, #0]
 80008b6:	20ff      	movs	r0, #255	; 0xff
 80008b8:	4001      	ands	r1, r0
 80008ba:	20ff      	movs	r0, #255	; 0xff
 80008bc:	4383      	bics	r3, r0
 80008be:	430b      	orrs	r3, r1
 80008c0:	7851      	ldrb	r1, [r2, #1]
 80008c2:	20ff      	movs	r0, #255	; 0xff
 80008c4:	4001      	ands	r1, r0
 80008c6:	0209      	lsls	r1, r1, #8
 80008c8:	4806      	ldr	r0, [pc, #24]	; (80008e4 <_ZN10TouchBoard13getPixelColorEh+0x5c>)
 80008ca:	4003      	ands	r3, r0
 80008cc:	430b      	orrs	r3, r1
 80008ce:	7892      	ldrb	r2, [r2, #2]
 80008d0:	21ff      	movs	r1, #255	; 0xff
 80008d2:	400a      	ands	r2, r1
 80008d4:	0412      	lsls	r2, r2, #16
 80008d6:	4904      	ldr	r1, [pc, #16]	; (80008e8 <_ZN10TouchBoard13getPixelColorEh+0x60>)
 80008d8:	400b      	ands	r3, r1
 80008da:	4313      	orrs	r3, r2
}
 80008dc:	0018      	movs	r0, r3
 80008de:	46bd      	mov	sp, r7
 80008e0:	b005      	add	sp, #20
 80008e2:	bd90      	pop	{r4, r7, pc}
 80008e4:	ffff00ff 	.word	0xffff00ff
 80008e8:	ff00ffff 	.word	0xff00ffff

080008ec <_ZN10TouchBoard12setTouchGPIOEP12GPIO_TypeDeft>:

void TouchBoard::setTouchGPIO(GPIO_TypeDef *GPIOx, uint16_t GPIOpin) {
 80008ec:	b580      	push	{r7, lr}
 80008ee:	b084      	sub	sp, #16
 80008f0:	af00      	add	r7, sp, #0
 80008f2:	60f8      	str	r0, [r7, #12]
 80008f4:	60b9      	str	r1, [r7, #8]
 80008f6:	1dbb      	adds	r3, r7, #6
 80008f8:	801a      	strh	r2, [r3, #0]
  myGpioPort = GPIOx;
 80008fa:	68fb      	ldr	r3, [r7, #12]
 80008fc:	68ba      	ldr	r2, [r7, #8]
 80008fe:	609a      	str	r2, [r3, #8]
  myGpioPin = GPIOpin;
 8000900:	68fb      	ldr	r3, [r7, #12]
 8000902:	1dba      	adds	r2, r7, #6
 8000904:	8812      	ldrh	r2, [r2, #0]
 8000906:	819a      	strh	r2, [r3, #12]
}
 8000908:	46c0      	nop			; (mov r8, r8)
 800090a:	46bd      	mov	sp, r7
 800090c:	b004      	add	sp, #16
 800090e:	bd80      	pop	{r7, pc}

08000910 <_ZN10TouchBoard16updateTouchStateEv>:

void TouchBoard::updateTouchState() {
 8000910:	b580      	push	{r7, lr}
 8000912:	b082      	sub	sp, #8
 8000914:	af00      	add	r7, sp, #0
 8000916:	6078      	str	r0, [r7, #4]
  if (HAL_GPIO_ReadPin(myGpioPort, myGpioPin) == GPIO_PIN_RESET) {
 8000918:	687b      	ldr	r3, [r7, #4]
 800091a:	689a      	ldr	r2, [r3, #8]
 800091c:	687b      	ldr	r3, [r7, #4]
 800091e:	899b      	ldrh	r3, [r3, #12]
 8000920:	0019      	movs	r1, r3
 8000922:	0010      	movs	r0, r2
 8000924:	f002 fb2c 	bl	8002f80 <HAL_GPIO_ReadPin>
 8000928:	0003      	movs	r3, r0
 800092a:	425a      	negs	r2, r3
 800092c:	4153      	adcs	r3, r2
 800092e:	b2db      	uxtb	r3, r3
 8000930:	2b00      	cmp	r3, #0
 8000932:	d003      	beq.n	800093c <_ZN10TouchBoard16updateTouchStateEv+0x2c>
    myTouchState = TOUCHED;
 8000934:	687b      	ldr	r3, [r7, #4]
 8000936:	2200      	movs	r2, #0
 8000938:	739a      	strb	r2, [r3, #14]
  } else {
    myTouchState = NOT_TOUCHED;
  }
}
 800093a:	e002      	b.n	8000942 <_ZN10TouchBoard16updateTouchStateEv+0x32>
    myTouchState = NOT_TOUCHED;
 800093c:	687b      	ldr	r3, [r7, #4]
 800093e:	2201      	movs	r2, #1
 8000940:	739a      	strb	r2, [r3, #14]
}
 8000942:	46c0      	nop			; (mov r8, r8)
 8000944:	46bd      	mov	sp, r7
 8000946:	b002      	add	sp, #8
 8000948:	bd80      	pop	{r7, pc}

0800094a <_ZN10TouchBoard13getTouchStateEv>:

TouchState_enum TouchBoard::getTouchState() {
 800094a:	b580      	push	{r7, lr}
 800094c:	b082      	sub	sp, #8
 800094e:	af00      	add	r7, sp, #0
 8000950:	6078      	str	r0, [r7, #4]
  return myTouchState;
 8000952:	687b      	ldr	r3, [r7, #4]
 8000954:	7b9b      	ldrb	r3, [r3, #14]
}
 8000956:	0018      	movs	r0, r3
 8000958:	46bd      	mov	sp, r7
 800095a:	b002      	add	sp, #8
 800095c:	bd80      	pop	{r7, pc}

0800095e <_ZSt17__size_to_integerj>:

  // Used by fill_n, generate_n, etc. to convert _Size to an integral type:
  inline _GLIBCXX_CONSTEXPR int
  __size_to_integer(int __n) { return __n; }
  inline _GLIBCXX_CONSTEXPR unsigned
  __size_to_integer(unsigned __n) { return __n; }
 800095e:	b580      	push	{r7, lr}
 8000960:	b082      	sub	sp, #8
 8000962:	af00      	add	r7, sp, #0
 8000964:	6078      	str	r0, [r7, #4]
 8000966:	687b      	ldr	r3, [r7, #4]
 8000968:	0018      	movs	r0, r3
 800096a:	46bd      	mov	sp, r7
 800096c:	b002      	add	sp, #8
 800096e:	bd80      	pop	{r7, pc}

08000970 <_ZnwjPv>:
#endif // __cpp_sized_deallocation
#endif // __cpp_aligned_new

// Default placement versions of operator new.
_GLIBCXX_NODISCARD inline void* operator new(std::size_t, void* __p) _GLIBCXX_USE_NOEXCEPT
{ return __p; }
 8000970:	b580      	push	{r7, lr}
 8000972:	b082      	sub	sp, #8
 8000974:	af00      	add	r7, sp, #0
 8000976:	6078      	str	r0, [r7, #4]
 8000978:	6039      	str	r1, [r7, #0]
 800097a:	683b      	ldr	r3, [r7, #0]
 800097c:	0018      	movs	r0, r3
 800097e:	46bd      	mov	sp, r7
 8000980:	b002      	add	sp, #8
 8000982:	bd80      	pop	{r7, pc}

08000984 <_ZN15TouchBoardGroupC1EhR17TIM_HandleTypeDefmR19__DMA_HandleTypeDef>:
#include "TouchBoardGroup.hpp"
#include "TouchGpioMap.h"
#include "stm32l0xx_hal.h"

TouchBoardGroup::TouchBoardGroup(uint8_t n, TIM_HandleTypeDef &timHandle,
 8000984:	b5f0      	push	{r4, r5, r6, r7, lr}
 8000986:	b08b      	sub	sp, #44	; 0x2c
 8000988:	af02      	add	r7, sp, #8
 800098a:	60f8      	str	r0, [r7, #12]
 800098c:	607a      	str	r2, [r7, #4]
 800098e:	603b      	str	r3, [r7, #0]
 8000990:	260b      	movs	r6, #11
 8000992:	19bb      	adds	r3, r7, r6
 8000994:	1c0a      	adds	r2, r1, #0
 8000996:	701a      	strb	r2, [r3, #0]
                                  uint32_t timChannel, DMA_HandleTypeDef &dmaHandle) 
                : ledArray((uint16_t)(n*NUM_PIXELS_PER_BOARD), timHandle, timChannel, dmaHandle),
 8000998:	68fb      	ldr	r3, [r7, #12]
 800099a:	1d18      	adds	r0, r3, #4
 800099c:	19bb      	adds	r3, r7, r6
 800099e:	781b      	ldrb	r3, [r3, #0]
 80009a0:	b29b      	uxth	r3, r3
 80009a2:	18db      	adds	r3, r3, r3
 80009a4:	b299      	uxth	r1, r3
 80009a6:	683c      	ldr	r4, [r7, #0]
 80009a8:	687a      	ldr	r2, [r7, #4]
 80009aa:	6bbb      	ldr	r3, [r7, #56]	; 0x38
 80009ac:	9300      	str	r3, [sp, #0]
 80009ae:	0023      	movs	r3, r4
 80009b0:	f7ff fe08 	bl	80005c4 <_ZN8NeoPixelC1EtR17TIM_HandleTypeDefmR19__DMA_HandleTypeDef>
                  touchStates(n), touchBoards(n) {
 80009b4:	68fb      	ldr	r3, [r7, #12]
 80009b6:	3328      	adds	r3, #40	; 0x28
 80009b8:	001c      	movs	r4, r3
 80009ba:	19bb      	adds	r3, r7, r6
 80009bc:	781d      	ldrb	r5, [r3, #0]
 80009be:	2314      	movs	r3, #20
 80009c0:	18fb      	adds	r3, r7, r3
 80009c2:	0018      	movs	r0, r3
 80009c4:	f000 f975 	bl	8000cb2 <_ZNSaI10TouchBoardEC1Ev>
 80009c8:	2314      	movs	r3, #20
 80009ca:	18fb      	adds	r3, r7, r3
 80009cc:	001a      	movs	r2, r3
 80009ce:	0029      	movs	r1, r5
 80009d0:	0020      	movs	r0, r4
 80009d2:	f000 f988 	bl	8000ce6 <_ZNSt6vectorI10TouchBoardSaIS0_EEC1EjRKS1_>
 80009d6:	2314      	movs	r3, #20
 80009d8:	18fb      	adds	r3, r7, r3
 80009da:	0018      	movs	r0, r3
 80009dc:	f000 f976 	bl	8000ccc <_ZNSaI10TouchBoardED1Ev>
 80009e0:	68fb      	ldr	r3, [r7, #12]
 80009e2:	3334      	adds	r3, #52	; 0x34
 80009e4:	001c      	movs	r4, r3
 80009e6:	19bb      	adds	r3, r7, r6
 80009e8:	781d      	ldrb	r5, [r3, #0]
 80009ea:	2318      	movs	r3, #24
 80009ec:	18fb      	adds	r3, r7, r3
 80009ee:	0018      	movs	r0, r3
 80009f0:	f000 f9b2 	bl	8000d58 <_ZNSaI15TouchState_enumEC1Ev>
 80009f4:	2318      	movs	r3, #24
 80009f6:	18fb      	adds	r3, r7, r3
 80009f8:	001a      	movs	r2, r3
 80009fa:	0029      	movs	r1, r5
 80009fc:	0020      	movs	r0, r4
 80009fe:	f000 f9c5 	bl	8000d8c <_ZNSt6vectorI15TouchState_enumSaIS0_EEC1EjRKS1_>
 8000a02:	2318      	movs	r3, #24
 8000a04:	18fb      	adds	r3, r7, r3
 8000a06:	0018      	movs	r0, r3
 8000a08:	f000 f9b3 	bl	8000d72 <_ZNSaI15TouchState_enumED1Ev>
  numBoards = n;
 8000a0c:	68fb      	ldr	r3, [r7, #12]
 8000a0e:	19ba      	adds	r2, r7, r6
 8000a10:	7812      	ldrb	r2, [r2, #0]
 8000a12:	701a      	strb	r2, [r3, #0]
  numPixels = n*NUM_PIXELS_PER_BOARD;
 8000a14:	19bb      	adds	r3, r7, r6
 8000a16:	781b      	ldrb	r3, [r3, #0]
 8000a18:	18db      	adds	r3, r3, r3
 8000a1a:	b2da      	uxtb	r2, r3
 8000a1c:	68fb      	ldr	r3, [r7, #12]
 8000a1e:	705a      	strb	r2, [r3, #1]
  for (int i=0; i<numBoards; i++) {
 8000a20:	2300      	movs	r3, #0
 8000a22:	61fb      	str	r3, [r7, #28]
 8000a24:	e01e      	b.n	8000a64 <_ZN15TouchBoardGroupC1EhR17TIM_HandleTypeDefmR19__DMA_HandleTypeDef+0xe0>
    touchBoards[i].setTouchGPIO(touchGpioMap_Port[i], touchGpioMap_Pin[i]);
 8000a26:	68fb      	ldr	r3, [r7, #12]
 8000a28:	3328      	adds	r3, #40	; 0x28
 8000a2a:	69fa      	ldr	r2, [r7, #28]
 8000a2c:	0011      	movs	r1, r2
 8000a2e:	0018      	movs	r0, r3
 8000a30:	f000 f9e5 	bl	8000dfe <_ZNSt6vectorI10TouchBoardSaIS0_EEixEj>
 8000a34:	4b11      	ldr	r3, [pc, #68]	; (8000a7c <_ZN15TouchBoardGroupC1EhR17TIM_HandleTypeDefmR19__DMA_HandleTypeDef+0xf8>)
 8000a36:	69fa      	ldr	r2, [r7, #28]
 8000a38:	0092      	lsls	r2, r2, #2
 8000a3a:	58d1      	ldr	r1, [r2, r3]
 8000a3c:	4b10      	ldr	r3, [pc, #64]	; (8000a80 <_ZN15TouchBoardGroupC1EhR17TIM_HandleTypeDefmR19__DMA_HandleTypeDef+0xfc>)
 8000a3e:	69fa      	ldr	r2, [r7, #28]
 8000a40:	0052      	lsls	r2, r2, #1
 8000a42:	5ad3      	ldrh	r3, [r2, r3]
 8000a44:	001a      	movs	r2, r3
 8000a46:	f7ff ff51 	bl	80008ec <_ZN10TouchBoard12setTouchGPIOEP12GPIO_TypeDeft>
    touchStates[i] = NOT_TOUCHED;
 8000a4a:	68fb      	ldr	r3, [r7, #12]
 8000a4c:	3334      	adds	r3, #52	; 0x34
 8000a4e:	69fa      	ldr	r2, [r7, #28]
 8000a50:	0011      	movs	r1, r2
 8000a52:	0018      	movs	r0, r3
 8000a54:	f000 f9e1 	bl	8000e1a <_ZNSt6vectorI15TouchState_enumSaIS0_EEixEj>
 8000a58:	0003      	movs	r3, r0
 8000a5a:	2201      	movs	r2, #1
 8000a5c:	701a      	strb	r2, [r3, #0]
  for (int i=0; i<numBoards; i++) {
 8000a5e:	69fb      	ldr	r3, [r7, #28]
 8000a60:	3301      	adds	r3, #1
 8000a62:	61fb      	str	r3, [r7, #28]
 8000a64:	68fb      	ldr	r3, [r7, #12]
 8000a66:	781b      	ldrb	r3, [r3, #0]
 8000a68:	001a      	movs	r2, r3
 8000a6a:	69fb      	ldr	r3, [r7, #28]
 8000a6c:	4293      	cmp	r3, r2
 8000a6e:	dbda      	blt.n	8000a26 <_ZN15TouchBoardGroupC1EhR17TIM_HandleTypeDefmR19__DMA_HandleTypeDef+0xa2>
  }
}
 8000a70:	68fb      	ldr	r3, [r7, #12]
 8000a72:	0018      	movs	r0, r3
 8000a74:	46bd      	mov	sp, r7
 8000a76:	b009      	add	sp, #36	; 0x24
 8000a78:	bdf0      	pop	{r4, r5, r6, r7, pc}
 8000a7a:	46c0      	nop			; (mov r8, r8)
 8000a7c:	20000000 	.word	0x20000000
 8000a80:	20000060 	.word	0x20000060

08000a84 <_ZN15TouchBoardGroupD1Ev>:

TouchBoardGroup::~TouchBoardGroup() {
 8000a84:	b580      	push	{r7, lr}
 8000a86:	b082      	sub	sp, #8
 8000a88:	af00      	add	r7, sp, #0
 8000a8a:	6078      	str	r0, [r7, #4]
 8000a8c:	687b      	ldr	r3, [r7, #4]
 8000a8e:	3334      	adds	r3, #52	; 0x34
 8000a90:	0018      	movs	r0, r3
 8000a92:	f000 f999 	bl	8000dc8 <_ZNSt6vectorI15TouchState_enumSaIS0_EED1Ev>
 8000a96:	687b      	ldr	r3, [r7, #4]
 8000a98:	3328      	adds	r3, #40	; 0x28
 8000a9a:	0018      	movs	r0, r3
 8000a9c:	f000 f941 	bl	8000d22 <_ZNSt6vectorI10TouchBoardSaIS0_EED1Ev>
 8000aa0:	687b      	ldr	r3, [r7, #4]
 8000aa2:	3304      	adds	r3, #4
 8000aa4:	0018      	movs	r0, r3
 8000aa6:	f7ff fdac 	bl	8000602 <_ZN8NeoPixelD1Ev>
}
 8000aaa:	687b      	ldr	r3, [r7, #4]
 8000aac:	0018      	movs	r0, r3
 8000aae:	46bd      	mov	sp, r7
 8000ab0:	b002      	add	sp, #8
 8000ab2:	bd80      	pop	{r7, pc}

08000ab4 <_ZN15TouchBoardGroup16setAllPixelColorEhhh>:

void TouchBoardGroup::setPixelColor(uint8_t board_num, uint8_t pixel_ind, uint8_t r, uint8_t g, uint8_t b) {
  touchBoards[board_num].setPixelColor(pixel_ind, r, g, b);
}

void TouchBoardGroup::setAllPixelColor(uint8_t r, uint8_t g, uint8_t b) {
 8000ab4:	b590      	push	{r4, r7, lr}
 8000ab6:	b085      	sub	sp, #20
 8000ab8:	af00      	add	r7, sp, #0
 8000aba:	6078      	str	r0, [r7, #4]
 8000abc:	000c      	movs	r4, r1
 8000abe:	0010      	movs	r0, r2
 8000ac0:	0019      	movs	r1, r3
 8000ac2:	1cfb      	adds	r3, r7, #3
 8000ac4:	1c22      	adds	r2, r4, #0
 8000ac6:	701a      	strb	r2, [r3, #0]
 8000ac8:	1cbb      	adds	r3, r7, #2
 8000aca:	1c02      	adds	r2, r0, #0
 8000acc:	701a      	strb	r2, [r3, #0]
 8000ace:	1c7b      	adds	r3, r7, #1
 8000ad0:	1c0a      	adds	r2, r1, #0
 8000ad2:	701a      	strb	r2, [r3, #0]
  for (int i=0; i<numBoards; i++) {
 8000ad4:	2300      	movs	r3, #0
 8000ad6:	60fb      	str	r3, [r7, #12]
 8000ad8:	e014      	b.n	8000b04 <_ZN15TouchBoardGroup16setAllPixelColorEhhh+0x50>
    touchBoards[i].setAllPixelColor(r, g, b);
 8000ada:	687b      	ldr	r3, [r7, #4]
 8000adc:	3328      	adds	r3, #40	; 0x28
 8000ade:	68fa      	ldr	r2, [r7, #12]
 8000ae0:	0011      	movs	r1, r2
 8000ae2:	0018      	movs	r0, r3
 8000ae4:	f000 f98b 	bl	8000dfe <_ZNSt6vectorI10TouchBoardSaIS0_EEixEj>
 8000ae8:	0004      	movs	r4, r0
 8000aea:	1c7b      	adds	r3, r7, #1
 8000aec:	7818      	ldrb	r0, [r3, #0]
 8000aee:	1cbb      	adds	r3, r7, #2
 8000af0:	781a      	ldrb	r2, [r3, #0]
 8000af2:	1cfb      	adds	r3, r7, #3
 8000af4:	7819      	ldrb	r1, [r3, #0]
 8000af6:	0003      	movs	r3, r0
 8000af8:	0020      	movs	r0, r4
 8000afa:	f7ff fe8b 	bl	8000814 <_ZN10TouchBoard16setAllPixelColorEhhh>
  for (int i=0; i<numBoards; i++) {
 8000afe:	68fb      	ldr	r3, [r7, #12]
 8000b00:	3301      	adds	r3, #1
 8000b02:	60fb      	str	r3, [r7, #12]
 8000b04:	687b      	ldr	r3, [r7, #4]
 8000b06:	781b      	ldrb	r3, [r3, #0]
 8000b08:	001a      	movs	r2, r3
 8000b0a:	68fb      	ldr	r3, [r7, #12]
 8000b0c:	4293      	cmp	r3, r2
 8000b0e:	dbe4      	blt.n	8000ada <_ZN15TouchBoardGroup16setAllPixelColorEhhh+0x26>
  }
}
 8000b10:	46c0      	nop			; (mov r8, r8)
 8000b12:	46c0      	nop			; (mov r8, r8)
 8000b14:	46bd      	mov	sp, r7
 8000b16:	b005      	add	sp, #20
 8000b18:	bd90      	pop	{r4, r7, pc}

08000b1a <_ZN15TouchBoardGroup13setBoardColorEhhhh>:

void TouchBoardGroup::setBoardColor(uint8_t board_num, uint8_t r, uint8_t g, uint8_t b) {
 8000b1a:	b590      	push	{r4, r7, lr}
 8000b1c:	b083      	sub	sp, #12
 8000b1e:	af00      	add	r7, sp, #0
 8000b20:	6078      	str	r0, [r7, #4]
 8000b22:	000c      	movs	r4, r1
 8000b24:	0010      	movs	r0, r2
 8000b26:	0019      	movs	r1, r3
 8000b28:	1cfb      	adds	r3, r7, #3
 8000b2a:	1c22      	adds	r2, r4, #0
 8000b2c:	701a      	strb	r2, [r3, #0]
 8000b2e:	1cbb      	adds	r3, r7, #2
 8000b30:	1c02      	adds	r2, r0, #0
 8000b32:	701a      	strb	r2, [r3, #0]
 8000b34:	1c7b      	adds	r3, r7, #1
 8000b36:	1c0a      	adds	r2, r1, #0
 8000b38:	701a      	strb	r2, [r3, #0]
  touchBoards[board_num].setAllPixelColor(r, g, b);
 8000b3a:	687b      	ldr	r3, [r7, #4]
 8000b3c:	3328      	adds	r3, #40	; 0x28
 8000b3e:	001a      	movs	r2, r3
 8000b40:	1cfb      	adds	r3, r7, #3
 8000b42:	781b      	ldrb	r3, [r3, #0]
 8000b44:	0019      	movs	r1, r3
 8000b46:	0010      	movs	r0, r2
 8000b48:	f000 f959 	bl	8000dfe <_ZNSt6vectorI10TouchBoardSaIS0_EEixEj>
 8000b4c:	0004      	movs	r4, r0
 8000b4e:	2318      	movs	r3, #24
 8000b50:	18fb      	adds	r3, r7, r3
 8000b52:	7818      	ldrb	r0, [r3, #0]
 8000b54:	1c7b      	adds	r3, r7, #1
 8000b56:	781a      	ldrb	r2, [r3, #0]
 8000b58:	1cbb      	adds	r3, r7, #2
 8000b5a:	7819      	ldrb	r1, [r3, #0]
 8000b5c:	0003      	movs	r3, r0
 8000b5e:	0020      	movs	r0, r4
 8000b60:	f7ff fe58 	bl	8000814 <_ZN10TouchBoard16setAllPixelColorEhhh>
}
 8000b64:	46c0      	nop			; (mov r8, r8)
 8000b66:	46bd      	mov	sp, r7
 8000b68:	b003      	add	sp, #12
 8000b6a:	bd90      	pop	{r4, r7, pc}

08000b6c <_ZN15TouchBoardGroup10showPixelsEv>:
  touchBoards[board_num].setAllPixelColor(255, 0, 0);
  showPixels();
  HAL_Delay(40);
}

void TouchBoardGroup::showPixels() {
 8000b6c:	b5b0      	push	{r4, r5, r7, lr}
 8000b6e:	b088      	sub	sp, #32
 8000b70:	af02      	add	r7, sp, #8
 8000b72:	6078      	str	r0, [r7, #4]
  for (int i=0; i<numBoards; i++) {
 8000b74:	2300      	movs	r3, #0
 8000b76:	617b      	str	r3, [r7, #20]
 8000b78:	e03a      	b.n	8000bf0 <_ZN15TouchBoardGroup10showPixelsEv+0x84>
    for (int j=0; j<NUM_PIXELS_PER_BOARD; j++) {
 8000b7a:	2300      	movs	r3, #0
 8000b7c:	613b      	str	r3, [r7, #16]
 8000b7e:	e031      	b.n	8000be4 <_ZN15TouchBoardGroup10showPixelsEv+0x78>
      PixelColor_s tempColor = touchBoards[i].getPixelColor(j);
 8000b80:	687b      	ldr	r3, [r7, #4]
 8000b82:	3328      	adds	r3, #40	; 0x28
 8000b84:	697a      	ldr	r2, [r7, #20]
 8000b86:	0011      	movs	r1, r2
 8000b88:	0018      	movs	r0, r3
 8000b8a:	f000 f938 	bl	8000dfe <_ZNSt6vectorI10TouchBoardSaIS0_EEixEj>
 8000b8e:	0002      	movs	r2, r0
 8000b90:	693b      	ldr	r3, [r7, #16]
 8000b92:	b2db      	uxtb	r3, r3
 8000b94:	0019      	movs	r1, r3
 8000b96:	0010      	movs	r0, r2
 8000b98:	f7ff fe76 	bl	8000888 <_ZN10TouchBoard13getPixelColorEh>
 8000b9c:	0003      	movs	r3, r0
 8000b9e:	001a      	movs	r2, r3
 8000ba0:	240c      	movs	r4, #12
 8000ba2:	193b      	adds	r3, r7, r4
 8000ba4:	1c11      	adds	r1, r2, #0
 8000ba6:	7019      	strb	r1, [r3, #0]
 8000ba8:	0411      	lsls	r1, r2, #16
 8000baa:	0e09      	lsrs	r1, r1, #24
 8000bac:	7059      	strb	r1, [r3, #1]
 8000bae:	0212      	lsls	r2, r2, #8
 8000bb0:	0e12      	lsrs	r2, r2, #24
 8000bb2:	709a      	strb	r2, [r3, #2]
      ledArray.setPixelColor(i*NUM_PIXELS_PER_BOARD+j, tempColor.r, tempColor.g, tempColor.b);
 8000bb4:	687b      	ldr	r3, [r7, #4]
 8000bb6:	1d18      	adds	r0, r3, #4
 8000bb8:	697b      	ldr	r3, [r7, #20]
 8000bba:	b29b      	uxth	r3, r3
 8000bbc:	18db      	adds	r3, r3, r3
 8000bbe:	b29a      	uxth	r2, r3
 8000bc0:	693b      	ldr	r3, [r7, #16]
 8000bc2:	b29b      	uxth	r3, r3
 8000bc4:	18d3      	adds	r3, r2, r3
 8000bc6:	b299      	uxth	r1, r3
 8000bc8:	193b      	adds	r3, r7, r4
 8000bca:	781a      	ldrb	r2, [r3, #0]
 8000bcc:	0025      	movs	r5, r4
 8000bce:	193b      	adds	r3, r7, r4
 8000bd0:	785c      	ldrb	r4, [r3, #1]
 8000bd2:	197b      	adds	r3, r7, r5
 8000bd4:	789b      	ldrb	r3, [r3, #2]
 8000bd6:	9300      	str	r3, [sp, #0]
 8000bd8:	0023      	movs	r3, r4
 8000bda:	f7ff fd4d 	bl	8000678 <_ZN8NeoPixel13setPixelColorEthhh>
    for (int j=0; j<NUM_PIXELS_PER_BOARD; j++) {
 8000bde:	693b      	ldr	r3, [r7, #16]
 8000be0:	3301      	adds	r3, #1
 8000be2:	613b      	str	r3, [r7, #16]
 8000be4:	693b      	ldr	r3, [r7, #16]
 8000be6:	2b01      	cmp	r3, #1
 8000be8:	ddca      	ble.n	8000b80 <_ZN15TouchBoardGroup10showPixelsEv+0x14>
  for (int i=0; i<numBoards; i++) {
 8000bea:	697b      	ldr	r3, [r7, #20]
 8000bec:	3301      	adds	r3, #1
 8000bee:	617b      	str	r3, [r7, #20]
 8000bf0:	687b      	ldr	r3, [r7, #4]
 8000bf2:	781b      	ldrb	r3, [r3, #0]
 8000bf4:	001a      	movs	r2, r3
 8000bf6:	697b      	ldr	r3, [r7, #20]
 8000bf8:	4293      	cmp	r3, r2
 8000bfa:	dbbe      	blt.n	8000b7a <_ZN15TouchBoardGroup10showPixelsEv+0xe>
    }
  }
  ledArray.show();
 8000bfc:	687b      	ldr	r3, [r7, #4]
 8000bfe:	3304      	adds	r3, #4
 8000c00:	0018      	movs	r0, r3
 8000c02:	f7ff fd71 	bl	80006e8 <_ZN8NeoPixel4showEv>
}
 8000c06:	46c0      	nop			; (mov r8, r8)
 8000c08:	46bd      	mov	sp, r7
 8000c0a:	b006      	add	sp, #24
 8000c0c:	bdb0      	pop	{r4, r5, r7, pc}

08000c0e <_ZN15TouchBoardGroup17updateTouchStatesEv>:

PixelColor_s TouchBoardGroup::getPixelColor(uint8_t board_num, uint8_t pixel_ind) {
  return touchBoards[board_num].getPixelColor(pixel_ind);
}

void TouchBoardGroup::updateTouchStates() {
 8000c0e:	b580      	push	{r7, lr}
 8000c10:	b084      	sub	sp, #16
 8000c12:	af00      	add	r7, sp, #0
 8000c14:	6078      	str	r0, [r7, #4]
  for (int i=0; i<numBoards; i++) {
 8000c16:	2300      	movs	r3, #0
 8000c18:	60fb      	str	r3, [r7, #12]
 8000c1a:	e00d      	b.n	8000c38 <_ZN15TouchBoardGroup17updateTouchStatesEv+0x2a>
    touchBoards[i].updateTouchState();
 8000c1c:	687b      	ldr	r3, [r7, #4]
 8000c1e:	3328      	adds	r3, #40	; 0x28
 8000c20:	68fa      	ldr	r2, [r7, #12]
 8000c22:	0011      	movs	r1, r2
 8000c24:	0018      	movs	r0, r3
 8000c26:	f000 f8ea 	bl	8000dfe <_ZNSt6vectorI10TouchBoardSaIS0_EEixEj>
 8000c2a:	0003      	movs	r3, r0
 8000c2c:	0018      	movs	r0, r3
 8000c2e:	f7ff fe6f 	bl	8000910 <_ZN10TouchBoard16updateTouchStateEv>
  for (int i=0; i<numBoards; i++) {
 8000c32:	68fb      	ldr	r3, [r7, #12]
 8000c34:	3301      	adds	r3, #1
 8000c36:	60fb      	str	r3, [r7, #12]
 8000c38:	687b      	ldr	r3, [r7, #4]
 8000c3a:	781b      	ldrb	r3, [r3, #0]
 8000c3c:	001a      	movs	r2, r3
 8000c3e:	68fb      	ldr	r3, [r7, #12]
 8000c40:	4293      	cmp	r3, r2
 8000c42:	dbeb      	blt.n	8000c1c <_ZN15TouchBoardGroup17updateTouchStatesEv+0xe>
  }
}
 8000c44:	46c0      	nop			; (mov r8, r8)
 8000c46:	46c0      	nop			; (mov r8, r8)
 8000c48:	46bd      	mov	sp, r7
 8000c4a:	b004      	add	sp, #16
 8000c4c:	bd80      	pop	{r7, pc}

08000c4e <_ZN15TouchBoardGroup14getTouchStatesEv>:

std::vector<TouchState_enum> TouchBoardGroup::getTouchStates() {
 8000c4e:	b5b0      	push	{r4, r5, r7, lr}
 8000c50:	b084      	sub	sp, #16
 8000c52:	af00      	add	r7, sp, #0
 8000c54:	6078      	str	r0, [r7, #4]
 8000c56:	6039      	str	r1, [r7, #0]
  for (int i=0; i<numBoards; i++) {
 8000c58:	2300      	movs	r3, #0
 8000c5a:	60fb      	str	r3, [r7, #12]
 8000c5c:	e017      	b.n	8000c8e <_ZN15TouchBoardGroup14getTouchStatesEv+0x40>
    touchStates[i] = touchBoards[i].getTouchState();
 8000c5e:	683b      	ldr	r3, [r7, #0]
 8000c60:	3328      	adds	r3, #40	; 0x28
 8000c62:	68fa      	ldr	r2, [r7, #12]
 8000c64:	0011      	movs	r1, r2
 8000c66:	0018      	movs	r0, r3
 8000c68:	f000 f8c9 	bl	8000dfe <_ZNSt6vectorI10TouchBoardSaIS0_EEixEj>
 8000c6c:	0005      	movs	r5, r0
 8000c6e:	683b      	ldr	r3, [r7, #0]
 8000c70:	3334      	adds	r3, #52	; 0x34
 8000c72:	68fa      	ldr	r2, [r7, #12]
 8000c74:	0011      	movs	r1, r2
 8000c76:	0018      	movs	r0, r3
 8000c78:	f000 f8cf 	bl	8000e1a <_ZNSt6vectorI15TouchState_enumSaIS0_EEixEj>
 8000c7c:	0004      	movs	r4, r0
 8000c7e:	0028      	movs	r0, r5
 8000c80:	f7ff fe63 	bl	800094a <_ZN10TouchBoard13getTouchStateEv>
 8000c84:	0003      	movs	r3, r0
 8000c86:	7023      	strb	r3, [r4, #0]
  for (int i=0; i<numBoards; i++) {
 8000c88:	68fb      	ldr	r3, [r7, #12]
 8000c8a:	3301      	adds	r3, #1
 8000c8c:	60fb      	str	r3, [r7, #12]
 8000c8e:	683b      	ldr	r3, [r7, #0]
 8000c90:	781b      	ldrb	r3, [r3, #0]
 8000c92:	001a      	movs	r2, r3
 8000c94:	68fb      	ldr	r3, [r7, #12]
 8000c96:	4293      	cmp	r3, r2
 8000c98:	dbe1      	blt.n	8000c5e <_ZN15TouchBoardGroup14getTouchStatesEv+0x10>
  }
  return touchStates;
 8000c9a:	683b      	ldr	r3, [r7, #0]
 8000c9c:	3334      	adds	r3, #52	; 0x34
 8000c9e:	001a      	movs	r2, r3
 8000ca0:	687b      	ldr	r3, [r7, #4]
 8000ca2:	0011      	movs	r1, r2
 8000ca4:	0018      	movs	r0, r3
 8000ca6:	f000 f8c5 	bl	8000e34 <_ZNSt6vectorI15TouchState_enumSaIS0_EEC1ERKS2_>
}
 8000caa:	6878      	ldr	r0, [r7, #4]
 8000cac:	46bd      	mov	sp, r7
 8000cae:	b004      	add	sp, #16
 8000cb0:	bdb0      	pop	{r4, r5, r7, pc}

08000cb2 <_ZNSaI10TouchBoardEC1Ev>:
#endif

      // _GLIBCXX_RESOLVE_LIB_DEFECTS
      // 3035. std::allocator's constructors should be constexpr
      _GLIBCXX20_CONSTEXPR
      allocator() _GLIBCXX_NOTHROW { }
 8000cb2:	b580      	push	{r7, lr}
 8000cb4:	b082      	sub	sp, #8
 8000cb6:	af00      	add	r7, sp, #0
 8000cb8:	6078      	str	r0, [r7, #4]
 8000cba:	687b      	ldr	r3, [r7, #4]
 8000cbc:	0018      	movs	r0, r3
 8000cbe:	f000 f8f7 	bl	8000eb0 <_ZN9__gnu_cxx13new_allocatorI10TouchBoardEC1Ev>
 8000cc2:	687b      	ldr	r3, [r7, #4]
 8000cc4:	0018      	movs	r0, r3
 8000cc6:	46bd      	mov	sp, r7
 8000cc8:	b002      	add	sp, #8
 8000cca:	bd80      	pop	{r7, pc}

08000ccc <_ZNSaI10TouchBoardED1Ev>:
	allocator(const allocator<_Tp1>&) _GLIBCXX_NOTHROW { }

#if __cpp_constexpr_dynamic_alloc
      constexpr
#endif
      ~allocator() _GLIBCXX_NOTHROW { }
 8000ccc:	b580      	push	{r7, lr}
 8000cce:	b082      	sub	sp, #8
 8000cd0:	af00      	add	r7, sp, #0
 8000cd2:	6078      	str	r0, [r7, #4]
 8000cd4:	687b      	ldr	r3, [r7, #4]
 8000cd6:	0018      	movs	r0, r3
 8000cd8:	f000 f8f3 	bl	8000ec2 <_ZN9__gnu_cxx13new_allocatorI10TouchBoardED1Ev>
 8000cdc:	687b      	ldr	r3, [r7, #4]
 8000cde:	0018      	movs	r0, r3
 8000ce0:	46bd      	mov	sp, r7
 8000ce2:	b002      	add	sp, #8
 8000ce4:	bd80      	pop	{r7, pc}

08000ce6 <_ZNSt6vectorI10TouchBoardSaIS0_EEC1EjRKS1_>:
       *
       *  This constructor fills the %vector with @a __n default
       *  constructed elements.
       */
      explicit
      vector(size_type __n, const allocator_type& __a = allocator_type())
 8000ce6:	b590      	push	{r4, r7, lr}
 8000ce8:	b085      	sub	sp, #20
 8000cea:	af00      	add	r7, sp, #0
 8000cec:	60f8      	str	r0, [r7, #12]
 8000cee:	60b9      	str	r1, [r7, #8]
 8000cf0:	607a      	str	r2, [r7, #4]
      : _Base(_S_check_init_len(__n, __a), __a)
 8000cf2:	68fc      	ldr	r4, [r7, #12]
 8000cf4:	687a      	ldr	r2, [r7, #4]
 8000cf6:	68bb      	ldr	r3, [r7, #8]
 8000cf8:	0011      	movs	r1, r2
 8000cfa:	0018      	movs	r0, r3
 8000cfc:	f000 f8ea 	bl	8000ed4 <_ZNSt6vectorI10TouchBoardSaIS0_EE17_S_check_init_lenEjRKS1_>
 8000d00:	0001      	movs	r1, r0
 8000d02:	687b      	ldr	r3, [r7, #4]
 8000d04:	001a      	movs	r2, r3
 8000d06:	0020      	movs	r0, r4
 8000d08:	f000 f919 	bl	8000f3e <_ZNSt12_Vector_baseI10TouchBoardSaIS0_EEC1EjRKS1_>
      { _M_default_initialize(__n); }
 8000d0c:	68ba      	ldr	r2, [r7, #8]
 8000d0e:	68fb      	ldr	r3, [r7, #12]
 8000d10:	0011      	movs	r1, r2
 8000d12:	0018      	movs	r0, r3
 8000d14:	f000 f944 	bl	8000fa0 <_ZNSt6vectorI10TouchBoardSaIS0_EE21_M_default_initializeEj>
 8000d18:	68fb      	ldr	r3, [r7, #12]
 8000d1a:	0018      	movs	r0, r3
 8000d1c:	46bd      	mov	sp, r7
 8000d1e:	b005      	add	sp, #20
 8000d20:	bd90      	pop	{r4, r7, pc}

08000d22 <_ZNSt6vectorI10TouchBoardSaIS0_EED1Ev>:
       *  The dtor only erases the elements, and note that if the
       *  elements themselves are pointers, the pointed-to memory is
       *  not touched in any way.  Managing the pointer is the user's
       *  responsibility.
       */
      ~vector() _GLIBCXX_NOEXCEPT
 8000d22:	b5b0      	push	{r4, r5, r7, lr}
 8000d24:	b082      	sub	sp, #8
 8000d26:	af00      	add	r7, sp, #0
 8000d28:	6078      	str	r0, [r7, #4]
      {
	std::_Destroy(this->_M_impl._M_start, this->_M_impl._M_finish,
 8000d2a:	687b      	ldr	r3, [r7, #4]
 8000d2c:	681c      	ldr	r4, [r3, #0]
 8000d2e:	687b      	ldr	r3, [r7, #4]
 8000d30:	685d      	ldr	r5, [r3, #4]
		      _M_get_Tp_allocator());
 8000d32:	687b      	ldr	r3, [r7, #4]
 8000d34:	0018      	movs	r0, r3
 8000d36:	f000 f94b 	bl	8000fd0 <_ZNSt12_Vector_baseI10TouchBoardSaIS0_EE19_M_get_Tp_allocatorEv>
 8000d3a:	0003      	movs	r3, r0
	std::_Destroy(this->_M_impl._M_start, this->_M_impl._M_finish,
 8000d3c:	001a      	movs	r2, r3
 8000d3e:	0029      	movs	r1, r5
 8000d40:	0020      	movs	r0, r4
 8000d42:	f000 f94e 	bl	8000fe2 <_ZSt8_DestroyIP10TouchBoardS0_EvT_S2_RSaIT0_E>
	_GLIBCXX_ASAN_ANNOTATE_BEFORE_DEALLOC;
      }
 8000d46:	687b      	ldr	r3, [r7, #4]
 8000d48:	0018      	movs	r0, r3
 8000d4a:	f000 f90f 	bl	8000f6c <_ZNSt12_Vector_baseI10TouchBoardSaIS0_EED1Ev>
 8000d4e:	687b      	ldr	r3, [r7, #4]
 8000d50:	0018      	movs	r0, r3
 8000d52:	46bd      	mov	sp, r7
 8000d54:	b002      	add	sp, #8
 8000d56:	bdb0      	pop	{r4, r5, r7, pc}

08000d58 <_ZNSaI15TouchState_enumEC1Ev>:
      allocator() _GLIBCXX_NOTHROW { }
 8000d58:	b580      	push	{r7, lr}
 8000d5a:	b082      	sub	sp, #8
 8000d5c:	af00      	add	r7, sp, #0
 8000d5e:	6078      	str	r0, [r7, #4]
 8000d60:	687b      	ldr	r3, [r7, #4]
 8000d62:	0018      	movs	r0, r3
 8000d64:	f000 f94d 	bl	8001002 <_ZN9__gnu_cxx13new_allocatorI15TouchState_enumEC1Ev>
 8000d68:	687b      	ldr	r3, [r7, #4]
 8000d6a:	0018      	movs	r0, r3
 8000d6c:	46bd      	mov	sp, r7
 8000d6e:	b002      	add	sp, #8
 8000d70:	bd80      	pop	{r7, pc}

08000d72 <_ZNSaI15TouchState_enumED1Ev>:
      ~allocator() _GLIBCXX_NOTHROW { }
 8000d72:	b580      	push	{r7, lr}
 8000d74:	b082      	sub	sp, #8
 8000d76:	af00      	add	r7, sp, #0
 8000d78:	6078      	str	r0, [r7, #4]
 8000d7a:	687b      	ldr	r3, [r7, #4]
 8000d7c:	0018      	movs	r0, r3
 8000d7e:	f000 f949 	bl	8001014 <_ZN9__gnu_cxx13new_allocatorI15TouchState_enumED1Ev>
 8000d82:	687b      	ldr	r3, [r7, #4]
 8000d84:	0018      	movs	r0, r3
 8000d86:	46bd      	mov	sp, r7
 8000d88:	b002      	add	sp, #8
 8000d8a:	bd80      	pop	{r7, pc}

08000d8c <_ZNSt6vectorI15TouchState_enumSaIS0_EEC1EjRKS1_>:
      vector(size_type __n, const allocator_type& __a = allocator_type())
 8000d8c:	b590      	push	{r4, r7, lr}
 8000d8e:	b085      	sub	sp, #20
 8000d90:	af00      	add	r7, sp, #0
 8000d92:	60f8      	str	r0, [r7, #12]
 8000d94:	60b9      	str	r1, [r7, #8]
 8000d96:	607a      	str	r2, [r7, #4]
      : _Base(_S_check_init_len(__n, __a), __a)
 8000d98:	68fc      	ldr	r4, [r7, #12]
 8000d9a:	687a      	ldr	r2, [r7, #4]
 8000d9c:	68bb      	ldr	r3, [r7, #8]
 8000d9e:	0011      	movs	r1, r2
 8000da0:	0018      	movs	r0, r3
 8000da2:	f000 f941 	bl	8001028 <_ZNSt6vectorI15TouchState_enumSaIS0_EE17_S_check_init_lenEjRKS1_>
 8000da6:	0001      	movs	r1, r0
 8000da8:	687b      	ldr	r3, [r7, #4]
 8000daa:	001a      	movs	r2, r3
 8000dac:	0020      	movs	r0, r4
 8000dae:	f000 f970 	bl	8001092 <_ZNSt12_Vector_baseI15TouchState_enumSaIS0_EEC1EjRKS1_>
      { _M_default_initialize(__n); }
 8000db2:	68ba      	ldr	r2, [r7, #8]
 8000db4:	68fb      	ldr	r3, [r7, #12]
 8000db6:	0011      	movs	r1, r2
 8000db8:	0018      	movs	r0, r3
 8000dba:	f000 f99a 	bl	80010f2 <_ZNSt6vectorI15TouchState_enumSaIS0_EE21_M_default_initializeEj>
 8000dbe:	68fb      	ldr	r3, [r7, #12]
 8000dc0:	0018      	movs	r0, r3
 8000dc2:	46bd      	mov	sp, r7
 8000dc4:	b005      	add	sp, #20
 8000dc6:	bd90      	pop	{r4, r7, pc}

08000dc8 <_ZNSt6vectorI15TouchState_enumSaIS0_EED1Ev>:
      ~vector() _GLIBCXX_NOEXCEPT
 8000dc8:	b5b0      	push	{r4, r5, r7, lr}
 8000dca:	b082      	sub	sp, #8
 8000dcc:	af00      	add	r7, sp, #0
 8000dce:	6078      	str	r0, [r7, #4]
	std::_Destroy(this->_M_impl._M_start, this->_M_impl._M_finish,
 8000dd0:	687b      	ldr	r3, [r7, #4]
 8000dd2:	681c      	ldr	r4, [r3, #0]
 8000dd4:	687b      	ldr	r3, [r7, #4]
 8000dd6:	685d      	ldr	r5, [r3, #4]
		      _M_get_Tp_allocator());
 8000dd8:	687b      	ldr	r3, [r7, #4]
 8000dda:	0018      	movs	r0, r3
 8000ddc:	f000 f9a1 	bl	8001122 <_ZNSt12_Vector_baseI15TouchState_enumSaIS0_EE19_M_get_Tp_allocatorEv>
 8000de0:	0003      	movs	r3, r0
	std::_Destroy(this->_M_impl._M_start, this->_M_impl._M_finish,
 8000de2:	001a      	movs	r2, r3
 8000de4:	0029      	movs	r1, r5
 8000de6:	0020      	movs	r0, r4
 8000de8:	f000 f9a4 	bl	8001134 <_ZSt8_DestroyIP15TouchState_enumS0_EvT_S2_RSaIT0_E>
      }
 8000dec:	687b      	ldr	r3, [r7, #4]
 8000dee:	0018      	movs	r0, r3
 8000df0:	f000 f966 	bl	80010c0 <_ZNSt12_Vector_baseI15TouchState_enumSaIS0_EED1Ev>
 8000df4:	687b      	ldr	r3, [r7, #4]
 8000df6:	0018      	movs	r0, r3
 8000df8:	46bd      	mov	sp, r7
 8000dfa:	b002      	add	sp, #8
 8000dfc:	bdb0      	pop	{r4, r5, r7, pc}

08000dfe <_ZNSt6vectorI10TouchBoardSaIS0_EEixEj>:
       *  Note that data access with this operator is unchecked and
       *  out_of_range lookups are not defined. (For checked lookups
       *  see at().)
       */
      reference
      operator[](size_type __n) _GLIBCXX_NOEXCEPT
 8000dfe:	b580      	push	{r7, lr}
 8000e00:	b082      	sub	sp, #8
 8000e02:	af00      	add	r7, sp, #0
 8000e04:	6078      	str	r0, [r7, #4]
 8000e06:	6039      	str	r1, [r7, #0]
      {
	__glibcxx_requires_subscript(__n);
	return *(this->_M_impl._M_start + __n);
 8000e08:	687b      	ldr	r3, [r7, #4]
 8000e0a:	681a      	ldr	r2, [r3, #0]
 8000e0c:	683b      	ldr	r3, [r7, #0]
 8000e0e:	011b      	lsls	r3, r3, #4
 8000e10:	18d3      	adds	r3, r2, r3
      }
 8000e12:	0018      	movs	r0, r3
 8000e14:	46bd      	mov	sp, r7
 8000e16:	b002      	add	sp, #8
 8000e18:	bd80      	pop	{r7, pc}

08000e1a <_ZNSt6vectorI15TouchState_enumSaIS0_EEixEj>:
      operator[](size_type __n) _GLIBCXX_NOEXCEPT
 8000e1a:	b580      	push	{r7, lr}
 8000e1c:	b082      	sub	sp, #8
 8000e1e:	af00      	add	r7, sp, #0
 8000e20:	6078      	str	r0, [r7, #4]
 8000e22:	6039      	str	r1, [r7, #0]
	return *(this->_M_impl._M_start + __n);
 8000e24:	687b      	ldr	r3, [r7, #4]
 8000e26:	681a      	ldr	r2, [r3, #0]
 8000e28:	683b      	ldr	r3, [r7, #0]
 8000e2a:	18d3      	adds	r3, r2, r3
      }
 8000e2c:	0018      	movs	r0, r3
 8000e2e:	46bd      	mov	sp, r7
 8000e30:	b002      	add	sp, #8
 8000e32:	bd80      	pop	{r7, pc}

08000e34 <_ZNSt6vectorI15TouchState_enumSaIS0_EEC1ERKS2_>:
      vector(const vector& __x)
 8000e34:	b5f0      	push	{r4, r5, r6, r7, lr}
 8000e36:	b085      	sub	sp, #20
 8000e38:	af00      	add	r7, sp, #0
 8000e3a:	6078      	str	r0, [r7, #4]
 8000e3c:	6039      	str	r1, [r7, #0]
	_Alloc_traits::_S_select_on_copy(__x._M_get_Tp_allocator()))
 8000e3e:	687c      	ldr	r4, [r7, #4]
 8000e40:	683b      	ldr	r3, [r7, #0]
 8000e42:	0018      	movs	r0, r3
 8000e44:	f000 f986 	bl	8001154 <_ZNKSt6vectorI15TouchState_enumSaIS0_EE4sizeEv>
 8000e48:	0005      	movs	r5, r0
 8000e4a:	683b      	ldr	r3, [r7, #0]
 8000e4c:	0018      	movs	r0, r3
 8000e4e:	f000 f99d 	bl	800118c <_ZNKSt12_Vector_baseI15TouchState_enumSaIS0_EE19_M_get_Tp_allocatorEv>
 8000e52:	0002      	movs	r2, r0
 8000e54:	260c      	movs	r6, #12
 8000e56:	19bb      	adds	r3, r7, r6
 8000e58:	0011      	movs	r1, r2
 8000e5a:	0018      	movs	r0, r3
 8000e5c:	f000 f987 	bl	800116e <_ZN9__gnu_cxx14__alloc_traitsISaI15TouchState_enumES1_E17_S_select_on_copyERKS2_>
 8000e60:	19bb      	adds	r3, r7, r6
 8000e62:	001a      	movs	r2, r3
 8000e64:	0029      	movs	r1, r5
 8000e66:	0020      	movs	r0, r4
 8000e68:	f000 f913 	bl	8001092 <_ZNSt12_Vector_baseI15TouchState_enumSaIS0_EEC1EjRKS1_>
 8000e6c:	19bb      	adds	r3, r7, r6
 8000e6e:	0018      	movs	r0, r3
 8000e70:	f7ff ff7f 	bl	8000d72 <_ZNSaI15TouchState_enumED1Ev>
	  std::__uninitialized_copy_a(__x.begin(), __x.end(),
 8000e74:	683b      	ldr	r3, [r7, #0]
 8000e76:	0018      	movs	r0, r3
 8000e78:	f000 f991 	bl	800119e <_ZNKSt6vectorI15TouchState_enumSaIS0_EE5beginEv>
 8000e7c:	0005      	movs	r5, r0
 8000e7e:	683b      	ldr	r3, [r7, #0]
 8000e80:	0018      	movs	r0, r3
 8000e82:	f000 f99c 	bl	80011be <_ZNKSt6vectorI15TouchState_enumSaIS0_EE3endEv>
 8000e86:	0006      	movs	r6, r0
 8000e88:	687b      	ldr	r3, [r7, #4]
 8000e8a:	681c      	ldr	r4, [r3, #0]
				      _M_get_Tp_allocator());
 8000e8c:	687b      	ldr	r3, [r7, #4]
 8000e8e:	0018      	movs	r0, r3
 8000e90:	f000 f947 	bl	8001122 <_ZNSt12_Vector_baseI15TouchState_enumSaIS0_EE19_M_get_Tp_allocatorEv>
 8000e94:	0003      	movs	r3, r0
	  std::__uninitialized_copy_a(__x.begin(), __x.end(),
 8000e96:	0022      	movs	r2, r4
 8000e98:	0031      	movs	r1, r6
 8000e9a:	0028      	movs	r0, r5
 8000e9c:	f000 f9a0 	bl	80011e0 <_ZSt22__uninitialized_copy_aIN9__gnu_cxx17__normal_iteratorIPK15TouchState_enumSt6vectorIS2_SaIS2_EEEEPS2_S2_ET0_T_SB_SA_RSaIT1_E>
 8000ea0:	0002      	movs	r2, r0
	this->_M_impl._M_finish =
 8000ea2:	687b      	ldr	r3, [r7, #4]
 8000ea4:	605a      	str	r2, [r3, #4]
      }
 8000ea6:	687b      	ldr	r3, [r7, #4]
 8000ea8:	0018      	movs	r0, r3
 8000eaa:	46bd      	mov	sp, r7
 8000eac:	b005      	add	sp, #20
 8000eae:	bdf0      	pop	{r4, r5, r6, r7, pc}

08000eb0 <_ZN9__gnu_cxx13new_allocatorI10TouchBoardEC1Ev>:
      // 2103. propagate_on_container_move_assignment
      typedef std::true_type propagate_on_container_move_assignment;
#endif

      _GLIBCXX20_CONSTEXPR
      new_allocator() _GLIBCXX_USE_NOEXCEPT { }
 8000eb0:	b580      	push	{r7, lr}
 8000eb2:	b082      	sub	sp, #8
 8000eb4:	af00      	add	r7, sp, #0
 8000eb6:	6078      	str	r0, [r7, #4]
 8000eb8:	687b      	ldr	r3, [r7, #4]
 8000eba:	0018      	movs	r0, r3
 8000ebc:	46bd      	mov	sp, r7
 8000ebe:	b002      	add	sp, #8
 8000ec0:	bd80      	pop	{r7, pc}

08000ec2 <_ZN9__gnu_cxx13new_allocatorI10TouchBoardED1Ev>:
      template<typename _Tp1>
	_GLIBCXX20_CONSTEXPR
	new_allocator(const new_allocator<_Tp1>&) _GLIBCXX_USE_NOEXCEPT { }

#if __cplusplus <= 201703L
      ~new_allocator() _GLIBCXX_USE_NOEXCEPT { }
 8000ec2:	b580      	push	{r7, lr}
 8000ec4:	b082      	sub	sp, #8
 8000ec6:	af00      	add	r7, sp, #0
 8000ec8:	6078      	str	r0, [r7, #4]
 8000eca:	687b      	ldr	r3, [r7, #4]
 8000ecc:	0018      	movs	r0, r3
 8000ece:	46bd      	mov	sp, r7
 8000ed0:	b002      	add	sp, #8
 8000ed2:	bd80      	pop	{r7, pc}

08000ed4 <_ZNSt6vectorI10TouchBoardSaIS0_EE17_S_check_init_lenEjRKS1_>:
	return (__len < size() || __len > max_size()) ? max_size() : __len;
      }

      // Called by constructors to check initial size.
      static size_type
      _S_check_init_len(size_type __n, const allocator_type& __a)
 8000ed4:	b5b0      	push	{r4, r5, r7, lr}
 8000ed6:	b084      	sub	sp, #16
 8000ed8:	af00      	add	r7, sp, #0
 8000eda:	6078      	str	r0, [r7, #4]
 8000edc:	6039      	str	r1, [r7, #0]
      {
	if (__n > _S_max_size(_Tp_alloc_type(__a)))
 8000ede:	683a      	ldr	r2, [r7, #0]
 8000ee0:	250c      	movs	r5, #12
 8000ee2:	197b      	adds	r3, r7, r5
 8000ee4:	0011      	movs	r1, r2
 8000ee6:	0018      	movs	r0, r3
 8000ee8:	f000 f9a8 	bl	800123c <_ZNSaI10TouchBoardEC1ERKS0_>
 8000eec:	197b      	adds	r3, r7, r5
 8000eee:	0018      	movs	r0, r3
 8000ef0:	f000 f988 	bl	8001204 <_ZNSt6vectorI10TouchBoardSaIS0_EE11_S_max_sizeERKS1_>
 8000ef4:	0002      	movs	r2, r0
 8000ef6:	687b      	ldr	r3, [r7, #4]
 8000ef8:	429a      	cmp	r2, r3
 8000efa:	419b      	sbcs	r3, r3
 8000efc:	425b      	negs	r3, r3
 8000efe:	b2dc      	uxtb	r4, r3
 8000f00:	197b      	adds	r3, r7, r5
 8000f02:	0018      	movs	r0, r3
 8000f04:	f7ff fee2 	bl	8000ccc <_ZNSaI10TouchBoardED1Ev>
 8000f08:	2c00      	cmp	r4, #0
 8000f0a:	d003      	beq.n	8000f14 <_ZNSt6vectorI10TouchBoardSaIS0_EE17_S_check_init_lenEjRKS1_+0x40>
	  __throw_length_error(
 8000f0c:	4b04      	ldr	r3, [pc, #16]	; (8000f20 <_ZNSt6vectorI10TouchBoardSaIS0_EE17_S_check_init_lenEjRKS1_+0x4c>)
 8000f0e:	0018      	movs	r0, r3
 8000f10:	f004 f876 	bl	8005000 <_ZSt20__throw_length_errorPKc>
	      __N("cannot create std::vector larger than max_size()"));
	return __n;
 8000f14:	687b      	ldr	r3, [r7, #4]
      }
 8000f16:	0018      	movs	r0, r3
 8000f18:	46bd      	mov	sp, r7
 8000f1a:	b004      	add	sp, #16
 8000f1c:	bdb0      	pop	{r4, r5, r7, pc}
 8000f1e:	46c0      	nop			; (mov r8, r8)
 8000f20:	080053c4 	.word	0x080053c4

08000f24 <_ZNSt12_Vector_baseI10TouchBoardSaIS0_EE12_Vector_implD1Ev>:
      struct _Vector_impl
 8000f24:	b580      	push	{r7, lr}
 8000f26:	b082      	sub	sp, #8
 8000f28:	af00      	add	r7, sp, #0
 8000f2a:	6078      	str	r0, [r7, #4]
 8000f2c:	687b      	ldr	r3, [r7, #4]
 8000f2e:	0018      	movs	r0, r3
 8000f30:	f7ff fecc 	bl	8000ccc <_ZNSaI10TouchBoardED1Ev>
 8000f34:	687b      	ldr	r3, [r7, #4]
 8000f36:	0018      	movs	r0, r3
 8000f38:	46bd      	mov	sp, r7
 8000f3a:	b002      	add	sp, #8
 8000f3c:	bd80      	pop	{r7, pc}

08000f3e <_ZNSt12_Vector_baseI10TouchBoardSaIS0_EEC1EjRKS1_>:
      _Vector_base(size_t __n, const allocator_type& __a)
 8000f3e:	b580      	push	{r7, lr}
 8000f40:	b084      	sub	sp, #16
 8000f42:	af00      	add	r7, sp, #0
 8000f44:	60f8      	str	r0, [r7, #12]
 8000f46:	60b9      	str	r1, [r7, #8]
 8000f48:	607a      	str	r2, [r7, #4]
      : _M_impl(__a)
 8000f4a:	68fb      	ldr	r3, [r7, #12]
 8000f4c:	687a      	ldr	r2, [r7, #4]
 8000f4e:	0011      	movs	r1, r2
 8000f50:	0018      	movs	r0, r3
 8000f52:	f000 f983 	bl	800125c <_ZNSt12_Vector_baseI10TouchBoardSaIS0_EE12_Vector_implC1ERKS1_>
      { _M_create_storage(__n); }
 8000f56:	68ba      	ldr	r2, [r7, #8]
 8000f58:	68fb      	ldr	r3, [r7, #12]
 8000f5a:	0011      	movs	r1, r2
 8000f5c:	0018      	movs	r0, r3
 8000f5e:	f000 f991 	bl	8001284 <_ZNSt12_Vector_baseI10TouchBoardSaIS0_EE17_M_create_storageEj>
 8000f62:	68fb      	ldr	r3, [r7, #12]
 8000f64:	0018      	movs	r0, r3
 8000f66:	46bd      	mov	sp, r7
 8000f68:	b004      	add	sp, #16
 8000f6a:	bd80      	pop	{r7, pc}

08000f6c <_ZNSt12_Vector_baseI10TouchBoardSaIS0_EED1Ev>:
      ~_Vector_base() _GLIBCXX_NOEXCEPT
 8000f6c:	b580      	push	{r7, lr}
 8000f6e:	b082      	sub	sp, #8
 8000f70:	af00      	add	r7, sp, #0
 8000f72:	6078      	str	r0, [r7, #4]
	_M_deallocate(_M_impl._M_start,
 8000f74:	687b      	ldr	r3, [r7, #4]
 8000f76:	6819      	ldr	r1, [r3, #0]
		      _M_impl._M_end_of_storage - _M_impl._M_start);
 8000f78:	687b      	ldr	r3, [r7, #4]
 8000f7a:	689a      	ldr	r2, [r3, #8]
 8000f7c:	687b      	ldr	r3, [r7, #4]
 8000f7e:	681b      	ldr	r3, [r3, #0]
 8000f80:	1ad3      	subs	r3, r2, r3
 8000f82:	111b      	asrs	r3, r3, #4
	_M_deallocate(_M_impl._M_start,
 8000f84:	001a      	movs	r2, r3
 8000f86:	687b      	ldr	r3, [r7, #4]
 8000f88:	0018      	movs	r0, r3
 8000f8a:	f000 f998 	bl	80012be <_ZNSt12_Vector_baseI10TouchBoardSaIS0_EE13_M_deallocateEPS0_j>
      }
 8000f8e:	687b      	ldr	r3, [r7, #4]
 8000f90:	0018      	movs	r0, r3
 8000f92:	f7ff ffc7 	bl	8000f24 <_ZNSt12_Vector_baseI10TouchBoardSaIS0_EE12_Vector_implD1Ev>
 8000f96:	687b      	ldr	r3, [r7, #4]
 8000f98:	0018      	movs	r0, r3
 8000f9a:	46bd      	mov	sp, r7
 8000f9c:	b002      	add	sp, #8
 8000f9e:	bd80      	pop	{r7, pc}

08000fa0 <_ZNSt6vectorI10TouchBoardSaIS0_EE21_M_default_initializeEj>:
      _M_default_initialize(size_type __n)
 8000fa0:	b590      	push	{r4, r7, lr}
 8000fa2:	b083      	sub	sp, #12
 8000fa4:	af00      	add	r7, sp, #0
 8000fa6:	6078      	str	r0, [r7, #4]
 8000fa8:	6039      	str	r1, [r7, #0]
	  std::__uninitialized_default_n_a(this->_M_impl._M_start, __n,
 8000faa:	687b      	ldr	r3, [r7, #4]
 8000fac:	681c      	ldr	r4, [r3, #0]
					   _M_get_Tp_allocator());
 8000fae:	687b      	ldr	r3, [r7, #4]
 8000fb0:	0018      	movs	r0, r3
 8000fb2:	f000 f80d 	bl	8000fd0 <_ZNSt12_Vector_baseI10TouchBoardSaIS0_EE19_M_get_Tp_allocatorEv>
 8000fb6:	0002      	movs	r2, r0
	  std::__uninitialized_default_n_a(this->_M_impl._M_start, __n,
 8000fb8:	683b      	ldr	r3, [r7, #0]
 8000fba:	0019      	movs	r1, r3
 8000fbc:	0020      	movs	r0, r4
 8000fbe:	f000 f991 	bl	80012e4 <_ZSt27__uninitialized_default_n_aIP10TouchBoardjS0_ET_S2_T0_RSaIT1_E>
 8000fc2:	0002      	movs	r2, r0
	this->_M_impl._M_finish =
 8000fc4:	687b      	ldr	r3, [r7, #4]
 8000fc6:	605a      	str	r2, [r3, #4]
      }
 8000fc8:	46c0      	nop			; (mov r8, r8)
 8000fca:	46bd      	mov	sp, r7
 8000fcc:	b003      	add	sp, #12
 8000fce:	bd90      	pop	{r4, r7, pc}

08000fd0 <_ZNSt12_Vector_baseI10TouchBoardSaIS0_EE19_M_get_Tp_allocatorEv>:
      _M_get_Tp_allocator() _GLIBCXX_NOEXCEPT
 8000fd0:	b580      	push	{r7, lr}
 8000fd2:	b082      	sub	sp, #8
 8000fd4:	af00      	add	r7, sp, #0
 8000fd6:	6078      	str	r0, [r7, #4]
      { return this->_M_impl; }
 8000fd8:	687b      	ldr	r3, [r7, #4]
 8000fda:	0018      	movs	r0, r3
 8000fdc:	46bd      	mov	sp, r7
 8000fde:	b002      	add	sp, #8
 8000fe0:	bd80      	pop	{r7, pc}

08000fe2 <_ZSt8_DestroyIP10TouchBoardS0_EvT_S2_RSaIT0_E>:
#endif
    }

  template<typename _ForwardIterator, typename _Tp>
    inline void
    _Destroy(_ForwardIterator __first, _ForwardIterator __last,
 8000fe2:	b580      	push	{r7, lr}
 8000fe4:	b084      	sub	sp, #16
 8000fe6:	af00      	add	r7, sp, #0
 8000fe8:	60f8      	str	r0, [r7, #12]
 8000fea:	60b9      	str	r1, [r7, #8]
 8000fec:	607a      	str	r2, [r7, #4]
	     allocator<_Tp>&)
    {
      _Destroy(__first, __last);
 8000fee:	68ba      	ldr	r2, [r7, #8]
 8000ff0:	68fb      	ldr	r3, [r7, #12]
 8000ff2:	0011      	movs	r1, r2
 8000ff4:	0018      	movs	r0, r3
 8000ff6:	f000 f986 	bl	8001306 <_ZSt8_DestroyIP10TouchBoardEvT_S2_>
    }
 8000ffa:	46c0      	nop			; (mov r8, r8)
 8000ffc:	46bd      	mov	sp, r7
 8000ffe:	b004      	add	sp, #16
 8001000:	bd80      	pop	{r7, pc}

08001002 <_ZN9__gnu_cxx13new_allocatorI15TouchState_enumEC1Ev>:
      new_allocator() _GLIBCXX_USE_NOEXCEPT { }
 8001002:	b580      	push	{r7, lr}
 8001004:	b082      	sub	sp, #8
 8001006:	af00      	add	r7, sp, #0
 8001008:	6078      	str	r0, [r7, #4]
 800100a:	687b      	ldr	r3, [r7, #4]
 800100c:	0018      	movs	r0, r3
 800100e:	46bd      	mov	sp, r7
 8001010:	b002      	add	sp, #8
 8001012:	bd80      	pop	{r7, pc}

08001014 <_ZN9__gnu_cxx13new_allocatorI15TouchState_enumED1Ev>:
      ~new_allocator() _GLIBCXX_USE_NOEXCEPT { }
 8001014:	b580      	push	{r7, lr}
 8001016:	b082      	sub	sp, #8
 8001018:	af00      	add	r7, sp, #0
 800101a:	6078      	str	r0, [r7, #4]
 800101c:	687b      	ldr	r3, [r7, #4]
 800101e:	0018      	movs	r0, r3
 8001020:	46bd      	mov	sp, r7
 8001022:	b002      	add	sp, #8
 8001024:	bd80      	pop	{r7, pc}
	...

08001028 <_ZNSt6vectorI15TouchState_enumSaIS0_EE17_S_check_init_lenEjRKS1_>:
      _S_check_init_len(size_type __n, const allocator_type& __a)
 8001028:	b5b0      	push	{r4, r5, r7, lr}
 800102a:	b084      	sub	sp, #16
 800102c:	af00      	add	r7, sp, #0
 800102e:	6078      	str	r0, [r7, #4]
 8001030:	6039      	str	r1, [r7, #0]
	if (__n > _S_max_size(_Tp_alloc_type(__a)))
 8001032:	683a      	ldr	r2, [r7, #0]
 8001034:	250c      	movs	r5, #12
 8001036:	197b      	adds	r3, r7, r5
 8001038:	0011      	movs	r1, r2
 800103a:	0018      	movs	r0, r3
 800103c:	f000 f98e 	bl	800135c <_ZNSaI15TouchState_enumEC1ERKS0_>
 8001040:	197b      	adds	r3, r7, r5
 8001042:	0018      	movs	r0, r3
 8001044:	f000 f96e 	bl	8001324 <_ZNSt6vectorI15TouchState_enumSaIS0_EE11_S_max_sizeERKS1_>
 8001048:	0002      	movs	r2, r0
 800104a:	687b      	ldr	r3, [r7, #4]
 800104c:	429a      	cmp	r2, r3
 800104e:	419b      	sbcs	r3, r3
 8001050:	425b      	negs	r3, r3
 8001052:	b2dc      	uxtb	r4, r3
 8001054:	197b      	adds	r3, r7, r5
 8001056:	0018      	movs	r0, r3
 8001058:	f7ff fe8b 	bl	8000d72 <_ZNSaI15TouchState_enumED1Ev>
 800105c:	2c00      	cmp	r4, #0
 800105e:	d003      	beq.n	8001068 <_ZNSt6vectorI15TouchState_enumSaIS0_EE17_S_check_init_lenEjRKS1_+0x40>
	  __throw_length_error(
 8001060:	4b04      	ldr	r3, [pc, #16]	; (8001074 <_ZNSt6vectorI15TouchState_enumSaIS0_EE17_S_check_init_lenEjRKS1_+0x4c>)
 8001062:	0018      	movs	r0, r3
 8001064:	f003 ffcc 	bl	8005000 <_ZSt20__throw_length_errorPKc>
	return __n;
 8001068:	687b      	ldr	r3, [r7, #4]
      }
 800106a:	0018      	movs	r0, r3
 800106c:	46bd      	mov	sp, r7
 800106e:	b004      	add	sp, #16
 8001070:	bdb0      	pop	{r4, r5, r7, pc}
 8001072:	46c0      	nop			; (mov r8, r8)
 8001074:	080053c4 	.word	0x080053c4

08001078 <_ZNSt12_Vector_baseI15TouchState_enumSaIS0_EE12_Vector_implD1Ev>:
      struct _Vector_impl
 8001078:	b580      	push	{r7, lr}
 800107a:	b082      	sub	sp, #8
 800107c:	af00      	add	r7, sp, #0
 800107e:	6078      	str	r0, [r7, #4]
 8001080:	687b      	ldr	r3, [r7, #4]
 8001082:	0018      	movs	r0, r3
 8001084:	f7ff fe75 	bl	8000d72 <_ZNSaI15TouchState_enumED1Ev>
 8001088:	687b      	ldr	r3, [r7, #4]
 800108a:	0018      	movs	r0, r3
 800108c:	46bd      	mov	sp, r7
 800108e:	b002      	add	sp, #8
 8001090:	bd80      	pop	{r7, pc}

08001092 <_ZNSt12_Vector_baseI15TouchState_enumSaIS0_EEC1EjRKS1_>:
      _Vector_base(size_t __n, const allocator_type& __a)
 8001092:	b580      	push	{r7, lr}
 8001094:	b084      	sub	sp, #16
 8001096:	af00      	add	r7, sp, #0
 8001098:	60f8      	str	r0, [r7, #12]
 800109a:	60b9      	str	r1, [r7, #8]
 800109c:	607a      	str	r2, [r7, #4]
      : _M_impl(__a)
 800109e:	68fb      	ldr	r3, [r7, #12]
 80010a0:	687a      	ldr	r2, [r7, #4]
 80010a2:	0011      	movs	r1, r2
 80010a4:	0018      	movs	r0, r3
 80010a6:	f000 f969 	bl	800137c <_ZNSt12_Vector_baseI15TouchState_enumSaIS0_EE12_Vector_implC1ERKS1_>
      { _M_create_storage(__n); }
 80010aa:	68ba      	ldr	r2, [r7, #8]
 80010ac:	68fb      	ldr	r3, [r7, #12]
 80010ae:	0011      	movs	r1, r2
 80010b0:	0018      	movs	r0, r3
 80010b2:	f000 f977 	bl	80013a4 <_ZNSt12_Vector_baseI15TouchState_enumSaIS0_EE17_M_create_storageEj>
 80010b6:	68fb      	ldr	r3, [r7, #12]
 80010b8:	0018      	movs	r0, r3
 80010ba:	46bd      	mov	sp, r7
 80010bc:	b004      	add	sp, #16
 80010be:	bd80      	pop	{r7, pc}

080010c0 <_ZNSt12_Vector_baseI15TouchState_enumSaIS0_EED1Ev>:
      ~_Vector_base() _GLIBCXX_NOEXCEPT
 80010c0:	b580      	push	{r7, lr}
 80010c2:	b082      	sub	sp, #8
 80010c4:	af00      	add	r7, sp, #0
 80010c6:	6078      	str	r0, [r7, #4]
	_M_deallocate(_M_impl._M_start,
 80010c8:	687b      	ldr	r3, [r7, #4]
 80010ca:	6819      	ldr	r1, [r3, #0]
		      _M_impl._M_end_of_storage - _M_impl._M_start);
 80010cc:	687b      	ldr	r3, [r7, #4]
 80010ce:	689a      	ldr	r2, [r3, #8]
 80010d0:	687b      	ldr	r3, [r7, #4]
 80010d2:	681b      	ldr	r3, [r3, #0]
 80010d4:	1ad3      	subs	r3, r2, r3
	_M_deallocate(_M_impl._M_start,
 80010d6:	001a      	movs	r2, r3
 80010d8:	687b      	ldr	r3, [r7, #4]
 80010da:	0018      	movs	r0, r3
 80010dc:	f000 f97e 	bl	80013dc <_ZNSt12_Vector_baseI15TouchState_enumSaIS0_EE13_M_deallocateEPS0_j>
      }
 80010e0:	687b      	ldr	r3, [r7, #4]
 80010e2:	0018      	movs	r0, r3
 80010e4:	f7ff ffc8 	bl	8001078 <_ZNSt12_Vector_baseI15TouchState_enumSaIS0_EE12_Vector_implD1Ev>
 80010e8:	687b      	ldr	r3, [r7, #4]
 80010ea:	0018      	movs	r0, r3
 80010ec:	46bd      	mov	sp, r7
 80010ee:	b002      	add	sp, #8
 80010f0:	bd80      	pop	{r7, pc}

080010f2 <_ZNSt6vectorI15TouchState_enumSaIS0_EE21_M_default_initializeEj>:
      _M_default_initialize(size_type __n)
 80010f2:	b590      	push	{r4, r7, lr}
 80010f4:	b083      	sub	sp, #12
 80010f6:	af00      	add	r7, sp, #0
 80010f8:	6078      	str	r0, [r7, #4]
 80010fa:	6039      	str	r1, [r7, #0]
	  std::__uninitialized_default_n_a(this->_M_impl._M_start, __n,
 80010fc:	687b      	ldr	r3, [r7, #4]
 80010fe:	681c      	ldr	r4, [r3, #0]
					   _M_get_Tp_allocator());
 8001100:	687b      	ldr	r3, [r7, #4]
 8001102:	0018      	movs	r0, r3
 8001104:	f000 f80d 	bl	8001122 <_ZNSt12_Vector_baseI15TouchState_enumSaIS0_EE19_M_get_Tp_allocatorEv>
 8001108:	0002      	movs	r2, r0
	  std::__uninitialized_default_n_a(this->_M_impl._M_start, __n,
 800110a:	683b      	ldr	r3, [r7, #0]
 800110c:	0019      	movs	r1, r3
 800110e:	0020      	movs	r0, r4
 8001110:	f000 f977 	bl	8001402 <_ZSt27__uninitialized_default_n_aIP15TouchState_enumjS0_ET_S2_T0_RSaIT1_E>
 8001114:	0002      	movs	r2, r0
	this->_M_impl._M_finish =
 8001116:	687b      	ldr	r3, [r7, #4]
 8001118:	605a      	str	r2, [r3, #4]
      }
 800111a:	46c0      	nop			; (mov r8, r8)
 800111c:	46bd      	mov	sp, r7
 800111e:	b003      	add	sp, #12
 8001120:	bd90      	pop	{r4, r7, pc}

08001122 <_ZNSt12_Vector_baseI15TouchState_enumSaIS0_EE19_M_get_Tp_allocatorEv>:
      _M_get_Tp_allocator() _GLIBCXX_NOEXCEPT
 8001122:	b580      	push	{r7, lr}
 8001124:	b082      	sub	sp, #8
 8001126:	af00      	add	r7, sp, #0
 8001128:	6078      	str	r0, [r7, #4]
      { return this->_M_impl; }
 800112a:	687b      	ldr	r3, [r7, #4]
 800112c:	0018      	movs	r0, r3
 800112e:	46bd      	mov	sp, r7
 8001130:	b002      	add	sp, #8
 8001132:	bd80      	pop	{r7, pc}

08001134 <_ZSt8_DestroyIP15TouchState_enumS0_EvT_S2_RSaIT0_E>:
    _Destroy(_ForwardIterator __first, _ForwardIterator __last,
 8001134:	b580      	push	{r7, lr}
 8001136:	b084      	sub	sp, #16
 8001138:	af00      	add	r7, sp, #0
 800113a:	60f8      	str	r0, [r7, #12]
 800113c:	60b9      	str	r1, [r7, #8]
 800113e:	607a      	str	r2, [r7, #4]
      _Destroy(__first, __last);
 8001140:	68ba      	ldr	r2, [r7, #8]
 8001142:	68fb      	ldr	r3, [r7, #12]
 8001144:	0011      	movs	r1, r2
 8001146:	0018      	movs	r0, r3
 8001148:	f000 f96c 	bl	8001424 <_ZSt8_DestroyIP15TouchState_enumEvT_S2_>
    }
 800114c:	46c0      	nop			; (mov r8, r8)
 800114e:	46bd      	mov	sp, r7
 8001150:	b004      	add	sp, #16
 8001152:	bd80      	pop	{r7, pc}

08001154 <_ZNKSt6vectorI15TouchState_enumSaIS0_EE4sizeEv>:
      size() const _GLIBCXX_NOEXCEPT
 8001154:	b580      	push	{r7, lr}
 8001156:	b082      	sub	sp, #8
 8001158:	af00      	add	r7, sp, #0
 800115a:	6078      	str	r0, [r7, #4]
      { return size_type(this->_M_impl._M_finish - this->_M_impl._M_start); }
 800115c:	687b      	ldr	r3, [r7, #4]
 800115e:	685a      	ldr	r2, [r3, #4]
 8001160:	687b      	ldr	r3, [r7, #4]
 8001162:	681b      	ldr	r3, [r3, #0]
 8001164:	1ad3      	subs	r3, r2, r3
 8001166:	0018      	movs	r0, r3
 8001168:	46bd      	mov	sp, r7
 800116a:	b002      	add	sp, #8
 800116c:	bd80      	pop	{r7, pc}

0800116e <_ZN9__gnu_cxx14__alloc_traitsISaI15TouchState_enumES1_E17_S_select_on_copyERKS2_>:
      std::__enable_if_t<__is_custom_pointer<_Ptr>::value>
      destroy(_Alloc& __a, _Ptr __p)
      noexcept(noexcept(_Base_type::destroy(__a, std::__to_address(__p))))
      { _Base_type::destroy(__a, std::__to_address(__p)); }

    static constexpr _Alloc _S_select_on_copy(const _Alloc& __a)
 800116e:	b580      	push	{r7, lr}
 8001170:	b082      	sub	sp, #8
 8001172:	af00      	add	r7, sp, #0
 8001174:	6078      	str	r0, [r7, #4]
 8001176:	6039      	str	r1, [r7, #0]
    { return _Base_type::select_on_container_copy_construction(__a); }
 8001178:	687b      	ldr	r3, [r7, #4]
 800117a:	683a      	ldr	r2, [r7, #0]
 800117c:	0011      	movs	r1, r2
 800117e:	0018      	movs	r0, r3
 8001180:	f000 f95f 	bl	8001442 <_ZNSt16allocator_traitsISaI15TouchState_enumEE37select_on_container_copy_constructionERKS1_>
 8001184:	6878      	ldr	r0, [r7, #4]
 8001186:	46bd      	mov	sp, r7
 8001188:	b002      	add	sp, #8
 800118a:	bd80      	pop	{r7, pc}

0800118c <_ZNKSt12_Vector_baseI15TouchState_enumSaIS0_EE19_M_get_Tp_allocatorEv>:
      _M_get_Tp_allocator() const _GLIBCXX_NOEXCEPT
 800118c:	b580      	push	{r7, lr}
 800118e:	b082      	sub	sp, #8
 8001190:	af00      	add	r7, sp, #0
 8001192:	6078      	str	r0, [r7, #4]
      { return this->_M_impl; }
 8001194:	687b      	ldr	r3, [r7, #4]
 8001196:	0018      	movs	r0, r3
 8001198:	46bd      	mov	sp, r7
 800119a:	b002      	add	sp, #8
 800119c:	bd80      	pop	{r7, pc}

0800119e <_ZNKSt6vectorI15TouchState_enumSaIS0_EE5beginEv>:
      begin() const _GLIBCXX_NOEXCEPT
 800119e:	b580      	push	{r7, lr}
 80011a0:	b084      	sub	sp, #16
 80011a2:	af00      	add	r7, sp, #0
 80011a4:	6078      	str	r0, [r7, #4]
      { return const_iterator(this->_M_impl._M_start); }
 80011a6:	687a      	ldr	r2, [r7, #4]
 80011a8:	230c      	movs	r3, #12
 80011aa:	18fb      	adds	r3, r7, r3
 80011ac:	0011      	movs	r1, r2
 80011ae:	0018      	movs	r0, r3
 80011b0:	f000 f956 	bl	8001460 <_ZN9__gnu_cxx17__normal_iteratorIPK15TouchState_enumSt6vectorIS1_SaIS1_EEEC1ERKS3_>
 80011b4:	68fb      	ldr	r3, [r7, #12]
 80011b6:	0018      	movs	r0, r3
 80011b8:	46bd      	mov	sp, r7
 80011ba:	b004      	add	sp, #16
 80011bc:	bd80      	pop	{r7, pc}

080011be <_ZNKSt6vectorI15TouchState_enumSaIS0_EE3endEv>:
      end() const _GLIBCXX_NOEXCEPT
 80011be:	b580      	push	{r7, lr}
 80011c0:	b084      	sub	sp, #16
 80011c2:	af00      	add	r7, sp, #0
 80011c4:	6078      	str	r0, [r7, #4]
      { return const_iterator(this->_M_impl._M_finish); }
 80011c6:	687b      	ldr	r3, [r7, #4]
 80011c8:	1d1a      	adds	r2, r3, #4
 80011ca:	230c      	movs	r3, #12
 80011cc:	18fb      	adds	r3, r7, r3
 80011ce:	0011      	movs	r1, r2
 80011d0:	0018      	movs	r0, r3
 80011d2:	f000 f945 	bl	8001460 <_ZN9__gnu_cxx17__normal_iteratorIPK15TouchState_enumSt6vectorIS1_SaIS1_EEEC1ERKS3_>
 80011d6:	68fb      	ldr	r3, [r7, #12]
 80011d8:	0018      	movs	r0, r3
 80011da:	46bd      	mov	sp, r7
 80011dc:	b004      	add	sp, #16
 80011de:	bd80      	pop	{r7, pc}

080011e0 <_ZSt22__uninitialized_copy_aIN9__gnu_cxx17__normal_iteratorIPK15TouchState_enumSt6vectorIS2_SaIS2_EEEEPS2_S2_ET0_T_SB_SA_RSaIT1_E>:
	}
    }

  template<typename _InputIterator, typename _ForwardIterator, typename _Tp>
    inline _ForwardIterator
    __uninitialized_copy_a(_InputIterator __first, _InputIterator __last,
 80011e0:	b580      	push	{r7, lr}
 80011e2:	b084      	sub	sp, #16
 80011e4:	af00      	add	r7, sp, #0
 80011e6:	60f8      	str	r0, [r7, #12]
 80011e8:	60b9      	str	r1, [r7, #8]
 80011ea:	607a      	str	r2, [r7, #4]
 80011ec:	603b      	str	r3, [r7, #0]
			   _ForwardIterator __result, allocator<_Tp>&)
    { return std::uninitialized_copy(__first, __last, __result); }
 80011ee:	687a      	ldr	r2, [r7, #4]
 80011f0:	68b9      	ldr	r1, [r7, #8]
 80011f2:	68fb      	ldr	r3, [r7, #12]
 80011f4:	0018      	movs	r0, r3
 80011f6:	f000 f941 	bl	800147c <_ZSt18uninitialized_copyIN9__gnu_cxx17__normal_iteratorIPK15TouchState_enumSt6vectorIS2_SaIS2_EEEEPS2_ET0_T_SB_SA_>
 80011fa:	0003      	movs	r3, r0
 80011fc:	0018      	movs	r0, r3
 80011fe:	46bd      	mov	sp, r7
 8001200:	b004      	add	sp, #16
 8001202:	bd80      	pop	{r7, pc}

08001204 <_ZNSt6vectorI10TouchBoardSaIS0_EE11_S_max_sizeERKS1_>:

      static size_type
      _S_max_size(const _Tp_alloc_type& __a) _GLIBCXX_NOEXCEPT
 8001204:	b580      	push	{r7, lr}
 8001206:	b084      	sub	sp, #16
 8001208:	af00      	add	r7, sp, #0
 800120a:	6078      	str	r0, [r7, #4]
      {
	// std::distance(begin(), end()) cannot be greater than PTRDIFF_MAX,
	// and realistically we can't store more than PTRDIFF_MAX/sizeof(T)
	// (even if std::allocator_traits::max_size says we can).
	const size_t __diffmax
 800120c:	4b0a      	ldr	r3, [pc, #40]	; (8001238 <_ZNSt6vectorI10TouchBoardSaIS0_EE11_S_max_sizeERKS1_+0x34>)
 800120e:	60fb      	str	r3, [r7, #12]
	  = __gnu_cxx::__numeric_traits<ptrdiff_t>::__max / sizeof(_Tp);
	const size_t __allocmax = _Alloc_traits::max_size(__a);
 8001210:	687b      	ldr	r3, [r7, #4]
 8001212:	0018      	movs	r0, r3
 8001214:	f000 f947 	bl	80014a6 <_ZNSt16allocator_traitsISaI10TouchBoardEE8max_sizeERKS1_>
 8001218:	0003      	movs	r3, r0
 800121a:	60bb      	str	r3, [r7, #8]
	return (std::min)(__diffmax, __allocmax);
 800121c:	2308      	movs	r3, #8
 800121e:	18fa      	adds	r2, r7, r3
 8001220:	230c      	movs	r3, #12
 8001222:	18fb      	adds	r3, r7, r3
 8001224:	0011      	movs	r1, r2
 8001226:	0018      	movs	r0, r3
 8001228:	f000 f94a 	bl	80014c0 <_ZSt3minIjERKT_S2_S2_>
 800122c:	0003      	movs	r3, r0
 800122e:	681b      	ldr	r3, [r3, #0]
      }
 8001230:	0018      	movs	r0, r3
 8001232:	46bd      	mov	sp, r7
 8001234:	b004      	add	sp, #16
 8001236:	bd80      	pop	{r7, pc}
 8001238:	07ffffff 	.word	0x07ffffff

0800123c <_ZNSaI10TouchBoardEC1ERKS0_>:
      allocator(const allocator& __a) _GLIBCXX_NOTHROW
 800123c:	b580      	push	{r7, lr}
 800123e:	b082      	sub	sp, #8
 8001240:	af00      	add	r7, sp, #0
 8001242:	6078      	str	r0, [r7, #4]
 8001244:	6039      	str	r1, [r7, #0]
      : __allocator_base<_Tp>(__a) { }
 8001246:	683a      	ldr	r2, [r7, #0]
 8001248:	687b      	ldr	r3, [r7, #4]
 800124a:	0011      	movs	r1, r2
 800124c:	0018      	movs	r0, r3
 800124e:	f000 f949 	bl	80014e4 <_ZN9__gnu_cxx13new_allocatorI10TouchBoardEC1ERKS2_>
 8001252:	687b      	ldr	r3, [r7, #4]
 8001254:	0018      	movs	r0, r3
 8001256:	46bd      	mov	sp, r7
 8001258:	b002      	add	sp, #8
 800125a:	bd80      	pop	{r7, pc}

0800125c <_ZNSt12_Vector_baseI10TouchBoardSaIS0_EE12_Vector_implC1ERKS1_>:
	_Vector_impl(_Tp_alloc_type const& __a) _GLIBCXX_NOEXCEPT
 800125c:	b580      	push	{r7, lr}
 800125e:	b082      	sub	sp, #8
 8001260:	af00      	add	r7, sp, #0
 8001262:	6078      	str	r0, [r7, #4]
 8001264:	6039      	str	r1, [r7, #0]
	: _Tp_alloc_type(__a)
 8001266:	683a      	ldr	r2, [r7, #0]
 8001268:	687b      	ldr	r3, [r7, #4]
 800126a:	0011      	movs	r1, r2
 800126c:	0018      	movs	r0, r3
 800126e:	f7ff ffe5 	bl	800123c <_ZNSaI10TouchBoardEC1ERKS0_>
 8001272:	687b      	ldr	r3, [r7, #4]
 8001274:	0018      	movs	r0, r3
 8001276:	f000 f93f 	bl	80014f8 <_ZNSt12_Vector_baseI10TouchBoardSaIS0_EE17_Vector_impl_dataC1Ev>
	{ }
 800127a:	687b      	ldr	r3, [r7, #4]
 800127c:	0018      	movs	r0, r3
 800127e:	46bd      	mov	sp, r7
 8001280:	b002      	add	sp, #8
 8001282:	bd80      	pop	{r7, pc}

08001284 <_ZNSt12_Vector_baseI10TouchBoardSaIS0_EE17_M_create_storageEj>:
      _M_create_storage(size_t __n)
 8001284:	b580      	push	{r7, lr}
 8001286:	b082      	sub	sp, #8
 8001288:	af00      	add	r7, sp, #0
 800128a:	6078      	str	r0, [r7, #4]
 800128c:	6039      	str	r1, [r7, #0]
	this->_M_impl._M_start = this->_M_allocate(__n);
 800128e:	683a      	ldr	r2, [r7, #0]
 8001290:	687b      	ldr	r3, [r7, #4]
 8001292:	0011      	movs	r1, r2
 8001294:	0018      	movs	r0, r3
 8001296:	f000 f941 	bl	800151c <_ZNSt12_Vector_baseI10TouchBoardSaIS0_EE11_M_allocateEj>
 800129a:	0002      	movs	r2, r0
 800129c:	687b      	ldr	r3, [r7, #4]
 800129e:	601a      	str	r2, [r3, #0]
	this->_M_impl._M_finish = this->_M_impl._M_start;
 80012a0:	687b      	ldr	r3, [r7, #4]
 80012a2:	681a      	ldr	r2, [r3, #0]
 80012a4:	687b      	ldr	r3, [r7, #4]
 80012a6:	605a      	str	r2, [r3, #4]
	this->_M_impl._M_end_of_storage = this->_M_impl._M_start + __n;
 80012a8:	687b      	ldr	r3, [r7, #4]
 80012aa:	681a      	ldr	r2, [r3, #0]
 80012ac:	683b      	ldr	r3, [r7, #0]
 80012ae:	011b      	lsls	r3, r3, #4
 80012b0:	18d2      	adds	r2, r2, r3
 80012b2:	687b      	ldr	r3, [r7, #4]
 80012b4:	609a      	str	r2, [r3, #8]
      }
 80012b6:	46c0      	nop			; (mov r8, r8)
 80012b8:	46bd      	mov	sp, r7
 80012ba:	b002      	add	sp, #8
 80012bc:	bd80      	pop	{r7, pc}

080012be <_ZNSt12_Vector_baseI10TouchBoardSaIS0_EE13_M_deallocateEPS0_j>:
      _M_deallocate(pointer __p, size_t __n)
 80012be:	b580      	push	{r7, lr}
 80012c0:	b084      	sub	sp, #16
 80012c2:	af00      	add	r7, sp, #0
 80012c4:	60f8      	str	r0, [r7, #12]
 80012c6:	60b9      	str	r1, [r7, #8]
 80012c8:	607a      	str	r2, [r7, #4]
	if (__p)
 80012ca:	68bb      	ldr	r3, [r7, #8]
 80012cc:	2b00      	cmp	r3, #0
 80012ce:	d005      	beq.n	80012dc <_ZNSt12_Vector_baseI10TouchBoardSaIS0_EE13_M_deallocateEPS0_j+0x1e>
	  _Tr::deallocate(_M_impl, __p, __n);
 80012d0:	68fb      	ldr	r3, [r7, #12]
 80012d2:	687a      	ldr	r2, [r7, #4]
 80012d4:	68b9      	ldr	r1, [r7, #8]
 80012d6:	0018      	movs	r0, r3
 80012d8:	f000 f935 	bl	8001546 <_ZNSt16allocator_traitsISaI10TouchBoardEE10deallocateERS1_PS0_j>
      }
 80012dc:	46c0      	nop			; (mov r8, r8)
 80012de:	46bd      	mov	sp, r7
 80012e0:	b004      	add	sp, #16
 80012e2:	bd80      	pop	{r7, pc}

080012e4 <_ZSt27__uninitialized_default_n_aIP10TouchBoardjS0_ET_S2_T0_RSaIT1_E>:

  // __uninitialized_default_n_a specialization for std::allocator,
  // which ignores the allocator and value-initializes the elements.
  template<typename _ForwardIterator, typename _Size, typename _Tp>
    inline _ForwardIterator
    __uninitialized_default_n_a(_ForwardIterator __first, _Size __n, 
 80012e4:	b580      	push	{r7, lr}
 80012e6:	b084      	sub	sp, #16
 80012e8:	af00      	add	r7, sp, #0
 80012ea:	60f8      	str	r0, [r7, #12]
 80012ec:	60b9      	str	r1, [r7, #8]
 80012ee:	607a      	str	r2, [r7, #4]
				allocator<_Tp>&)
    { return std::__uninitialized_default_n(__first, __n); }
 80012f0:	68ba      	ldr	r2, [r7, #8]
 80012f2:	68fb      	ldr	r3, [r7, #12]
 80012f4:	0011      	movs	r1, r2
 80012f6:	0018      	movs	r0, r3
 80012f8:	f000 f935 	bl	8001566 <_ZSt25__uninitialized_default_nIP10TouchBoardjET_S2_T0_>
 80012fc:	0003      	movs	r3, r0
 80012fe:	0018      	movs	r0, r3
 8001300:	46bd      	mov	sp, r7
 8001302:	b004      	add	sp, #16
 8001304:	bd80      	pop	{r7, pc}

08001306 <_ZSt8_DestroyIP10TouchBoardEvT_S2_>:
   * a trivial destructor, the compiler should optimize all of this
   * away, otherwise the objects' destructors must be invoked.
   */
  template<typename _ForwardIterator>
    _GLIBCXX20_CONSTEXPR inline void
    _Destroy(_ForwardIterator __first, _ForwardIterator __last)
 8001306:	b580      	push	{r7, lr}
 8001308:	b082      	sub	sp, #8
 800130a:	af00      	add	r7, sp, #0
 800130c:	6078      	str	r0, [r7, #4]
 800130e:	6039      	str	r1, [r7, #0]
#if __cplusplus > 201703L && defined __cpp_lib_is_constant_evaluated
      if (std::is_constant_evaluated())
	return _Destroy_aux<false>::__destroy(__first, __last);
#endif
      std::_Destroy_aux<__has_trivial_destructor(_Value_type)>::
	__destroy(__first, __last);
 8001310:	683a      	ldr	r2, [r7, #0]
 8001312:	687b      	ldr	r3, [r7, #4]
 8001314:	0011      	movs	r1, r2
 8001316:	0018      	movs	r0, r3
 8001318:	f000 f939 	bl	800158e <_ZNSt12_Destroy_auxILb0EE9__destroyIP10TouchBoardEEvT_S4_>
    }
 800131c:	46c0      	nop			; (mov r8, r8)
 800131e:	46bd      	mov	sp, r7
 8001320:	b002      	add	sp, #8
 8001322:	bd80      	pop	{r7, pc}

08001324 <_ZNSt6vectorI15TouchState_enumSaIS0_EE11_S_max_sizeERKS1_>:
      _S_max_size(const _Tp_alloc_type& __a) _GLIBCXX_NOEXCEPT
 8001324:	b580      	push	{r7, lr}
 8001326:	b084      	sub	sp, #16
 8001328:	af00      	add	r7, sp, #0
 800132a:	6078      	str	r0, [r7, #4]
	const size_t __diffmax
 800132c:	4b0a      	ldr	r3, [pc, #40]	; (8001358 <_ZNSt6vectorI15TouchState_enumSaIS0_EE11_S_max_sizeERKS1_+0x34>)
 800132e:	60fb      	str	r3, [r7, #12]
	const size_t __allocmax = _Alloc_traits::max_size(__a);
 8001330:	687b      	ldr	r3, [r7, #4]
 8001332:	0018      	movs	r0, r3
 8001334:	f000 f945 	bl	80015c2 <_ZNSt16allocator_traitsISaI15TouchState_enumEE8max_sizeERKS1_>
 8001338:	0003      	movs	r3, r0
 800133a:	60bb      	str	r3, [r7, #8]
	return (std::min)(__diffmax, __allocmax);
 800133c:	2308      	movs	r3, #8
 800133e:	18fa      	adds	r2, r7, r3
 8001340:	230c      	movs	r3, #12
 8001342:	18fb      	adds	r3, r7, r3
 8001344:	0011      	movs	r1, r2
 8001346:	0018      	movs	r0, r3
 8001348:	f000 f8ba 	bl	80014c0 <_ZSt3minIjERKT_S2_S2_>
 800134c:	0003      	movs	r3, r0
 800134e:	681b      	ldr	r3, [r3, #0]
      }
 8001350:	0018      	movs	r0, r3
 8001352:	46bd      	mov	sp, r7
 8001354:	b004      	add	sp, #16
 8001356:	bd80      	pop	{r7, pc}
 8001358:	7fffffff 	.word	0x7fffffff

0800135c <_ZNSaI15TouchState_enumEC1ERKS0_>:
      allocator(const allocator& __a) _GLIBCXX_NOTHROW
 800135c:	b580      	push	{r7, lr}
 800135e:	b082      	sub	sp, #8
 8001360:	af00      	add	r7, sp, #0
 8001362:	6078      	str	r0, [r7, #4]
 8001364:	6039      	str	r1, [r7, #0]
      : __allocator_base<_Tp>(__a) { }
 8001366:	683a      	ldr	r2, [r7, #0]
 8001368:	687b      	ldr	r3, [r7, #4]
 800136a:	0011      	movs	r1, r2
 800136c:	0018      	movs	r0, r3
 800136e:	f000 f935 	bl	80015dc <_ZN9__gnu_cxx13new_allocatorI15TouchState_enumEC1ERKS2_>
 8001372:	687b      	ldr	r3, [r7, #4]
 8001374:	0018      	movs	r0, r3
 8001376:	46bd      	mov	sp, r7
 8001378:	b002      	add	sp, #8
 800137a:	bd80      	pop	{r7, pc}

0800137c <_ZNSt12_Vector_baseI15TouchState_enumSaIS0_EE12_Vector_implC1ERKS1_>:
	_Vector_impl(_Tp_alloc_type const& __a) _GLIBCXX_NOEXCEPT
 800137c:	b580      	push	{r7, lr}
 800137e:	b082      	sub	sp, #8
 8001380:	af00      	add	r7, sp, #0
 8001382:	6078      	str	r0, [r7, #4]
 8001384:	6039      	str	r1, [r7, #0]
	: _Tp_alloc_type(__a)
 8001386:	683a      	ldr	r2, [r7, #0]
 8001388:	687b      	ldr	r3, [r7, #4]
 800138a:	0011      	movs	r1, r2
 800138c:	0018      	movs	r0, r3
 800138e:	f7ff ffe5 	bl	800135c <_ZNSaI15TouchState_enumEC1ERKS0_>
 8001392:	687b      	ldr	r3, [r7, #4]
 8001394:	0018      	movs	r0, r3
 8001396:	f000 f92b 	bl	80015f0 <_ZNSt12_Vector_baseI15TouchState_enumSaIS0_EE17_Vector_impl_dataC1Ev>
	{ }
 800139a:	687b      	ldr	r3, [r7, #4]
 800139c:	0018      	movs	r0, r3
 800139e:	46bd      	mov	sp, r7
 80013a0:	b002      	add	sp, #8
 80013a2:	bd80      	pop	{r7, pc}

080013a4 <_ZNSt12_Vector_baseI15TouchState_enumSaIS0_EE17_M_create_storageEj>:
      _M_create_storage(size_t __n)
 80013a4:	b580      	push	{r7, lr}
 80013a6:	b082      	sub	sp, #8
 80013a8:	af00      	add	r7, sp, #0
 80013aa:	6078      	str	r0, [r7, #4]
 80013ac:	6039      	str	r1, [r7, #0]
	this->_M_impl._M_start = this->_M_allocate(__n);
 80013ae:	683a      	ldr	r2, [r7, #0]
 80013b0:	687b      	ldr	r3, [r7, #4]
 80013b2:	0011      	movs	r1, r2
 80013b4:	0018      	movs	r0, r3
 80013b6:	f000 f92d 	bl	8001614 <_ZNSt12_Vector_baseI15TouchState_enumSaIS0_EE11_M_allocateEj>
 80013ba:	0002      	movs	r2, r0
 80013bc:	687b      	ldr	r3, [r7, #4]
 80013be:	601a      	str	r2, [r3, #0]
	this->_M_impl._M_finish = this->_M_impl._M_start;
 80013c0:	687b      	ldr	r3, [r7, #4]
 80013c2:	681a      	ldr	r2, [r3, #0]
 80013c4:	687b      	ldr	r3, [r7, #4]
 80013c6:	605a      	str	r2, [r3, #4]
	this->_M_impl._M_end_of_storage = this->_M_impl._M_start + __n;
 80013c8:	687b      	ldr	r3, [r7, #4]
 80013ca:	681a      	ldr	r2, [r3, #0]
 80013cc:	683b      	ldr	r3, [r7, #0]
 80013ce:	18d2      	adds	r2, r2, r3
 80013d0:	687b      	ldr	r3, [r7, #4]
 80013d2:	609a      	str	r2, [r3, #8]
      }
 80013d4:	46c0      	nop			; (mov r8, r8)
 80013d6:	46bd      	mov	sp, r7
 80013d8:	b002      	add	sp, #8
 80013da:	bd80      	pop	{r7, pc}

080013dc <_ZNSt12_Vector_baseI15TouchState_enumSaIS0_EE13_M_deallocateEPS0_j>:
      _M_deallocate(pointer __p, size_t __n)
 80013dc:	b580      	push	{r7, lr}
 80013de:	b084      	sub	sp, #16
 80013e0:	af00      	add	r7, sp, #0
 80013e2:	60f8      	str	r0, [r7, #12]
 80013e4:	60b9      	str	r1, [r7, #8]
 80013e6:	607a      	str	r2, [r7, #4]
	if (__p)
 80013e8:	68bb      	ldr	r3, [r7, #8]
 80013ea:	2b00      	cmp	r3, #0
 80013ec:	d005      	beq.n	80013fa <_ZNSt12_Vector_baseI15TouchState_enumSaIS0_EE13_M_deallocateEPS0_j+0x1e>
	  _Tr::deallocate(_M_impl, __p, __n);
 80013ee:	68fb      	ldr	r3, [r7, #12]
 80013f0:	687a      	ldr	r2, [r7, #4]
 80013f2:	68b9      	ldr	r1, [r7, #8]
 80013f4:	0018      	movs	r0, r3
 80013f6:	f000 f922 	bl	800163e <_ZNSt16allocator_traitsISaI15TouchState_enumEE10deallocateERS1_PS0_j>
      }
 80013fa:	46c0      	nop			; (mov r8, r8)
 80013fc:	46bd      	mov	sp, r7
 80013fe:	b004      	add	sp, #16
 8001400:	bd80      	pop	{r7, pc}

08001402 <_ZSt27__uninitialized_default_n_aIP15TouchState_enumjS0_ET_S2_T0_RSaIT1_E>:
    __uninitialized_default_n_a(_ForwardIterator __first, _Size __n, 
 8001402:	b580      	push	{r7, lr}
 8001404:	b084      	sub	sp, #16
 8001406:	af00      	add	r7, sp, #0
 8001408:	60f8      	str	r0, [r7, #12]
 800140a:	60b9      	str	r1, [r7, #8]
 800140c:	607a      	str	r2, [r7, #4]
    { return std::__uninitialized_default_n(__first, __n); }
 800140e:	68ba      	ldr	r2, [r7, #8]
 8001410:	68fb      	ldr	r3, [r7, #12]
 8001412:	0011      	movs	r1, r2
 8001414:	0018      	movs	r0, r3
 8001416:	f000 f922 	bl	800165e <_ZSt25__uninitialized_default_nIP15TouchState_enumjET_S2_T0_>
 800141a:	0003      	movs	r3, r0
 800141c:	0018      	movs	r0, r3
 800141e:	46bd      	mov	sp, r7
 8001420:	b004      	add	sp, #16
 8001422:	bd80      	pop	{r7, pc}

08001424 <_ZSt8_DestroyIP15TouchState_enumEvT_S2_>:
    _Destroy(_ForwardIterator __first, _ForwardIterator __last)
 8001424:	b580      	push	{r7, lr}
 8001426:	b082      	sub	sp, #8
 8001428:	af00      	add	r7, sp, #0
 800142a:	6078      	str	r0, [r7, #4]
 800142c:	6039      	str	r1, [r7, #0]
	__destroy(__first, __last);
 800142e:	683a      	ldr	r2, [r7, #0]
 8001430:	687b      	ldr	r3, [r7, #4]
 8001432:	0011      	movs	r1, r2
 8001434:	0018      	movs	r0, r3
 8001436:	f000 f926 	bl	8001686 <_ZNSt12_Destroy_auxILb1EE9__destroyIP15TouchState_enumEEvT_S4_>
    }
 800143a:	46c0      	nop			; (mov r8, r8)
 800143c:	46bd      	mov	sp, r7
 800143e:	b002      	add	sp, #8
 8001440:	bd80      	pop	{r7, pc}

08001442 <_ZNSt16allocator_traitsISaI15TouchState_enumEE37select_on_container_copy_constructionERKS1_>:
      select_on_container_copy_construction(const allocator_type& __rhs)
 8001442:	b580      	push	{r7, lr}
 8001444:	b082      	sub	sp, #8
 8001446:	af00      	add	r7, sp, #0
 8001448:	6078      	str	r0, [r7, #4]
 800144a:	6039      	str	r1, [r7, #0]
      { return __rhs; }
 800144c:	683a      	ldr	r2, [r7, #0]
 800144e:	687b      	ldr	r3, [r7, #4]
 8001450:	0011      	movs	r1, r2
 8001452:	0018      	movs	r0, r3
 8001454:	f7ff ff82 	bl	800135c <_ZNSaI15TouchState_enumEC1ERKS0_>
 8001458:	6878      	ldr	r0, [r7, #4]
 800145a:	46bd      	mov	sp, r7
 800145c:	b002      	add	sp, #8
 800145e:	bd80      	pop	{r7, pc}

08001460 <_ZN9__gnu_cxx17__normal_iteratorIPK15TouchState_enumSt6vectorIS1_SaIS1_EEEC1ERKS3_>:

      _GLIBCXX_CONSTEXPR __normal_iterator() _GLIBCXX_NOEXCEPT
      : _M_current(_Iterator()) { }

      explicit _GLIBCXX20_CONSTEXPR
      __normal_iterator(const _Iterator& __i) _GLIBCXX_NOEXCEPT
 8001460:	b580      	push	{r7, lr}
 8001462:	b082      	sub	sp, #8
 8001464:	af00      	add	r7, sp, #0
 8001466:	6078      	str	r0, [r7, #4]
 8001468:	6039      	str	r1, [r7, #0]
      : _M_current(__i) { }
 800146a:	683b      	ldr	r3, [r7, #0]
 800146c:	681a      	ldr	r2, [r3, #0]
 800146e:	687b      	ldr	r3, [r7, #4]
 8001470:	601a      	str	r2, [r3, #0]
 8001472:	687b      	ldr	r3, [r7, #4]
 8001474:	0018      	movs	r0, r3
 8001476:	46bd      	mov	sp, r7
 8001478:	b002      	add	sp, #8
 800147a:	bd80      	pop	{r7, pc}

0800147c <_ZSt18uninitialized_copyIN9__gnu_cxx17__normal_iteratorIPK15TouchState_enumSt6vectorIS2_SaIS2_EEEEPS2_ET0_T_SB_SA_>:
    uninitialized_copy(_InputIterator __first, _InputIterator __last,
 800147c:	b580      	push	{r7, lr}
 800147e:	b086      	sub	sp, #24
 8001480:	af00      	add	r7, sp, #0
 8001482:	60f8      	str	r0, [r7, #12]
 8001484:	60b9      	str	r1, [r7, #8]
 8001486:	607a      	str	r2, [r7, #4]
      const bool __assignable = is_assignable<_RefType2, _RefType1>::value;
 8001488:	2317      	movs	r3, #23
 800148a:	18fb      	adds	r3, r7, r3
 800148c:	2201      	movs	r2, #1
 800148e:	701a      	strb	r2, [r3, #0]
	__uninit_copy(__first, __last, __result);
 8001490:	687a      	ldr	r2, [r7, #4]
 8001492:	68b9      	ldr	r1, [r7, #8]
 8001494:	68fb      	ldr	r3, [r7, #12]
 8001496:	0018      	movs	r0, r3
 8001498:	f000 f8fe 	bl	8001698 <_ZNSt20__uninitialized_copyILb1EE13__uninit_copyIN9__gnu_cxx17__normal_iteratorIPK15TouchState_enumSt6vectorIS4_SaIS4_EEEEPS4_EET0_T_SD_SC_>
 800149c:	0003      	movs	r3, r0
    }
 800149e:	0018      	movs	r0, r3
 80014a0:	46bd      	mov	sp, r7
 80014a2:	b006      	add	sp, #24
 80014a4:	bd80      	pop	{r7, pc}

080014a6 <_ZNSt16allocator_traitsISaI10TouchBoardEE8max_sizeERKS1_>:
      max_size(const allocator_type& __a __attribute__((__unused__))) noexcept
 80014a6:	b580      	push	{r7, lr}
 80014a8:	b082      	sub	sp, #8
 80014aa:	af00      	add	r7, sp, #0
 80014ac:	6078      	str	r0, [r7, #4]
	return __a.max_size();
 80014ae:	687b      	ldr	r3, [r7, #4]
 80014b0:	0018      	movs	r0, r3
 80014b2:	f000 f902 	bl	80016ba <_ZNK9__gnu_cxx13new_allocatorI10TouchBoardE8max_sizeEv>
 80014b6:	0003      	movs	r3, r0
      }
 80014b8:	0018      	movs	r0, r3
 80014ba:	46bd      	mov	sp, r7
 80014bc:	b002      	add	sp, #8
 80014be:	bd80      	pop	{r7, pc}

080014c0 <_ZSt3minIjERKT_S2_S2_>:
    min(const _Tp& __a, const _Tp& __b)
 80014c0:	b580      	push	{r7, lr}
 80014c2:	b082      	sub	sp, #8
 80014c4:	af00      	add	r7, sp, #0
 80014c6:	6078      	str	r0, [r7, #4]
 80014c8:	6039      	str	r1, [r7, #0]
      if (__b < __a)
 80014ca:	683b      	ldr	r3, [r7, #0]
 80014cc:	681a      	ldr	r2, [r3, #0]
 80014ce:	687b      	ldr	r3, [r7, #4]
 80014d0:	681b      	ldr	r3, [r3, #0]
 80014d2:	429a      	cmp	r2, r3
 80014d4:	d201      	bcs.n	80014da <_ZSt3minIjERKT_S2_S2_+0x1a>
	return __b;
 80014d6:	683b      	ldr	r3, [r7, #0]
 80014d8:	e000      	b.n	80014dc <_ZSt3minIjERKT_S2_S2_+0x1c>
      return __a;
 80014da:	687b      	ldr	r3, [r7, #4]
    }
 80014dc:	0018      	movs	r0, r3
 80014de:	46bd      	mov	sp, r7
 80014e0:	b002      	add	sp, #8
 80014e2:	bd80      	pop	{r7, pc}

080014e4 <_ZN9__gnu_cxx13new_allocatorI10TouchBoardEC1ERKS2_>:
      new_allocator(const new_allocator&) _GLIBCXX_USE_NOEXCEPT { }
 80014e4:	b580      	push	{r7, lr}
 80014e6:	b082      	sub	sp, #8
 80014e8:	af00      	add	r7, sp, #0
 80014ea:	6078      	str	r0, [r7, #4]
 80014ec:	6039      	str	r1, [r7, #0]
 80014ee:	687b      	ldr	r3, [r7, #4]
 80014f0:	0018      	movs	r0, r3
 80014f2:	46bd      	mov	sp, r7
 80014f4:	b002      	add	sp, #8
 80014f6:	bd80      	pop	{r7, pc}

080014f8 <_ZNSt12_Vector_baseI10TouchBoardSaIS0_EE17_Vector_impl_dataC1Ev>:
	_Vector_impl_data() _GLIBCXX_NOEXCEPT
 80014f8:	b580      	push	{r7, lr}
 80014fa:	b082      	sub	sp, #8
 80014fc:	af00      	add	r7, sp, #0
 80014fe:	6078      	str	r0, [r7, #4]
	: _M_start(), _M_finish(), _M_end_of_storage()
 8001500:	687b      	ldr	r3, [r7, #4]
 8001502:	2200      	movs	r2, #0
 8001504:	601a      	str	r2, [r3, #0]
 8001506:	687b      	ldr	r3, [r7, #4]
 8001508:	2200      	movs	r2, #0
 800150a:	605a      	str	r2, [r3, #4]
 800150c:	687b      	ldr	r3, [r7, #4]
 800150e:	2200      	movs	r2, #0
 8001510:	609a      	str	r2, [r3, #8]
	{ }
 8001512:	687b      	ldr	r3, [r7, #4]
 8001514:	0018      	movs	r0, r3
 8001516:	46bd      	mov	sp, r7
 8001518:	b002      	add	sp, #8
 800151a:	bd80      	pop	{r7, pc}

0800151c <_ZNSt12_Vector_baseI10TouchBoardSaIS0_EE11_M_allocateEj>:
      _M_allocate(size_t __n)
 800151c:	b580      	push	{r7, lr}
 800151e:	b082      	sub	sp, #8
 8001520:	af00      	add	r7, sp, #0
 8001522:	6078      	str	r0, [r7, #4]
 8001524:	6039      	str	r1, [r7, #0]
	return __n != 0 ? _Tr::allocate(_M_impl, __n) : pointer();
 8001526:	683b      	ldr	r3, [r7, #0]
 8001528:	2b00      	cmp	r3, #0
 800152a:	d007      	beq.n	800153c <_ZNSt12_Vector_baseI10TouchBoardSaIS0_EE11_M_allocateEj+0x20>
 800152c:	687b      	ldr	r3, [r7, #4]
 800152e:	683a      	ldr	r2, [r7, #0]
 8001530:	0011      	movs	r1, r2
 8001532:	0018      	movs	r0, r3
 8001534:	f000 f8ce 	bl	80016d4 <_ZNSt16allocator_traitsISaI10TouchBoardEE8allocateERS1_j>
 8001538:	0003      	movs	r3, r0
 800153a:	e000      	b.n	800153e <_ZNSt12_Vector_baseI10TouchBoardSaIS0_EE11_M_allocateEj+0x22>
 800153c:	2300      	movs	r3, #0
      }
 800153e:	0018      	movs	r0, r3
 8001540:	46bd      	mov	sp, r7
 8001542:	b002      	add	sp, #8
 8001544:	bd80      	pop	{r7, pc}

08001546 <_ZNSt16allocator_traitsISaI10TouchBoardEE10deallocateERS1_PS0_j>:
      deallocate(allocator_type& __a, pointer __p, size_type __n)
 8001546:	b580      	push	{r7, lr}
 8001548:	b084      	sub	sp, #16
 800154a:	af00      	add	r7, sp, #0
 800154c:	60f8      	str	r0, [r7, #12]
 800154e:	60b9      	str	r1, [r7, #8]
 8001550:	607a      	str	r2, [r7, #4]
      { __a.deallocate(__p, __n); }
 8001552:	687a      	ldr	r2, [r7, #4]
 8001554:	68b9      	ldr	r1, [r7, #8]
 8001556:	68fb      	ldr	r3, [r7, #12]
 8001558:	0018      	movs	r0, r3
 800155a:	f000 f8cb 	bl	80016f4 <_ZN9__gnu_cxx13new_allocatorI10TouchBoardE10deallocateEPS1_j>
 800155e:	46c0      	nop			; (mov r8, r8)
 8001560:	46bd      	mov	sp, r7
 8001562:	b004      	add	sp, #16
 8001564:	bd80      	pop	{r7, pc}

08001566 <_ZSt25__uninitialized_default_nIP10TouchBoardjET_S2_T0_>:
    __uninitialized_default_n(_ForwardIterator __first, _Size __n)
 8001566:	b580      	push	{r7, lr}
 8001568:	b084      	sub	sp, #16
 800156a:	af00      	add	r7, sp, #0
 800156c:	6078      	str	r0, [r7, #4]
 800156e:	6039      	str	r1, [r7, #0]
      constexpr bool __can_fill
 8001570:	230f      	movs	r3, #15
 8001572:	18fb      	adds	r3, r7, r3
 8001574:	2201      	movs	r2, #1
 8001576:	701a      	strb	r2, [r3, #0]
	__uninit_default_n(__first, __n);
 8001578:	683a      	ldr	r2, [r7, #0]
 800157a:	687b      	ldr	r3, [r7, #4]
 800157c:	0011      	movs	r1, r2
 800157e:	0018      	movs	r0, r3
 8001580:	f000 f8c9 	bl	8001716 <_ZNSt27__uninitialized_default_n_1ILb0EE18__uninit_default_nIP10TouchBoardjEET_S4_T0_>
 8001584:	0003      	movs	r3, r0
    }
 8001586:	0018      	movs	r0, r3
 8001588:	46bd      	mov	sp, r7
 800158a:	b004      	add	sp, #16
 800158c:	bd80      	pop	{r7, pc}

0800158e <_ZNSt12_Destroy_auxILb0EE9__destroyIP10TouchBoardEEvT_S4_>:
	__destroy(_ForwardIterator __first, _ForwardIterator __last)
 800158e:	b580      	push	{r7, lr}
 8001590:	b082      	sub	sp, #8
 8001592:	af00      	add	r7, sp, #0
 8001594:	6078      	str	r0, [r7, #4]
 8001596:	6039      	str	r1, [r7, #0]
	  for (; __first != __last; ++__first)
 8001598:	e00a      	b.n	80015b0 <_ZNSt12_Destroy_auxILb0EE9__destroyIP10TouchBoardEEvT_S4_+0x22>
	    std::_Destroy(std::__addressof(*__first));
 800159a:	687b      	ldr	r3, [r7, #4]
 800159c:	0018      	movs	r0, r3
 800159e:	f000 f8d8 	bl	8001752 <_ZSt11__addressofI10TouchBoardEPT_RS1_>
 80015a2:	0003      	movs	r3, r0
 80015a4:	0018      	movs	r0, r3
 80015a6:	f000 f8dd 	bl	8001764 <_ZSt8_DestroyI10TouchBoardEvPT_>
	  for (; __first != __last; ++__first)
 80015aa:	687b      	ldr	r3, [r7, #4]
 80015ac:	3310      	adds	r3, #16
 80015ae:	607b      	str	r3, [r7, #4]
 80015b0:	687a      	ldr	r2, [r7, #4]
 80015b2:	683b      	ldr	r3, [r7, #0]
 80015b4:	429a      	cmp	r2, r3
 80015b6:	d1f0      	bne.n	800159a <_ZNSt12_Destroy_auxILb0EE9__destroyIP10TouchBoardEEvT_S4_+0xc>
	}
 80015b8:	46c0      	nop			; (mov r8, r8)
 80015ba:	46c0      	nop			; (mov r8, r8)
 80015bc:	46bd      	mov	sp, r7
 80015be:	b002      	add	sp, #8
 80015c0:	bd80      	pop	{r7, pc}

080015c2 <_ZNSt16allocator_traitsISaI15TouchState_enumEE8max_sizeERKS1_>:
      max_size(const allocator_type& __a __attribute__((__unused__))) noexcept
 80015c2:	b580      	push	{r7, lr}
 80015c4:	b082      	sub	sp, #8
 80015c6:	af00      	add	r7, sp, #0
 80015c8:	6078      	str	r0, [r7, #4]
	return __a.max_size();
 80015ca:	687b      	ldr	r3, [r7, #4]
 80015cc:	0018      	movs	r0, r3
 80015ce:	f000 f8d5 	bl	800177c <_ZNK9__gnu_cxx13new_allocatorI15TouchState_enumE8max_sizeEv>
 80015d2:	0003      	movs	r3, r0
      }
 80015d4:	0018      	movs	r0, r3
 80015d6:	46bd      	mov	sp, r7
 80015d8:	b002      	add	sp, #8
 80015da:	bd80      	pop	{r7, pc}

080015dc <_ZN9__gnu_cxx13new_allocatorI15TouchState_enumEC1ERKS2_>:
 80015dc:	b580      	push	{r7, lr}
 80015de:	b082      	sub	sp, #8
 80015e0:	af00      	add	r7, sp, #0
 80015e2:	6078      	str	r0, [r7, #4]
 80015e4:	6039      	str	r1, [r7, #0]
 80015e6:	687b      	ldr	r3, [r7, #4]
 80015e8:	0018      	movs	r0, r3
 80015ea:	46bd      	mov	sp, r7
 80015ec:	b002      	add	sp, #8
 80015ee:	bd80      	pop	{r7, pc}

080015f0 <_ZNSt12_Vector_baseI15TouchState_enumSaIS0_EE17_Vector_impl_dataC1Ev>:
	_Vector_impl_data() _GLIBCXX_NOEXCEPT
 80015f0:	b580      	push	{r7, lr}
 80015f2:	b082      	sub	sp, #8
 80015f4:	af00      	add	r7, sp, #0
 80015f6:	6078      	str	r0, [r7, #4]
	: _M_start(), _M_finish(), _M_end_of_storage()
 80015f8:	687b      	ldr	r3, [r7, #4]
 80015fa:	2200      	movs	r2, #0
 80015fc:	601a      	str	r2, [r3, #0]
 80015fe:	687b      	ldr	r3, [r7, #4]
 8001600:	2200      	movs	r2, #0
 8001602:	605a      	str	r2, [r3, #4]
 8001604:	687b      	ldr	r3, [r7, #4]
 8001606:	2200      	movs	r2, #0
 8001608:	609a      	str	r2, [r3, #8]
	{ }
 800160a:	687b      	ldr	r3, [r7, #4]
 800160c:	0018      	movs	r0, r3
 800160e:	46bd      	mov	sp, r7
 8001610:	b002      	add	sp, #8
 8001612:	bd80      	pop	{r7, pc}

08001614 <_ZNSt12_Vector_baseI15TouchState_enumSaIS0_EE11_M_allocateEj>:
      _M_allocate(size_t __n)
 8001614:	b580      	push	{r7, lr}
 8001616:	b082      	sub	sp, #8
 8001618:	af00      	add	r7, sp, #0
 800161a:	6078      	str	r0, [r7, #4]
 800161c:	6039      	str	r1, [r7, #0]
	return __n != 0 ? _Tr::allocate(_M_impl, __n) : pointer();
 800161e:	683b      	ldr	r3, [r7, #0]
 8001620:	2b00      	cmp	r3, #0
 8001622:	d007      	beq.n	8001634 <_ZNSt12_Vector_baseI15TouchState_enumSaIS0_EE11_M_allocateEj+0x20>
 8001624:	687b      	ldr	r3, [r7, #4]
 8001626:	683a      	ldr	r2, [r7, #0]
 8001628:	0011      	movs	r1, r2
 800162a:	0018      	movs	r0, r3
 800162c:	f000 f8b3 	bl	8001796 <_ZNSt16allocator_traitsISaI15TouchState_enumEE8allocateERS1_j>
 8001630:	0003      	movs	r3, r0
 8001632:	e000      	b.n	8001636 <_ZNSt12_Vector_baseI15TouchState_enumSaIS0_EE11_M_allocateEj+0x22>
 8001634:	2300      	movs	r3, #0
      }
 8001636:	0018      	movs	r0, r3
 8001638:	46bd      	mov	sp, r7
 800163a:	b002      	add	sp, #8
 800163c:	bd80      	pop	{r7, pc}

0800163e <_ZNSt16allocator_traitsISaI15TouchState_enumEE10deallocateERS1_PS0_j>:
      deallocate(allocator_type& __a, pointer __p, size_type __n)
 800163e:	b580      	push	{r7, lr}
 8001640:	b084      	sub	sp, #16
 8001642:	af00      	add	r7, sp, #0
 8001644:	60f8      	str	r0, [r7, #12]
 8001646:	60b9      	str	r1, [r7, #8]
 8001648:	607a      	str	r2, [r7, #4]
      { __a.deallocate(__p, __n); }
 800164a:	687a      	ldr	r2, [r7, #4]
 800164c:	68b9      	ldr	r1, [r7, #8]
 800164e:	68fb      	ldr	r3, [r7, #12]
 8001650:	0018      	movs	r0, r3
 8001652:	f000 f8b0 	bl	80017b6 <_ZN9__gnu_cxx13new_allocatorI15TouchState_enumE10deallocateEPS1_j>
 8001656:	46c0      	nop			; (mov r8, r8)
 8001658:	46bd      	mov	sp, r7
 800165a:	b004      	add	sp, #16
 800165c:	bd80      	pop	{r7, pc}

0800165e <_ZSt25__uninitialized_default_nIP15TouchState_enumjET_S2_T0_>:
    __uninitialized_default_n(_ForwardIterator __first, _Size __n)
 800165e:	b580      	push	{r7, lr}
 8001660:	b084      	sub	sp, #16
 8001662:	af00      	add	r7, sp, #0
 8001664:	6078      	str	r0, [r7, #4]
 8001666:	6039      	str	r1, [r7, #0]
      constexpr bool __can_fill
 8001668:	230f      	movs	r3, #15
 800166a:	18fb      	adds	r3, r7, r3
 800166c:	2201      	movs	r2, #1
 800166e:	701a      	strb	r2, [r3, #0]
	__uninit_default_n(__first, __n);
 8001670:	683a      	ldr	r2, [r7, #0]
 8001672:	687b      	ldr	r3, [r7, #4]
 8001674:	0011      	movs	r1, r2
 8001676:	0018      	movs	r0, r3
 8001678:	f000 f8b6 	bl	80017e8 <_ZNSt27__uninitialized_default_n_1ILb1EE18__uninit_default_nIP15TouchState_enumjEET_S4_T0_>
 800167c:	0003      	movs	r3, r0
    }
 800167e:	0018      	movs	r0, r3
 8001680:	46bd      	mov	sp, r7
 8001682:	b004      	add	sp, #16
 8001684:	bd80      	pop	{r7, pc}

08001686 <_ZNSt12_Destroy_auxILb1EE9__destroyIP15TouchState_enumEEvT_S4_>:
        __destroy(_ForwardIterator, _ForwardIterator) { }
 8001686:	b580      	push	{r7, lr}
 8001688:	b082      	sub	sp, #8
 800168a:	af00      	add	r7, sp, #0
 800168c:	6078      	str	r0, [r7, #4]
 800168e:	6039      	str	r1, [r7, #0]
 8001690:	46c0      	nop			; (mov r8, r8)
 8001692:	46bd      	mov	sp, r7
 8001694:	b002      	add	sp, #8
 8001696:	bd80      	pop	{r7, pc}

08001698 <_ZNSt20__uninitialized_copyILb1EE13__uninit_copyIN9__gnu_cxx17__normal_iteratorIPK15TouchState_enumSt6vectorIS4_SaIS4_EEEEPS4_EET0_T_SD_SC_>:
        __uninit_copy(_InputIterator __first, _InputIterator __last,
 8001698:	b580      	push	{r7, lr}
 800169a:	b084      	sub	sp, #16
 800169c:	af00      	add	r7, sp, #0
 800169e:	60f8      	str	r0, [r7, #12]
 80016a0:	60b9      	str	r1, [r7, #8]
 80016a2:	607a      	str	r2, [r7, #4]
        { return std::copy(__first, __last, __result); }
 80016a4:	687a      	ldr	r2, [r7, #4]
 80016a6:	68b9      	ldr	r1, [r7, #8]
 80016a8:	68fb      	ldr	r3, [r7, #12]
 80016aa:	0018      	movs	r0, r3
 80016ac:	f000 f8bf 	bl	800182e <_ZSt4copyIN9__gnu_cxx17__normal_iteratorIPK15TouchState_enumSt6vectorIS2_SaIS2_EEEEPS2_ET0_T_SB_SA_>
 80016b0:	0003      	movs	r3, r0
 80016b2:	0018      	movs	r0, r3
 80016b4:	46bd      	mov	sp, r7
 80016b6:	b004      	add	sp, #16
 80016b8:	bd80      	pop	{r7, pc}

080016ba <_ZNK9__gnu_cxx13new_allocatorI10TouchBoardE8max_sizeEv>:
			 );
      }

#if __cplusplus <= 201703L
      size_type
      max_size() const _GLIBCXX_USE_NOEXCEPT
 80016ba:	b580      	push	{r7, lr}
 80016bc:	b082      	sub	sp, #8
 80016be:	af00      	add	r7, sp, #0
 80016c0:	6078      	str	r0, [r7, #4]
      { return _M_max_size(); }
 80016c2:	687b      	ldr	r3, [r7, #4]
 80016c4:	0018      	movs	r0, r3
 80016c6:	f000 f8cd 	bl	8001864 <_ZNK9__gnu_cxx13new_allocatorI10TouchBoardE11_M_max_sizeEv>
 80016ca:	0003      	movs	r3, r0
 80016cc:	0018      	movs	r0, r3
 80016ce:	46bd      	mov	sp, r7
 80016d0:	b002      	add	sp, #8
 80016d2:	bd80      	pop	{r7, pc}

080016d4 <_ZNSt16allocator_traitsISaI10TouchBoardEE8allocateERS1_j>:
      allocate(allocator_type& __a, size_type __n)
 80016d4:	b580      	push	{r7, lr}
 80016d6:	b082      	sub	sp, #8
 80016d8:	af00      	add	r7, sp, #0
 80016da:	6078      	str	r0, [r7, #4]
 80016dc:	6039      	str	r1, [r7, #0]
      { return __a.allocate(__n); }
 80016de:	6839      	ldr	r1, [r7, #0]
 80016e0:	687b      	ldr	r3, [r7, #4]
 80016e2:	2200      	movs	r2, #0
 80016e4:	0018      	movs	r0, r3
 80016e6:	f000 f8c9 	bl	800187c <_ZN9__gnu_cxx13new_allocatorI10TouchBoardE8allocateEjPKv>
 80016ea:	0003      	movs	r3, r0
 80016ec:	0018      	movs	r0, r3
 80016ee:	46bd      	mov	sp, r7
 80016f0:	b002      	add	sp, #8
 80016f2:	bd80      	pop	{r7, pc}

080016f4 <_ZN9__gnu_cxx13new_allocatorI10TouchBoardE10deallocateEPS1_j>:
      deallocate(_Tp* __p, size_type __t __attribute__ ((__unused__)))
 80016f4:	b580      	push	{r7, lr}
 80016f6:	b084      	sub	sp, #16
 80016f8:	af00      	add	r7, sp, #0
 80016fa:	60f8      	str	r0, [r7, #12]
 80016fc:	60b9      	str	r1, [r7, #8]
 80016fe:	607a      	str	r2, [r7, #4]
	::operator delete(__p
 8001700:	687b      	ldr	r3, [r7, #4]
 8001702:	011a      	lsls	r2, r3, #4
 8001704:	68bb      	ldr	r3, [r7, #8]
 8001706:	0011      	movs	r1, r2
 8001708:	0018      	movs	r0, r3
 800170a:	f003 fc5d 	bl	8004fc8 <_ZdlPvj>
      }
 800170e:	46c0      	nop			; (mov r8, r8)
 8001710:	46bd      	mov	sp, r7
 8001712:	b004      	add	sp, #16
 8001714:	bd80      	pop	{r7, pc}

08001716 <_ZNSt27__uninitialized_default_n_1ILb0EE18__uninit_default_nIP10TouchBoardjEET_S4_T0_>:
        __uninit_default_n(_ForwardIterator __first, _Size __n)
 8001716:	b580      	push	{r7, lr}
 8001718:	b084      	sub	sp, #16
 800171a:	af00      	add	r7, sp, #0
 800171c:	6078      	str	r0, [r7, #4]
 800171e:	6039      	str	r1, [r7, #0]
	  _ForwardIterator __cur = __first;
 8001720:	687b      	ldr	r3, [r7, #4]
 8001722:	60fb      	str	r3, [r7, #12]
	      for (; __n > 0; --__n, (void) ++__cur)
 8001724:	e00d      	b.n	8001742 <_ZNSt27__uninitialized_default_n_1ILb0EE18__uninit_default_nIP10TouchBoardjEET_S4_T0_+0x2c>
		std::_Construct(std::__addressof(*__cur));
 8001726:	68fb      	ldr	r3, [r7, #12]
 8001728:	0018      	movs	r0, r3
 800172a:	f000 f812 	bl	8001752 <_ZSt11__addressofI10TouchBoardEPT_RS1_>
 800172e:	0003      	movs	r3, r0
 8001730:	0018      	movs	r0, r3
 8001732:	f000 f8cb 	bl	80018cc <_ZSt10_ConstructI10TouchBoardJEEvPT_DpOT0_>
	      for (; __n > 0; --__n, (void) ++__cur)
 8001736:	683b      	ldr	r3, [r7, #0]
 8001738:	3b01      	subs	r3, #1
 800173a:	603b      	str	r3, [r7, #0]
 800173c:	68fb      	ldr	r3, [r7, #12]
 800173e:	3310      	adds	r3, #16
 8001740:	60fb      	str	r3, [r7, #12]
 8001742:	683b      	ldr	r3, [r7, #0]
 8001744:	2b00      	cmp	r3, #0
 8001746:	d1ee      	bne.n	8001726 <_ZNSt27__uninitialized_default_n_1ILb0EE18__uninit_default_nIP10TouchBoardjEET_S4_T0_+0x10>
	      return __cur;
 8001748:	68fb      	ldr	r3, [r7, #12]
	}
 800174a:	0018      	movs	r0, r3
 800174c:	46bd      	mov	sp, r7
 800174e:	b004      	add	sp, #16
 8001750:	bd80      	pop	{r7, pc}

08001752 <_ZSt11__addressofI10TouchBoardEPT_RS1_>:
   *  @brief Same as C++11 std::addressof
   *  @ingroup utilities
   */
  template<typename _Tp>
    inline _GLIBCXX_CONSTEXPR _Tp*
    __addressof(_Tp& __r) _GLIBCXX_NOEXCEPT
 8001752:	b580      	push	{r7, lr}
 8001754:	b082      	sub	sp, #8
 8001756:	af00      	add	r7, sp, #0
 8001758:	6078      	str	r0, [r7, #4]
    { return __builtin_addressof(__r); }
 800175a:	687b      	ldr	r3, [r7, #4]
 800175c:	0018      	movs	r0, r3
 800175e:	46bd      	mov	sp, r7
 8001760:	b002      	add	sp, #8
 8001762:	bd80      	pop	{r7, pc}

08001764 <_ZSt8_DestroyI10TouchBoardEvPT_>:
    _Destroy(_Tp* __pointer)
 8001764:	b580      	push	{r7, lr}
 8001766:	b082      	sub	sp, #8
 8001768:	af00      	add	r7, sp, #0
 800176a:	6078      	str	r0, [r7, #4]
      __pointer->~_Tp();
 800176c:	687b      	ldr	r3, [r7, #4]
 800176e:	0018      	movs	r0, r3
 8001770:	f7ff f847 	bl	8000802 <_ZN10TouchBoardD1Ev>
    }
 8001774:	46c0      	nop			; (mov r8, r8)
 8001776:	46bd      	mov	sp, r7
 8001778:	b002      	add	sp, #8
 800177a:	bd80      	pop	{r7, pc}

0800177c <_ZNK9__gnu_cxx13new_allocatorI15TouchState_enumE8max_sizeEv>:
      max_size() const _GLIBCXX_USE_NOEXCEPT
 800177c:	b580      	push	{r7, lr}
 800177e:	b082      	sub	sp, #8
 8001780:	af00      	add	r7, sp, #0
 8001782:	6078      	str	r0, [r7, #4]
      { return _M_max_size(); }
 8001784:	687b      	ldr	r3, [r7, #4]
 8001786:	0018      	movs	r0, r3
 8001788:	f000 f8b2 	bl	80018f0 <_ZNK9__gnu_cxx13new_allocatorI15TouchState_enumE11_M_max_sizeEv>
 800178c:	0003      	movs	r3, r0
 800178e:	0018      	movs	r0, r3
 8001790:	46bd      	mov	sp, r7
 8001792:	b002      	add	sp, #8
 8001794:	bd80      	pop	{r7, pc}

08001796 <_ZNSt16allocator_traitsISaI15TouchState_enumEE8allocateERS1_j>:
      allocate(allocator_type& __a, size_type __n)
 8001796:	b580      	push	{r7, lr}
 8001798:	b082      	sub	sp, #8
 800179a:	af00      	add	r7, sp, #0
 800179c:	6078      	str	r0, [r7, #4]
 800179e:	6039      	str	r1, [r7, #0]
      { return __a.allocate(__n); }
 80017a0:	6839      	ldr	r1, [r7, #0]
 80017a2:	687b      	ldr	r3, [r7, #4]
 80017a4:	2200      	movs	r2, #0
 80017a6:	0018      	movs	r0, r3
 80017a8:	f000 f8ae 	bl	8001908 <_ZN9__gnu_cxx13new_allocatorI15TouchState_enumE8allocateEjPKv>
 80017ac:	0003      	movs	r3, r0
 80017ae:	0018      	movs	r0, r3
 80017b0:	46bd      	mov	sp, r7
 80017b2:	b002      	add	sp, #8
 80017b4:	bd80      	pop	{r7, pc}

080017b6 <_ZN9__gnu_cxx13new_allocatorI15TouchState_enumE10deallocateEPS1_j>:
      deallocate(_Tp* __p, size_type __t __attribute__ ((__unused__)))
 80017b6:	b580      	push	{r7, lr}
 80017b8:	b084      	sub	sp, #16
 80017ba:	af00      	add	r7, sp, #0
 80017bc:	60f8      	str	r0, [r7, #12]
 80017be:	60b9      	str	r1, [r7, #8]
 80017c0:	607a      	str	r2, [r7, #4]
	::operator delete(__p
 80017c2:	687a      	ldr	r2, [r7, #4]
 80017c4:	68bb      	ldr	r3, [r7, #8]
 80017c6:	0011      	movs	r1, r2
 80017c8:	0018      	movs	r0, r3
 80017ca:	f003 fbfd 	bl	8004fc8 <_ZdlPvj>
      }
 80017ce:	46c0      	nop			; (mov r8, r8)
 80017d0:	46bd      	mov	sp, r7
 80017d2:	b004      	add	sp, #16
 80017d4:	bd80      	pop	{r7, pc}

080017d6 <_ZSt11__addressofI15TouchState_enumEPT_RS1_>:
    __addressof(_Tp& __r) _GLIBCXX_NOEXCEPT
 80017d6:	b580      	push	{r7, lr}
 80017d8:	b082      	sub	sp, #8
 80017da:	af00      	add	r7, sp, #0
 80017dc:	6078      	str	r0, [r7, #4]
    { return __builtin_addressof(__r); }
 80017de:	687b      	ldr	r3, [r7, #4]
 80017e0:	0018      	movs	r0, r3
 80017e2:	46bd      	mov	sp, r7
 80017e4:	b002      	add	sp, #8
 80017e6:	bd80      	pop	{r7, pc}

080017e8 <_ZNSt27__uninitialized_default_n_1ILb1EE18__uninit_default_nIP15TouchState_enumjEET_S4_T0_>:
        __uninit_default_n(_ForwardIterator __first, _Size __n)
 80017e8:	b580      	push	{r7, lr}
 80017ea:	b084      	sub	sp, #16
 80017ec:	af00      	add	r7, sp, #0
 80017ee:	6078      	str	r0, [r7, #4]
 80017f0:	6039      	str	r1, [r7, #0]
	  if (__n > 0)
 80017f2:	683b      	ldr	r3, [r7, #0]
 80017f4:	2b00      	cmp	r3, #0
 80017f6:	d015      	beq.n	8001824 <_ZNSt27__uninitialized_default_n_1ILb1EE18__uninit_default_nIP15TouchState_enumjEET_S4_T0_+0x3c>
		= std::__addressof(*__first);
 80017f8:	687b      	ldr	r3, [r7, #4]
 80017fa:	0018      	movs	r0, r3
 80017fc:	f7ff ffeb 	bl	80017d6 <_ZSt11__addressofI15TouchState_enumEPT_RS1_>
 8001800:	0003      	movs	r3, r0
 8001802:	60fb      	str	r3, [r7, #12]
	      std::_Construct(__val);
 8001804:	68fb      	ldr	r3, [r7, #12]
 8001806:	0018      	movs	r0, r3
 8001808:	f000 f89e 	bl	8001948 <_ZSt10_ConstructI15TouchState_enumJEEvPT_DpOT0_>
	      ++__first;
 800180c:	687b      	ldr	r3, [r7, #4]
 800180e:	3301      	adds	r3, #1
 8001810:	607b      	str	r3, [r7, #4]
	      __first = std::fill_n(__first, __n - 1, *__val);
 8001812:	683b      	ldr	r3, [r7, #0]
 8001814:	1e59      	subs	r1, r3, #1
 8001816:	68fa      	ldr	r2, [r7, #12]
 8001818:	687b      	ldr	r3, [r7, #4]
 800181a:	0018      	movs	r0, r3
 800181c:	f000 f8a4 	bl	8001968 <_ZSt6fill_nIP15TouchState_enumjS0_ET_S2_T0_RKT1_>
 8001820:	0003      	movs	r3, r0
 8001822:	607b      	str	r3, [r7, #4]
	  return __first;
 8001824:	687b      	ldr	r3, [r7, #4]
	}
 8001826:	0018      	movs	r0, r3
 8001828:	46bd      	mov	sp, r7
 800182a:	b004      	add	sp, #16
 800182c:	bd80      	pop	{r7, pc}

0800182e <_ZSt4copyIN9__gnu_cxx17__normal_iteratorIPK15TouchState_enumSt6vectorIS2_SaIS2_EEEEPS2_ET0_T_SB_SA_>:
    copy(_II __first, _II __last, _OI __result)
 800182e:	b590      	push	{r4, r7, lr}
 8001830:	b085      	sub	sp, #20
 8001832:	af00      	add	r7, sp, #0
 8001834:	60f8      	str	r0, [r7, #12]
 8001836:	60b9      	str	r1, [r7, #8]
 8001838:	607a      	str	r2, [r7, #4]
	     (std::__miter_base(__first), std::__miter_base(__last), __result);
 800183a:	68fb      	ldr	r3, [r7, #12]
 800183c:	0018      	movs	r0, r3
 800183e:	f000 f8af 	bl	80019a0 <_ZSt12__miter_baseIN9__gnu_cxx17__normal_iteratorIPK15TouchState_enumSt6vectorIS2_SaIS2_EEEEET_S9_>
 8001842:	0004      	movs	r4, r0
 8001844:	68bb      	ldr	r3, [r7, #8]
 8001846:	0018      	movs	r0, r3
 8001848:	f000 f8aa 	bl	80019a0 <_ZSt12__miter_baseIN9__gnu_cxx17__normal_iteratorIPK15TouchState_enumSt6vectorIS2_SaIS2_EEEEET_S9_>
 800184c:	0001      	movs	r1, r0
 800184e:	687b      	ldr	r3, [r7, #4]
 8001850:	001a      	movs	r2, r3
 8001852:	0020      	movs	r0, r4
 8001854:	f000 f8ad 	bl	80019b2 <_ZSt13__copy_move_aILb0EN9__gnu_cxx17__normal_iteratorIPK15TouchState_enumSt6vectorIS2_SaIS2_EEEEPS2_ET1_T0_SB_SA_>
 8001858:	0003      	movs	r3, r0
    }
 800185a:	0018      	movs	r0, r3
 800185c:	46bd      	mov	sp, r7
 800185e:	b005      	add	sp, #20
 8001860:	bd90      	pop	{r4, r7, pc}
	...

08001864 <_ZNK9__gnu_cxx13new_allocatorI10TouchBoardE11_M_max_sizeEv>:
	{ return false; }
#endif

    private:
      _GLIBCXX_CONSTEXPR size_type
      _M_max_size() const _GLIBCXX_USE_NOEXCEPT
 8001864:	b580      	push	{r7, lr}
 8001866:	b082      	sub	sp, #8
 8001868:	af00      	add	r7, sp, #0
 800186a:	6078      	str	r0, [r7, #4]
      {
#if __PTRDIFF_MAX__ < __SIZE_MAX__
	return std::size_t(__PTRDIFF_MAX__) / sizeof(_Tp);
 800186c:	4b02      	ldr	r3, [pc, #8]	; (8001878 <_ZNK9__gnu_cxx13new_allocatorI10TouchBoardE11_M_max_sizeEv+0x14>)
#else
	return std::size_t(-1) / sizeof(_Tp);
#endif
      }
 800186e:	0018      	movs	r0, r3
 8001870:	46bd      	mov	sp, r7
 8001872:	b002      	add	sp, #8
 8001874:	bd80      	pop	{r7, pc}
 8001876:	46c0      	nop			; (mov r8, r8)
 8001878:	07ffffff 	.word	0x07ffffff

0800187c <_ZN9__gnu_cxx13new_allocatorI10TouchBoardE8allocateEjPKv>:
      allocate(size_type __n, const void* = static_cast<const void*>(0))
 800187c:	b580      	push	{r7, lr}
 800187e:	b084      	sub	sp, #16
 8001880:	af00      	add	r7, sp, #0
 8001882:	60f8      	str	r0, [r7, #12]
 8001884:	60b9      	str	r1, [r7, #8]
 8001886:	607a      	str	r2, [r7, #4]
	if (__builtin_expect(__n > this->_M_max_size(), false))
 8001888:	68fb      	ldr	r3, [r7, #12]
 800188a:	0018      	movs	r0, r3
 800188c:	f7ff ffea 	bl	8001864 <_ZNK9__gnu_cxx13new_allocatorI10TouchBoardE11_M_max_sizeEv>
 8001890:	0002      	movs	r2, r0
 8001892:	68bb      	ldr	r3, [r7, #8]
 8001894:	429a      	cmp	r2, r3
 8001896:	419b      	sbcs	r3, r3
 8001898:	425b      	negs	r3, r3
 800189a:	b2db      	uxtb	r3, r3
 800189c:	1e5a      	subs	r2, r3, #1
 800189e:	4193      	sbcs	r3, r2
 80018a0:	b2db      	uxtb	r3, r3
 80018a2:	2b00      	cmp	r3, #0
 80018a4:	d008      	beq.n	80018b8 <_ZN9__gnu_cxx13new_allocatorI10TouchBoardE8allocateEjPKv+0x3c>
	    if (__n > (std::size_t(-1) / sizeof(_Tp)))
 80018a6:	68ba      	ldr	r2, [r7, #8]
 80018a8:	2380      	movs	r3, #128	; 0x80
 80018aa:	055b      	lsls	r3, r3, #21
 80018ac:	429a      	cmp	r2, r3
 80018ae:	d301      	bcc.n	80018b4 <_ZN9__gnu_cxx13new_allocatorI10TouchBoardE8allocateEjPKv+0x38>
	      std::__throw_bad_array_new_length();
 80018b0:	f003 fba3 	bl	8004ffa <_ZSt28__throw_bad_array_new_lengthv>
	    std::__throw_bad_alloc();
 80018b4:	f003 fb9e 	bl	8004ff4 <_ZSt17__throw_bad_allocv>
	return static_cast<_Tp*>(::operator new(__n * sizeof(_Tp)));
 80018b8:	68bb      	ldr	r3, [r7, #8]
 80018ba:	011b      	lsls	r3, r3, #4
 80018bc:	0018      	movs	r0, r3
 80018be:	f003 fb87 	bl	8004fd0 <_Znwj>
 80018c2:	0003      	movs	r3, r0
      }
 80018c4:	0018      	movs	r0, r3
 80018c6:	46bd      	mov	sp, r7
 80018c8:	b004      	add	sp, #16
 80018ca:	bd80      	pop	{r7, pc}

080018cc <_ZSt10_ConstructI10TouchBoardJEEvPT_DpOT0_>:
    _Construct(_Tp* __p, _Args&&... __args)
 80018cc:	b580      	push	{r7, lr}
 80018ce:	b082      	sub	sp, #8
 80018d0:	af00      	add	r7, sp, #0
 80018d2:	6078      	str	r0, [r7, #4]
      ::new((void*)__p) _Tp(std::forward<_Args>(__args)...);
 80018d4:	687b      	ldr	r3, [r7, #4]
 80018d6:	0019      	movs	r1, r3
 80018d8:	2010      	movs	r0, #16
 80018da:	f7ff f849 	bl	8000970 <_ZnwjPv>
 80018de:	0003      	movs	r3, r0
 80018e0:	0018      	movs	r0, r3
 80018e2:	f7fe ff60 	bl	80007a6 <_ZN10TouchBoardC1Ev>
    }
 80018e6:	46c0      	nop			; (mov r8, r8)
 80018e8:	46bd      	mov	sp, r7
 80018ea:	b002      	add	sp, #8
 80018ec:	bd80      	pop	{r7, pc}
	...

080018f0 <_ZNK9__gnu_cxx13new_allocatorI15TouchState_enumE11_M_max_sizeEv>:
      _M_max_size() const _GLIBCXX_USE_NOEXCEPT
 80018f0:	b580      	push	{r7, lr}
 80018f2:	b082      	sub	sp, #8
 80018f4:	af00      	add	r7, sp, #0
 80018f6:	6078      	str	r0, [r7, #4]
	return std::size_t(__PTRDIFF_MAX__) / sizeof(_Tp);
 80018f8:	4b02      	ldr	r3, [pc, #8]	; (8001904 <_ZNK9__gnu_cxx13new_allocatorI15TouchState_enumE11_M_max_sizeEv+0x14>)
      }
 80018fa:	0018      	movs	r0, r3
 80018fc:	46bd      	mov	sp, r7
 80018fe:	b002      	add	sp, #8
 8001900:	bd80      	pop	{r7, pc}
 8001902:	46c0      	nop			; (mov r8, r8)
 8001904:	7fffffff 	.word	0x7fffffff

08001908 <_ZN9__gnu_cxx13new_allocatorI15TouchState_enumE8allocateEjPKv>:
      allocate(size_type __n, const void* = static_cast<const void*>(0))
 8001908:	b580      	push	{r7, lr}
 800190a:	b084      	sub	sp, #16
 800190c:	af00      	add	r7, sp, #0
 800190e:	60f8      	str	r0, [r7, #12]
 8001910:	60b9      	str	r1, [r7, #8]
 8001912:	607a      	str	r2, [r7, #4]
	if (__builtin_expect(__n > this->_M_max_size(), false))
 8001914:	68fb      	ldr	r3, [r7, #12]
 8001916:	0018      	movs	r0, r3
 8001918:	f7ff ffea 	bl	80018f0 <_ZNK9__gnu_cxx13new_allocatorI15TouchState_enumE11_M_max_sizeEv>
 800191c:	0002      	movs	r2, r0
 800191e:	68bb      	ldr	r3, [r7, #8]
 8001920:	429a      	cmp	r2, r3
 8001922:	419b      	sbcs	r3, r3
 8001924:	425b      	negs	r3, r3
 8001926:	b2db      	uxtb	r3, r3
 8001928:	1e5a      	subs	r2, r3, #1
 800192a:	4193      	sbcs	r3, r2
 800192c:	b2db      	uxtb	r3, r3
 800192e:	2b00      	cmp	r3, #0
 8001930:	d001      	beq.n	8001936 <_ZN9__gnu_cxx13new_allocatorI15TouchState_enumE8allocateEjPKv+0x2e>
	    std::__throw_bad_alloc();
 8001932:	f003 fb5f 	bl	8004ff4 <_ZSt17__throw_bad_allocv>
	return static_cast<_Tp*>(::operator new(__n * sizeof(_Tp)));
 8001936:	68bb      	ldr	r3, [r7, #8]
 8001938:	0018      	movs	r0, r3
 800193a:	f003 fb49 	bl	8004fd0 <_Znwj>
 800193e:	0003      	movs	r3, r0
      }
 8001940:	0018      	movs	r0, r3
 8001942:	46bd      	mov	sp, r7
 8001944:	b004      	add	sp, #16
 8001946:	bd80      	pop	{r7, pc}

08001948 <_ZSt10_ConstructI15TouchState_enumJEEvPT_DpOT0_>:
    _Construct(_Tp* __p, _Args&&... __args)
 8001948:	b580      	push	{r7, lr}
 800194a:	b082      	sub	sp, #8
 800194c:	af00      	add	r7, sp, #0
 800194e:	6078      	str	r0, [r7, #4]
      ::new((void*)__p) _Tp(std::forward<_Args>(__args)...);
 8001950:	687b      	ldr	r3, [r7, #4]
 8001952:	0019      	movs	r1, r3
 8001954:	2001      	movs	r0, #1
 8001956:	f7ff f80b 	bl	8000970 <_ZnwjPv>
 800195a:	0003      	movs	r3, r0
 800195c:	2200      	movs	r2, #0
 800195e:	701a      	strb	r2, [r3, #0]
    }
 8001960:	46c0      	nop			; (mov r8, r8)
 8001962:	46bd      	mov	sp, r7
 8001964:	b002      	add	sp, #8
 8001966:	bd80      	pop	{r7, pc}

08001968 <_ZSt6fill_nIP15TouchState_enumjS0_ET_S2_T0_RKT1_>:
  // DR 865. More algorithms that throw away information
  // DR 426. search_n(), fill_n(), and generate_n() with negative n
  template<typename _OI, typename _Size, typename _Tp>
    _GLIBCXX20_CONSTEXPR
    inline _OI
    fill_n(_OI __first, _Size __n, const _Tp& __value)
 8001968:	b5f0      	push	{r4, r5, r6, r7, lr}
 800196a:	b085      	sub	sp, #20
 800196c:	af00      	add	r7, sp, #0
 800196e:	60f8      	str	r0, [r7, #12]
 8001970:	60b9      	str	r1, [r7, #8]
 8001972:	607a      	str	r2, [r7, #4]
    {
      // concept requirements
      __glibcxx_function_requires(_OutputIteratorConcept<_OI, _Tp>)

      return std::__fill_n_a(__first, std::__size_to_integer(__n), __value,
 8001974:	68fc      	ldr	r4, [r7, #12]
 8001976:	68bb      	ldr	r3, [r7, #8]
 8001978:	0018      	movs	r0, r3
 800197a:	f7fe fff0 	bl	800095e <_ZSt17__size_to_integerj>
 800197e:	0005      	movs	r5, r0
			       std::__iterator_category(__first));
 8001980:	230c      	movs	r3, #12
 8001982:	18fb      	adds	r3, r7, r3
 8001984:	0018      	movs	r0, r3
 8001986:	f000 f839 	bl	80019fc <_ZSt19__iterator_categoryIP15TouchState_enumENSt15iterator_traitsIT_E17iterator_categoryERKS3_>
      return std::__fill_n_a(__first, std::__size_to_integer(__n), __value,
 800198a:	687a      	ldr	r2, [r7, #4]
 800198c:	1c33      	adds	r3, r6, #0
 800198e:	0029      	movs	r1, r5
 8001990:	0020      	movs	r0, r4
 8001992:	f000 f83c 	bl	8001a0e <_ZSt10__fill_n_aIP15TouchState_enumjS0_ET_S2_T0_RKT1_St26random_access_iterator_tag>
 8001996:	0003      	movs	r3, r0
    }
 8001998:	0018      	movs	r0, r3
 800199a:	46bd      	mov	sp, r7
 800199c:	b005      	add	sp, #20
 800199e:	bdf0      	pop	{r4, r5, r6, r7, pc}

080019a0 <_ZSt12__miter_baseIN9__gnu_cxx17__normal_iteratorIPK15TouchState_enumSt6vectorIS2_SaIS2_EEEEET_S9_>:
  // Fallback implementation of the function in bits/stl_iterator.h used to
  // remove the move_iterator wrapper.
  template<typename _Iterator>
    _GLIBCXX20_CONSTEXPR
    inline _Iterator
    __miter_base(_Iterator __it)
 80019a0:	b580      	push	{r7, lr}
 80019a2:	b082      	sub	sp, #8
 80019a4:	af00      	add	r7, sp, #0
 80019a6:	6078      	str	r0, [r7, #4]
    { return __it; }
 80019a8:	687b      	ldr	r3, [r7, #4]
 80019aa:	0018      	movs	r0, r3
 80019ac:	46bd      	mov	sp, r7
 80019ae:	b002      	add	sp, #8
 80019b0:	bd80      	pop	{r7, pc}

080019b2 <_ZSt13__copy_move_aILb0EN9__gnu_cxx17__normal_iteratorIPK15TouchState_enumSt6vectorIS2_SaIS2_EEEEPS2_ET1_T0_SB_SA_>:
    __copy_move_a(_II __first, _II __last, _OI __result)
 80019b2:	b5b0      	push	{r4, r5, r7, lr}
 80019b4:	b084      	sub	sp, #16
 80019b6:	af00      	add	r7, sp, #0
 80019b8:	60f8      	str	r0, [r7, #12]
 80019ba:	60b9      	str	r1, [r7, #8]
 80019bc:	607a      	str	r2, [r7, #4]
      return std::__niter_wrap(__result,
 80019be:	68fb      	ldr	r3, [r7, #12]
 80019c0:	0018      	movs	r0, r3
 80019c2:	f000 f840 	bl	8001a46 <_ZSt12__niter_baseIPK15TouchState_enumSt6vectorIS0_SaIS0_EEET_N9__gnu_cxx17__normal_iteratorIS6_T0_EE>
 80019c6:	0004      	movs	r4, r0
 80019c8:	68bb      	ldr	r3, [r7, #8]
 80019ca:	0018      	movs	r0, r3
 80019cc:	f000 f83b 	bl	8001a46 <_ZSt12__niter_baseIPK15TouchState_enumSt6vectorIS0_SaIS0_EEET_N9__gnu_cxx17__normal_iteratorIS6_T0_EE>
 80019d0:	0005      	movs	r5, r0
 80019d2:	687b      	ldr	r3, [r7, #4]
 80019d4:	0018      	movs	r0, r3
 80019d6:	f000 f844 	bl	8001a62 <_ZSt12__niter_baseIP15TouchState_enumET_S2_>
 80019da:	0003      	movs	r3, r0
 80019dc:	001a      	movs	r2, r3
 80019de:	0029      	movs	r1, r5
 80019e0:	0020      	movs	r0, r4
 80019e2:	f000 f847 	bl	8001a74 <_ZSt14__copy_move_a1ILb0EPK15TouchState_enumPS0_ET1_T0_S5_S4_>
 80019e6:	0002      	movs	r2, r0
 80019e8:	1d3b      	adds	r3, r7, #4
 80019ea:	0011      	movs	r1, r2
 80019ec:	0018      	movs	r0, r3
 80019ee:	f000 f852 	bl	8001a96 <_ZSt12__niter_wrapIP15TouchState_enumET_RKS2_S2_>
 80019f2:	0003      	movs	r3, r0
    }
 80019f4:	0018      	movs	r0, r3
 80019f6:	46bd      	mov	sp, r7
 80019f8:	b004      	add	sp, #16
 80019fa:	bdb0      	pop	{r4, r5, r7, pc}

080019fc <_ZSt19__iterator_categoryIP15TouchState_enumENSt15iterator_traitsIT_E17iterator_categoryERKS3_>:
   *  sugar for internal library use only.
  */
  template<typename _Iter>
    inline _GLIBCXX_CONSTEXPR
    typename iterator_traits<_Iter>::iterator_category
    __iterator_category(const _Iter&)
 80019fc:	b580      	push	{r7, lr}
 80019fe:	b082      	sub	sp, #8
 8001a00:	af00      	add	r7, sp, #0
 8001a02:	6078      	str	r0, [r7, #4]
    { return typename iterator_traits<_Iter>::iterator_category(); }
 8001a04:	46c0      	nop			; (mov r8, r8)
 8001a06:	1c18      	adds	r0, r3, #0
 8001a08:	46bd      	mov	sp, r7
 8001a0a:	b002      	add	sp, #8
 8001a0c:	bd80      	pop	{r7, pc}

08001a0e <_ZSt10__fill_n_aIP15TouchState_enumjS0_ET_S2_T0_RKT1_St26random_access_iterator_tag>:
    __fill_n_a(_OutputIterator __first, _Size __n, const _Tp& __value,
 8001a0e:	b580      	push	{r7, lr}
 8001a10:	b084      	sub	sp, #16
 8001a12:	af00      	add	r7, sp, #0
 8001a14:	60f8      	str	r0, [r7, #12]
 8001a16:	60b9      	str	r1, [r7, #8]
 8001a18:	607a      	str	r2, [r7, #4]
 8001a1a:	003a      	movs	r2, r7
 8001a1c:	7013      	strb	r3, [r2, #0]
      if (__n <= 0)
 8001a1e:	68bb      	ldr	r3, [r7, #8]
 8001a20:	2b00      	cmp	r3, #0
 8001a22:	d101      	bne.n	8001a28 <_ZSt10__fill_n_aIP15TouchState_enumjS0_ET_S2_T0_RKT1_St26random_access_iterator_tag+0x1a>
	return __first;
 8001a24:	68fb      	ldr	r3, [r7, #12]
 8001a26:	e00a      	b.n	8001a3e <_ZSt10__fill_n_aIP15TouchState_enumjS0_ET_S2_T0_RKT1_St26random_access_iterator_tag+0x30>
      std::__fill_a(__first, __first + __n, __value);
 8001a28:	68fa      	ldr	r2, [r7, #12]
 8001a2a:	68bb      	ldr	r3, [r7, #8]
 8001a2c:	18d1      	adds	r1, r2, r3
 8001a2e:	687a      	ldr	r2, [r7, #4]
 8001a30:	68fb      	ldr	r3, [r7, #12]
 8001a32:	0018      	movs	r0, r3
 8001a34:	f000 f839 	bl	8001aaa <_ZSt8__fill_aIP15TouchState_enumS0_EvT_S2_RKT0_>
      return __first + __n;
 8001a38:	68fa      	ldr	r2, [r7, #12]
 8001a3a:	68bb      	ldr	r3, [r7, #8]
 8001a3c:	18d3      	adds	r3, r2, r3
    }
 8001a3e:	0018      	movs	r0, r3
 8001a40:	46bd      	mov	sp, r7
 8001a42:	b004      	add	sp, #16
 8001a44:	bd80      	pop	{r7, pc}

08001a46 <_ZSt12__niter_baseIPK15TouchState_enumSt6vectorIS0_SaIS0_EEET_N9__gnu_cxx17__normal_iteratorIS6_T0_EE>:
_GLIBCXX_BEGIN_NAMESPACE_VERSION

  template<typename _Iterator, typename _Container>
    _GLIBCXX20_CONSTEXPR
    _Iterator
    __niter_base(__gnu_cxx::__normal_iterator<_Iterator, _Container> __it)
 8001a46:	b580      	push	{r7, lr}
 8001a48:	b082      	sub	sp, #8
 8001a4a:	af00      	add	r7, sp, #0
 8001a4c:	6078      	str	r0, [r7, #4]
    _GLIBCXX_NOEXCEPT_IF(std::is_nothrow_copy_constructible<_Iterator>::value)
    { return __it.base(); }
 8001a4e:	1d3b      	adds	r3, r7, #4
 8001a50:	0018      	movs	r0, r3
 8001a52:	f000 f83a 	bl	8001aca <_ZNK9__gnu_cxx17__normal_iteratorIPK15TouchState_enumSt6vectorIS1_SaIS1_EEE4baseEv>
 8001a56:	0003      	movs	r3, r0
 8001a58:	681b      	ldr	r3, [r3, #0]
 8001a5a:	0018      	movs	r0, r3
 8001a5c:	46bd      	mov	sp, r7
 8001a5e:	b002      	add	sp, #8
 8001a60:	bd80      	pop	{r7, pc}

08001a62 <_ZSt12__niter_baseIP15TouchState_enumET_S2_>:
    __niter_base(_Iterator __it)
 8001a62:	b580      	push	{r7, lr}
 8001a64:	b082      	sub	sp, #8
 8001a66:	af00      	add	r7, sp, #0
 8001a68:	6078      	str	r0, [r7, #4]
    { return __it; }
 8001a6a:	687b      	ldr	r3, [r7, #4]
 8001a6c:	0018      	movs	r0, r3
 8001a6e:	46bd      	mov	sp, r7
 8001a70:	b002      	add	sp, #8
 8001a72:	bd80      	pop	{r7, pc}

08001a74 <_ZSt14__copy_move_a1ILb0EPK15TouchState_enumPS0_ET1_T0_S5_S4_>:
    __copy_move_a1(_II __first, _II __last, _OI __result)
 8001a74:	b580      	push	{r7, lr}
 8001a76:	b084      	sub	sp, #16
 8001a78:	af00      	add	r7, sp, #0
 8001a7a:	60f8      	str	r0, [r7, #12]
 8001a7c:	60b9      	str	r1, [r7, #8]
 8001a7e:	607a      	str	r2, [r7, #4]
    { return std::__copy_move_a2<_IsMove>(__first, __last, __result); }
 8001a80:	687a      	ldr	r2, [r7, #4]
 8001a82:	68b9      	ldr	r1, [r7, #8]
 8001a84:	68fb      	ldr	r3, [r7, #12]
 8001a86:	0018      	movs	r0, r3
 8001a88:	f000 f828 	bl	8001adc <_ZSt14__copy_move_a2ILb0EPK15TouchState_enumPS0_ET1_T0_S5_S4_>
 8001a8c:	0003      	movs	r3, r0
 8001a8e:	0018      	movs	r0, r3
 8001a90:	46bd      	mov	sp, r7
 8001a92:	b004      	add	sp, #16
 8001a94:	bd80      	pop	{r7, pc}

08001a96 <_ZSt12__niter_wrapIP15TouchState_enumET_RKS2_S2_>:
    __niter_wrap(const _Iterator&, _Iterator __res)
 8001a96:	b580      	push	{r7, lr}
 8001a98:	b082      	sub	sp, #8
 8001a9a:	af00      	add	r7, sp, #0
 8001a9c:	6078      	str	r0, [r7, #4]
 8001a9e:	6039      	str	r1, [r7, #0]
    { return __res; }
 8001aa0:	683b      	ldr	r3, [r7, #0]
 8001aa2:	0018      	movs	r0, r3
 8001aa4:	46bd      	mov	sp, r7
 8001aa6:	b002      	add	sp, #8
 8001aa8:	bd80      	pop	{r7, pc}

08001aaa <_ZSt8__fill_aIP15TouchState_enumS0_EvT_S2_RKT0_>:
    __fill_a(_FIte __first, _FIte __last, const _Tp& __value)
 8001aaa:	b580      	push	{r7, lr}
 8001aac:	b084      	sub	sp, #16
 8001aae:	af00      	add	r7, sp, #0
 8001ab0:	60f8      	str	r0, [r7, #12]
 8001ab2:	60b9      	str	r1, [r7, #8]
 8001ab4:	607a      	str	r2, [r7, #4]
    { std::__fill_a1(__first, __last, __value); }
 8001ab6:	687a      	ldr	r2, [r7, #4]
 8001ab8:	68b9      	ldr	r1, [r7, #8]
 8001aba:	68fb      	ldr	r3, [r7, #12]
 8001abc:	0018      	movs	r0, r3
 8001abe:	f000 f81e 	bl	8001afe <_ZSt9__fill_a1IP15TouchState_enumS0_EN9__gnu_cxx11__enable_ifIXntsrSt11__is_scalarIT0_E7__valueEvE6__typeET_S9_RKS5_>
 8001ac2:	46c0      	nop			; (mov r8, r8)
 8001ac4:	46bd      	mov	sp, r7
 8001ac6:	b004      	add	sp, #16
 8001ac8:	bd80      	pop	{r7, pc}

08001aca <_ZNK9__gnu_cxx17__normal_iteratorIPK15TouchState_enumSt6vectorIS1_SaIS1_EEE4baseEv>:
      base() const _GLIBCXX_NOEXCEPT
 8001aca:	b580      	push	{r7, lr}
 8001acc:	b082      	sub	sp, #8
 8001ace:	af00      	add	r7, sp, #0
 8001ad0:	6078      	str	r0, [r7, #4]
      { return _M_current; }
 8001ad2:	687b      	ldr	r3, [r7, #4]
 8001ad4:	0018      	movs	r0, r3
 8001ad6:	46bd      	mov	sp, r7
 8001ad8:	b002      	add	sp, #8
 8001ada:	bd80      	pop	{r7, pc}

08001adc <_ZSt14__copy_move_a2ILb0EPK15TouchState_enumPS0_ET1_T0_S5_S4_>:
    __copy_move_a2(_II __first, _II __last, _OI __result)
 8001adc:	b580      	push	{r7, lr}
 8001ade:	b084      	sub	sp, #16
 8001ae0:	af00      	add	r7, sp, #0
 8001ae2:	60f8      	str	r0, [r7, #12]
 8001ae4:	60b9      	str	r1, [r7, #8]
 8001ae6:	607a      	str	r2, [r7, #4]
			      _Category>::__copy_m(__first, __last, __result);
 8001ae8:	687a      	ldr	r2, [r7, #4]
 8001aea:	68b9      	ldr	r1, [r7, #8]
 8001aec:	68fb      	ldr	r3, [r7, #12]
 8001aee:	0018      	movs	r0, r3
 8001af0:	f000 f81c 	bl	8001b2c <_ZNSt11__copy_moveILb0ELb1ESt26random_access_iterator_tagE8__copy_mI15TouchState_enumEEPT_PKS4_S7_S5_>
 8001af4:	0003      	movs	r3, r0
    }
 8001af6:	0018      	movs	r0, r3
 8001af8:	46bd      	mov	sp, r7
 8001afa:	b004      	add	sp, #16
 8001afc:	bd80      	pop	{r7, pc}

08001afe <_ZSt9__fill_a1IP15TouchState_enumS0_EN9__gnu_cxx11__enable_ifIXntsrSt11__is_scalarIT0_E7__valueEvE6__typeET_S9_RKS5_>:
    __fill_a1(_ForwardIterator __first, _ForwardIterator __last,
 8001afe:	b580      	push	{r7, lr}
 8001b00:	b084      	sub	sp, #16
 8001b02:	af00      	add	r7, sp, #0
 8001b04:	60f8      	str	r0, [r7, #12]
 8001b06:	60b9      	str	r1, [r7, #8]
 8001b08:	607a      	str	r2, [r7, #4]
      for (; __first != __last; ++__first)
 8001b0a:	e006      	b.n	8001b1a <_ZSt9__fill_a1IP15TouchState_enumS0_EN9__gnu_cxx11__enable_ifIXntsrSt11__is_scalarIT0_E7__valueEvE6__typeET_S9_RKS5_+0x1c>
	*__first = __value;
 8001b0c:	687b      	ldr	r3, [r7, #4]
 8001b0e:	781a      	ldrb	r2, [r3, #0]
 8001b10:	68fb      	ldr	r3, [r7, #12]
 8001b12:	701a      	strb	r2, [r3, #0]
      for (; __first != __last; ++__first)
 8001b14:	68fb      	ldr	r3, [r7, #12]
 8001b16:	3301      	adds	r3, #1
 8001b18:	60fb      	str	r3, [r7, #12]
 8001b1a:	68fa      	ldr	r2, [r7, #12]
 8001b1c:	68bb      	ldr	r3, [r7, #8]
 8001b1e:	429a      	cmp	r2, r3
 8001b20:	d1f4      	bne.n	8001b0c <_ZSt9__fill_a1IP15TouchState_enumS0_EN9__gnu_cxx11__enable_ifIXntsrSt11__is_scalarIT0_E7__valueEvE6__typeET_S9_RKS5_+0xe>
    }
 8001b22:	46c0      	nop			; (mov r8, r8)
 8001b24:	46c0      	nop			; (mov r8, r8)
 8001b26:	46bd      	mov	sp, r7
 8001b28:	b004      	add	sp, #16
 8001b2a:	bd80      	pop	{r7, pc}

08001b2c <_ZNSt11__copy_moveILb0ELb1ESt26random_access_iterator_tagE8__copy_mI15TouchState_enumEEPT_PKS4_S7_S5_>:
	__copy_m(const _Tp* __first, const _Tp* __last, _Tp* __result)
 8001b2c:	b580      	push	{r7, lr}
 8001b2e:	b086      	sub	sp, #24
 8001b30:	af00      	add	r7, sp, #0
 8001b32:	60f8      	str	r0, [r7, #12]
 8001b34:	60b9      	str	r1, [r7, #8]
 8001b36:	607a      	str	r2, [r7, #4]
	  const ptrdiff_t _Num = __last - __first;
 8001b38:	68ba      	ldr	r2, [r7, #8]
 8001b3a:	68fb      	ldr	r3, [r7, #12]
 8001b3c:	1ad3      	subs	r3, r2, r3
 8001b3e:	617b      	str	r3, [r7, #20]
	  if (_Num)
 8001b40:	697b      	ldr	r3, [r7, #20]
 8001b42:	2b00      	cmp	r3, #0
 8001b44:	d005      	beq.n	8001b52 <_ZNSt11__copy_moveILb0ELb1ESt26random_access_iterator_tagE8__copy_mI15TouchState_enumEEPT_PKS4_S7_S5_+0x26>
	    __builtin_memmove(__result, __first, sizeof(_Tp) * _Num);
 8001b46:	697a      	ldr	r2, [r7, #20]
 8001b48:	68f9      	ldr	r1, [r7, #12]
 8001b4a:	687b      	ldr	r3, [r7, #4]
 8001b4c:	0018      	movs	r0, r3
 8001b4e:	f003 fb35 	bl	80051bc <memmove>
	  return __result + _Num;
 8001b52:	697b      	ldr	r3, [r7, #20]
 8001b54:	687a      	ldr	r2, [r7, #4]
 8001b56:	18d3      	adds	r3, r2, r3
	}
 8001b58:	0018      	movs	r0, r3
 8001b5a:	46bd      	mov	sp, r7
 8001b5c:	b006      	add	sp, #24
 8001b5e:	bd80      	pop	{r7, pc}

08001b60 <_ZN9WavPlayerC1ER17I2S_HandleTypeDef>:
#include "WavPlayer.hpp"

WavPlayer::WavPlayer(I2S_HandleTypeDef &hi2s) : i2sHandle(hi2s) {
 8001b60:	b580      	push	{r7, lr}
 8001b62:	b082      	sub	sp, #8
 8001b64:	af00      	add	r7, sp, #0
 8001b66:	6078      	str	r0, [r7, #4]
 8001b68:	6039      	str	r1, [r7, #0]
 8001b6a:	687b      	ldr	r3, [r7, #4]
 8001b6c:	2200      	movs	r2, #0
 8001b6e:	705a      	strb	r2, [r3, #1]
 8001b70:	687b      	ldr	r3, [r7, #4]
 8001b72:	2200      	movs	r2, #0
 8001b74:	709a      	strb	r2, [r3, #2]
 8001b76:	687b      	ldr	r3, [r7, #4]
 8001b78:	683a      	ldr	r2, [r7, #0]
 8001b7a:	605a      	str	r2, [r3, #4]
}
 8001b7c:	687b      	ldr	r3, [r7, #4]
 8001b7e:	0018      	movs	r0, r3
 8001b80:	46bd      	mov	sp, r7
 8001b82:	b002      	add	sp, #8
 8001b84:	bd80      	pop	{r7, pc}

08001b86 <_ZN9WavPlayerD1Ev>:

WavPlayer::~WavPlayer() {
 8001b86:	b580      	push	{r7, lr}
 8001b88:	b082      	sub	sp, #8
 8001b8a:	af00      	add	r7, sp, #0
 8001b8c:	6078      	str	r0, [r7, #4]
}
 8001b8e:	687b      	ldr	r3, [r7, #4]
 8001b90:	0018      	movs	r0, r3
 8001b92:	46bd      	mov	sp, r7
 8001b94:	b002      	add	sp, #8
 8001b96:	bd80      	pop	{r7, pc}

08001b98 <main>:
/**
  * @brief  The application entry point.
  * @retval int
  */
int main(void)
{
 8001b98:	b590      	push	{r4, r7, lr}
 8001b9a:	b089      	sub	sp, #36	; 0x24
 8001b9c:	af02      	add	r7, sp, #8
  /* USER CODE END 1 */

  /* MCU Configuration--------------------------------------------------------*/

  /* Reset of all peripherals, Initializes the Flash interface and the Systick. */
  HAL_Init();
 8001b9e:	f000 ffcd 	bl	8002b3c <HAL_Init>
  /* USER CODE BEGIN Init */

  /* USER CODE END Init */

  /* Configure the system clock */
  SystemClock_Config();
 8001ba2:	f000 f8e9 	bl	8001d78 <_Z18SystemClock_Configv>
  /* USER CODE BEGIN SysInit */

  /* USER CODE END SysInit */

  /* Initialize all configured peripherals */
  MX_GPIO_Init();
 8001ba6:	f000 fa91 	bl	80020cc <_ZL12MX_GPIO_Initv>
  MX_DMA_Init();
 8001baa:	f000 fa61 	bl	8002070 <_ZL11MX_DMA_Initv>
  MX_I2S2_Init();
 8001bae:	f000 f947 	bl	8001e40 <_ZL12MX_I2S2_Initv>
  MX_SPI1_Init();
 8001bb2:	f000 f973 	bl	8001e9c <_ZL12MX_SPI1_Initv>
  MX_TIM2_Init();
 8001bb6:	f000 f9ad 	bl	8001f14 <_ZL12MX_TIM2_Initv>
  /* USER CODE BEGIN 2 */

  // Mount SD Card
  HAL_GPIO_WritePin(SD_SPI1_CS_N_GPIO_Port, SD_SPI1_CS_N_Pin, GPIO_PIN_SET);
 8001bba:	2380      	movs	r3, #128	; 0x80
 8001bbc:	0219      	lsls	r1, r3, #8
 8001bbe:	23a0      	movs	r3, #160	; 0xa0
 8001bc0:	05db      	lsls	r3, r3, #23
 8001bc2:	2201      	movs	r2, #1
 8001bc4:	0018      	movs	r0, r3
 8001bc6:	f001 f9e1 	bl	8002f8c <HAL_GPIO_WritePin>
  FRESULT fr;
  fr = f_mount(&FatFs, "", 1);
 8001bca:	230f      	movs	r3, #15
 8001bcc:	18fc      	adds	r4, r7, r3
 8001bce:	495f      	ldr	r1, [pc, #380]	; (8001d4c <main+0x1b4>)
 8001bd0:	4b5f      	ldr	r3, [pc, #380]	; (8001d50 <main+0x1b8>)
 8001bd2:	2201      	movs	r2, #1
 8001bd4:	0018      	movs	r0, r3
 8001bd6:	f003 f9d1 	bl	8004f7c <f_mount>
 8001bda:	0003      	movs	r3, r0
 8001bdc:	7023      	strb	r3, [r4, #0]

  // Set LED defaults
  HAL_GPIO_WritePin(TEST_LED_GPIO_Port, TEST_LED_Pin, GPIO_PIN_SET);
 8001bde:	2380      	movs	r3, #128	; 0x80
 8001be0:	00db      	lsls	r3, r3, #3
 8001be2:	485c      	ldr	r0, [pc, #368]	; (8001d54 <main+0x1bc>)
 8001be4:	2201      	movs	r2, #1
 8001be6:	0019      	movs	r1, r3
 8001be8:	f001 f9d0 	bl	8002f8c <HAL_GPIO_WritePin>

  touchGroup0.setAllPixelColor(0,0,255);
 8001bec:	485a      	ldr	r0, [pc, #360]	; (8001d58 <main+0x1c0>)
 8001bee:	23ff      	movs	r3, #255	; 0xff
 8001bf0:	2200      	movs	r2, #0
 8001bf2:	2100      	movs	r1, #0
 8001bf4:	f7fe ff5e 	bl	8000ab4 <_ZN15TouchBoardGroup16setAllPixelColorEhhh>
  touchGroup0.showPixels();
 8001bf8:	4b57      	ldr	r3, [pc, #348]	; (8001d58 <main+0x1c0>)
 8001bfa:	0018      	movs	r0, r3
 8001bfc:	f7fe ffb6 	bl	8000b6c <_ZN15TouchBoardGroup10showPixelsEv>

  for (int i=0; i<72; i++) {
 8001c00:	2300      	movs	r3, #0
 8001c02:	617b      	str	r3, [r7, #20]
 8001c04:	e00b      	b.n	8001c1e <main+0x86>
    rocketStream.setPixelColor(i, 0, 255, 0);
 8001c06:	697b      	ldr	r3, [r7, #20]
 8001c08:	b299      	uxth	r1, r3
 8001c0a:	4854      	ldr	r0, [pc, #336]	; (8001d5c <main+0x1c4>)
 8001c0c:	2300      	movs	r3, #0
 8001c0e:	9300      	str	r3, [sp, #0]
 8001c10:	23ff      	movs	r3, #255	; 0xff
 8001c12:	2200      	movs	r2, #0
 8001c14:	f7fe fd30 	bl	8000678 <_ZN8NeoPixel13setPixelColorEthhh>
  for (int i=0; i<72; i++) {
 8001c18:	697b      	ldr	r3, [r7, #20]
 8001c1a:	3301      	adds	r3, #1
 8001c1c:	617b      	str	r3, [r7, #20]
 8001c1e:	697b      	ldr	r3, [r7, #20]
 8001c20:	2b47      	cmp	r3, #71	; 0x47
 8001c22:	ddf0      	ble.n	8001c06 <main+0x6e>
  }
  rocketStream.show();
 8001c24:	4b4d      	ldr	r3, [pc, #308]	; (8001d5c <main+0x1c4>)
 8001c26:	0018      	movs	r0, r3
 8001c28:	f7fe fd5e 	bl	80006e8 <_ZN8NeoPixel4showEv>
  //audioPlayer.play_atomic("01_Blues_Clues.wav");

  while (1)
  {

    switch(state) {
 8001c2c:	4b4c      	ldr	r3, [pc, #304]	; (8001d60 <main+0x1c8>)
 8001c2e:	781b      	ldrb	r3, [r3, #0]
 8001c30:	2b00      	cmp	r3, #0
 8001c32:	d002      	beq.n	8001c3a <main+0xa2>
 8001c34:	2b01      	cmp	r3, #1
 8001c36:	d007      	beq.n	8001c48 <main+0xb0>
 8001c38:	e084      	b.n	8001d44 <main+0x1ac>
      ///////////////////////////////////////////////////////////////////////////////////
      // Off State
      // Press a button to turn on
      ///////////////////////////////////////////////////////////////////////////////////
      case ST_off:
        state = ST_awake;
 8001c3a:	4b49      	ldr	r3, [pc, #292]	; (8001d60 <main+0x1c8>)
 8001c3c:	2201      	movs	r2, #1
 8001c3e:	701a      	strb	r2, [r3, #0]
        HAL_Delay(200);
 8001c40:	20c8      	movs	r0, #200	; 0xc8
 8001c42:	f000 ffa1 	bl	8002b88 <HAL_Delay>
        break;
 8001c46:	e080      	b.n	8001d4a <main+0x1b2>
      // Awake State
      ///////////////////////////////////////////////////////////////////////////////////
      case ST_awake:

    	// Buttons
        buttonL.updateButtonState();
 8001c48:	4b46      	ldr	r3, [pc, #280]	; (8001d64 <main+0x1cc>)
 8001c4a:	0018      	movs	r0, r3
 8001c4c:	f7fe fc75 	bl	800053a <_ZN9LedButton17updateButtonStateEv>
        buttonR.updateButtonState();
 8001c50:	4b45      	ldr	r3, [pc, #276]	; (8001d68 <main+0x1d0>)
 8001c52:	0018      	movs	r0, r3
 8001c54:	f7fe fc71 	bl	800053a <_ZN9LedButton17updateButtonStateEv>
        buttonStateL = buttonL.getButtonState();
 8001c58:	4b42      	ldr	r3, [pc, #264]	; (8001d64 <main+0x1cc>)
 8001c5a:	0018      	movs	r0, r3
 8001c5c:	f7fe fca8 	bl	80005b0 <_ZN9LedButton14getButtonStateEv>
 8001c60:	0003      	movs	r3, r0
 8001c62:	001a      	movs	r2, r3
 8001c64:	4b41      	ldr	r3, [pc, #260]	; (8001d6c <main+0x1d4>)
 8001c66:	701a      	strb	r2, [r3, #0]
        buttonStateR = buttonR.getButtonState();
 8001c68:	4b3f      	ldr	r3, [pc, #252]	; (8001d68 <main+0x1d0>)
 8001c6a:	0018      	movs	r0, r3
 8001c6c:	f7fe fca0 	bl	80005b0 <_ZN9LedButton14getButtonStateEv>
 8001c70:	0003      	movs	r3, r0
 8001c72:	001a      	movs	r2, r3
 8001c74:	4b3e      	ldr	r3, [pc, #248]	; (8001d70 <main+0x1d8>)
 8001c76:	701a      	strb	r2, [r3, #0]
        if (buttonStateL == PRESSED) {
 8001c78:	4b3c      	ldr	r3, [pc, #240]	; (8001d6c <main+0x1d4>)
 8001c7a:	781b      	ldrb	r3, [r3, #0]
 8001c7c:	2b01      	cmp	r3, #1
 8001c7e:	d105      	bne.n	8001c8c <main+0xf4>
        	buttonL.setLedState(ON);
 8001c80:	4b38      	ldr	r3, [pc, #224]	; (8001d64 <main+0x1cc>)
 8001c82:	2101      	movs	r1, #1
 8001c84:	0018      	movs	r0, r3
 8001c86:	f7fe fc40 	bl	800050a <_ZN9LedButton11setLedStateE13LedState_enum>
 8001c8a:	e004      	b.n	8001c96 <main+0xfe>
        } else {
        	buttonL.setLedState(OFF);
 8001c8c:	4b35      	ldr	r3, [pc, #212]	; (8001d64 <main+0x1cc>)
 8001c8e:	2100      	movs	r1, #0
 8001c90:	0018      	movs	r0, r3
 8001c92:	f7fe fc3a 	bl	800050a <_ZN9LedButton11setLedStateE13LedState_enum>
        }
        if (buttonStateR == PRESSED) {
 8001c96:	4b36      	ldr	r3, [pc, #216]	; (8001d70 <main+0x1d8>)
 8001c98:	781b      	ldrb	r3, [r3, #0]
 8001c9a:	2b01      	cmp	r3, #1
 8001c9c:	d105      	bne.n	8001caa <main+0x112>
			buttonR.setLedState(ON);
 8001c9e:	4b32      	ldr	r3, [pc, #200]	; (8001d68 <main+0x1d0>)
 8001ca0:	2101      	movs	r1, #1
 8001ca2:	0018      	movs	r0, r3
 8001ca4:	f7fe fc31 	bl	800050a <_ZN9LedButton11setLedStateE13LedState_enum>
 8001ca8:	e004      	b.n	8001cb4 <main+0x11c>
		} else {
			buttonR.setLedState(OFF);
 8001caa:	4b2f      	ldr	r3, [pc, #188]	; (8001d68 <main+0x1d0>)
 8001cac:	2100      	movs	r1, #0
 8001cae:	0018      	movs	r0, r3
 8001cb0:	f7fe fc2b 	bl	800050a <_ZN9LedButton11setLedStateE13LedState_enum>
		}

    	touchGroup0.updateTouchStates();
 8001cb4:	4b28      	ldr	r3, [pc, #160]	; (8001d58 <main+0x1c0>)
 8001cb6:	0018      	movs	r0, r3
 8001cb8:	f7fe ffa9 	bl	8000c0e <_ZN15TouchBoardGroup17updateTouchStatesEv>
        touchStates = touchGroup0.getTouchStates();
 8001cbc:	003b      	movs	r3, r7
 8001cbe:	4a26      	ldr	r2, [pc, #152]	; (8001d58 <main+0x1c0>)
 8001cc0:	0011      	movs	r1, r2
 8001cc2:	0018      	movs	r0, r3
 8001cc4:	f7fe ffc3 	bl	8000c4e <_ZN15TouchBoardGroup14getTouchStatesEv>
 8001cc8:	003a      	movs	r2, r7
 8001cca:	4b2a      	ldr	r3, [pc, #168]	; (8001d74 <main+0x1dc>)
 8001ccc:	0011      	movs	r1, r2
 8001cce:	0018      	movs	r0, r3
 8001cd0:	f000 fb6d 	bl	80023ae <_ZNSt6vectorI15TouchState_enumSaIS0_EEaSEOS2_>
 8001cd4:	003b      	movs	r3, r7
 8001cd6:	0018      	movs	r0, r3
 8001cd8:	f7ff f876 	bl	8000dc8 <_ZNSt6vectorI15TouchState_enumSaIS0_EED1Ev>

        for (int i=0; i<NUM_BOARDS; i++) {
 8001cdc:	2300      	movs	r3, #0
 8001cde:	613b      	str	r3, [r7, #16]
 8001ce0:	e022      	b.n	8001d28 <main+0x190>
          if (touchStates[i] == TOUCHED) {
 8001ce2:	693a      	ldr	r2, [r7, #16]
 8001ce4:	4b23      	ldr	r3, [pc, #140]	; (8001d74 <main+0x1dc>)
 8001ce6:	0011      	movs	r1, r2
 8001ce8:	0018      	movs	r0, r3
 8001cea:	f7ff f896 	bl	8000e1a <_ZNSt6vectorI15TouchState_enumSaIS0_EEixEj>
 8001cee:	0003      	movs	r3, r0
 8001cf0:	781b      	ldrb	r3, [r3, #0]
 8001cf2:	425a      	negs	r2, r3
 8001cf4:	4153      	adcs	r3, r2
 8001cf6:	b2db      	uxtb	r3, r3
 8001cf8:	2b00      	cmp	r3, #0
 8001cfa:	d009      	beq.n	8001d10 <main+0x178>
            touchGroup0.setBoardColor(i, 255, 100, 0);
 8001cfc:	693b      	ldr	r3, [r7, #16]
 8001cfe:	b2d9      	uxtb	r1, r3
 8001d00:	4815      	ldr	r0, [pc, #84]	; (8001d58 <main+0x1c0>)
 8001d02:	2300      	movs	r3, #0
 8001d04:	9300      	str	r3, [sp, #0]
 8001d06:	2364      	movs	r3, #100	; 0x64
 8001d08:	22ff      	movs	r2, #255	; 0xff
 8001d0a:	f7fe ff06 	bl	8000b1a <_ZN15TouchBoardGroup13setBoardColorEhhhh>
 8001d0e:	e008      	b.n	8001d22 <main+0x18a>
          } else {
            touchGroup0.setBoardColor(i, 0, 100, 255);
 8001d10:	693b      	ldr	r3, [r7, #16]
 8001d12:	b2d9      	uxtb	r1, r3
 8001d14:	4810      	ldr	r0, [pc, #64]	; (8001d58 <main+0x1c0>)
 8001d16:	23ff      	movs	r3, #255	; 0xff
 8001d18:	9300      	str	r3, [sp, #0]
 8001d1a:	2364      	movs	r3, #100	; 0x64
 8001d1c:	2200      	movs	r2, #0
 8001d1e:	f7fe fefc 	bl	8000b1a <_ZN15TouchBoardGroup13setBoardColorEhhhh>
        for (int i=0; i<NUM_BOARDS; i++) {
 8001d22:	693b      	ldr	r3, [r7, #16]
 8001d24:	3301      	adds	r3, #1
 8001d26:	613b      	str	r3, [r7, #16]
 8001d28:	693b      	ldr	r3, [r7, #16]
 8001d2a:	2b17      	cmp	r3, #23
 8001d2c:	ddd9      	ble.n	8001ce2 <main+0x14a>
          }
        }
        touchGroup0.showPixels();
 8001d2e:	4b0a      	ldr	r3, [pc, #40]	; (8001d58 <main+0x1c0>)
 8001d30:	0018      	movs	r0, r3
 8001d32:	f7fe ff1b 	bl	8000b6c <_ZN15TouchBoardGroup10showPixelsEv>
        rocketStream.show();
 8001d36:	4b09      	ldr	r3, [pc, #36]	; (8001d5c <main+0x1c4>)
 8001d38:	0018      	movs	r0, r3
 8001d3a:	f7fe fcd5 	bl	80006e8 <_ZN8NeoPixel4showEv>
        HAL_Delay(20);
 8001d3e:	2014      	movs	r0, #20
 8001d40:	f000 ff22 	bl	8002b88 <HAL_Delay>

      default:
        state = ST_awake;
 8001d44:	4b06      	ldr	r3, [pc, #24]	; (8001d60 <main+0x1c8>)
 8001d46:	2201      	movs	r2, #1
 8001d48:	701a      	strb	r2, [r3, #0]


	/* USER CODE END WHILE */

    /* USER CODE BEGIN 3 */
  }
 8001d4a:	e76f      	b.n	8001c2c <main+0x94>
 8001d4c:	080053f8 	.word	0x080053f8
 8001d50:	20000390 	.word	0x20000390
 8001d54:	50001c00 	.word	0x50001c00
 8001d58:	200005b8 	.word	0x200005b8
 8001d5c:	20000c34 	.word	0x20000c34
 8001d60:	20000c86 	.word	0x20000c86
 8001d64:	20000c54 	.word	0x20000c54
 8001d68:	20000c6c 	.word	0x20000c6c
 8001d6c:	20000c84 	.word	0x20000c84
 8001d70:	20000c85 	.word	0x20000c85
 8001d74:	200005f8 	.word	0x200005f8

08001d78 <_Z18SystemClock_Configv>:
/**
  * @brief System Clock Configuration
  * @retval None
  */
void SystemClock_Config(void)
{
 8001d78:	b590      	push	{r4, r7, lr}
 8001d7a:	b095      	sub	sp, #84	; 0x54
 8001d7c:	af00      	add	r7, sp, #0
  RCC_OscInitTypeDef RCC_OscInitStruct = {0};
 8001d7e:	2418      	movs	r4, #24
 8001d80:	193b      	adds	r3, r7, r4
 8001d82:	0018      	movs	r0, r3
 8001d84:	2338      	movs	r3, #56	; 0x38
 8001d86:	001a      	movs	r2, r3
 8001d88:	2100      	movs	r1, #0
 8001d8a:	f003 fa2a 	bl	80051e2 <memset>
  RCC_ClkInitTypeDef RCC_ClkInitStruct = {0};
 8001d8e:	1d3b      	adds	r3, r7, #4
 8001d90:	0018      	movs	r0, r3
 8001d92:	2314      	movs	r3, #20
 8001d94:	001a      	movs	r2, r3
 8001d96:	2100      	movs	r1, #0
 8001d98:	f003 fa23 	bl	80051e2 <memset>

  /** Configure the main internal regulator output voltage
  */
  __HAL_PWR_VOLTAGESCALING_CONFIG(PWR_REGULATOR_VOLTAGE_SCALE1);
 8001d9c:	4b26      	ldr	r3, [pc, #152]	; (8001e38 <_Z18SystemClock_Configv+0xc0>)
 8001d9e:	681b      	ldr	r3, [r3, #0]
 8001da0:	4a26      	ldr	r2, [pc, #152]	; (8001e3c <_Z18SystemClock_Configv+0xc4>)
 8001da2:	401a      	ands	r2, r3
 8001da4:	4b24      	ldr	r3, [pc, #144]	; (8001e38 <_Z18SystemClock_Configv+0xc0>)
 8001da6:	2180      	movs	r1, #128	; 0x80
 8001da8:	0109      	lsls	r1, r1, #4
 8001daa:	430a      	orrs	r2, r1
 8001dac:	601a      	str	r2, [r3, #0]
  /** Initializes the RCC Oscillators according to the specified parameters
  * in the RCC_OscInitTypeDef structure.
  */
  RCC_OscInitStruct.OscillatorType = RCC_OSCILLATORTYPE_HSI;
 8001dae:	0021      	movs	r1, r4
 8001db0:	187b      	adds	r3, r7, r1
 8001db2:	2202      	movs	r2, #2
 8001db4:	601a      	str	r2, [r3, #0]
  RCC_OscInitStruct.HSIState = RCC_HSI_ON;
 8001db6:	187b      	adds	r3, r7, r1
 8001db8:	2201      	movs	r2, #1
 8001dba:	60da      	str	r2, [r3, #12]
  RCC_OscInitStruct.HSICalibrationValue = RCC_HSICALIBRATION_DEFAULT;
 8001dbc:	187b      	adds	r3, r7, r1
 8001dbe:	2210      	movs	r2, #16
 8001dc0:	611a      	str	r2, [r3, #16]
  RCC_OscInitStruct.PLL.PLLState = RCC_PLL_ON;
 8001dc2:	187b      	adds	r3, r7, r1
 8001dc4:	2202      	movs	r2, #2
 8001dc6:	629a      	str	r2, [r3, #40]	; 0x28
  RCC_OscInitStruct.PLL.PLLSource = RCC_PLLSOURCE_HSI;
 8001dc8:	187b      	adds	r3, r7, r1
 8001dca:	2200      	movs	r2, #0
 8001dcc:	62da      	str	r2, [r3, #44]	; 0x2c
  RCC_OscInitStruct.PLL.PLLMUL = RCC_PLLMUL_4;
 8001dce:	187b      	adds	r3, r7, r1
 8001dd0:	2280      	movs	r2, #128	; 0x80
 8001dd2:	02d2      	lsls	r2, r2, #11
 8001dd4:	631a      	str	r2, [r3, #48]	; 0x30
  RCC_OscInitStruct.PLL.PLLDIV = RCC_PLLDIV_2;
 8001dd6:	187b      	adds	r3, r7, r1
 8001dd8:	2280      	movs	r2, #128	; 0x80
 8001dda:	03d2      	lsls	r2, r2, #15
 8001ddc:	635a      	str	r2, [r3, #52]	; 0x34
  if (HAL_RCC_OscConfig(&RCC_OscInitStruct) != HAL_OK)
 8001dde:	187b      	adds	r3, r7, r1
 8001de0:	0018      	movs	r0, r3
 8001de2:	f001 f999 	bl	8003118 <HAL_RCC_OscConfig>
 8001de6:	0003      	movs	r3, r0
 8001de8:	1e5a      	subs	r2, r3, #1
 8001dea:	4193      	sbcs	r3, r2
 8001dec:	b2db      	uxtb	r3, r3
 8001dee:	2b00      	cmp	r3, #0
 8001df0:	d001      	beq.n	8001df6 <_Z18SystemClock_Configv+0x7e>
  {
    Error_Handler();
 8001df2:	f000 fad7 	bl	80023a4 <Error_Handler>
  }
  /** Initializes the CPU, AHB and APB buses clocks
  */
  RCC_ClkInitStruct.ClockType = RCC_CLOCKTYPE_HCLK|RCC_CLOCKTYPE_SYSCLK
 8001df6:	1d3b      	adds	r3, r7, #4
 8001df8:	220f      	movs	r2, #15
 8001dfa:	601a      	str	r2, [r3, #0]
                              |RCC_CLOCKTYPE_PCLK1|RCC_CLOCKTYPE_PCLK2;
  RCC_ClkInitStruct.SYSCLKSource = RCC_SYSCLKSOURCE_PLLCLK;
 8001dfc:	1d3b      	adds	r3, r7, #4
 8001dfe:	2203      	movs	r2, #3
 8001e00:	605a      	str	r2, [r3, #4]
  RCC_ClkInitStruct.AHBCLKDivider = RCC_SYSCLK_DIV1;
 8001e02:	1d3b      	adds	r3, r7, #4
 8001e04:	2200      	movs	r2, #0
 8001e06:	609a      	str	r2, [r3, #8]
  RCC_ClkInitStruct.APB1CLKDivider = RCC_HCLK_DIV1;
 8001e08:	1d3b      	adds	r3, r7, #4
 8001e0a:	2200      	movs	r2, #0
 8001e0c:	60da      	str	r2, [r3, #12]
  RCC_ClkInitStruct.APB2CLKDivider = RCC_HCLK_DIV1;
 8001e0e:	1d3b      	adds	r3, r7, #4
 8001e10:	2200      	movs	r2, #0
 8001e12:	611a      	str	r2, [r3, #16]

  if (HAL_RCC_ClockConfig(&RCC_ClkInitStruct, FLASH_LATENCY_1) != HAL_OK)
 8001e14:	1d3b      	adds	r3, r7, #4
 8001e16:	2101      	movs	r1, #1
 8001e18:	0018      	movs	r0, r3
 8001e1a:	f001 fc07 	bl	800362c <HAL_RCC_ClockConfig>
 8001e1e:	0003      	movs	r3, r0
 8001e20:	1e5a      	subs	r2, r3, #1
 8001e22:	4193      	sbcs	r3, r2
 8001e24:	b2db      	uxtb	r3, r3
 8001e26:	2b00      	cmp	r3, #0
 8001e28:	d001      	beq.n	8001e2e <_Z18SystemClock_Configv+0xb6>
  {
    Error_Handler();
 8001e2a:	f000 fabb 	bl	80023a4 <Error_Handler>
  }
}
 8001e2e:	46c0      	nop			; (mov r8, r8)
 8001e30:	46bd      	mov	sp, r7
 8001e32:	b015      	add	sp, #84	; 0x54
 8001e34:	bd90      	pop	{r4, r7, pc}
 8001e36:	46c0      	nop			; (mov r8, r8)
 8001e38:	40007000 	.word	0x40007000
 8001e3c:	ffffe7ff 	.word	0xffffe7ff

08001e40 <_ZL12MX_I2S2_Initv>:
  * @brief I2S2 Initialization Function
  * @param None
  * @retval None
  */
static void MX_I2S2_Init(void)
{
 8001e40:	b580      	push	{r7, lr}
 8001e42:	af00      	add	r7, sp, #0
  /* USER CODE END I2S2_Init 0 */

  /* USER CODE BEGIN I2S2_Init 1 */

  /* USER CODE END I2S2_Init 1 */
  hi2s2.Instance = SPI2;
 8001e44:	4b12      	ldr	r3, [pc, #72]	; (8001e90 <_ZL12MX_I2S2_Initv+0x50>)
 8001e46:	4a13      	ldr	r2, [pc, #76]	; (8001e94 <_ZL12MX_I2S2_Initv+0x54>)
 8001e48:	601a      	str	r2, [r3, #0]
  hi2s2.Init.Mode = I2S_MODE_MASTER_TX;
 8001e4a:	4b11      	ldr	r3, [pc, #68]	; (8001e90 <_ZL12MX_I2S2_Initv+0x50>)
 8001e4c:	2280      	movs	r2, #128	; 0x80
 8001e4e:	0092      	lsls	r2, r2, #2
 8001e50:	605a      	str	r2, [r3, #4]
  hi2s2.Init.Standard = I2S_STANDARD_PHILIPS;
 8001e52:	4b0f      	ldr	r3, [pc, #60]	; (8001e90 <_ZL12MX_I2S2_Initv+0x50>)
 8001e54:	2200      	movs	r2, #0
 8001e56:	609a      	str	r2, [r3, #8]
  hi2s2.Init.DataFormat = I2S_DATAFORMAT_16B;
 8001e58:	4b0d      	ldr	r3, [pc, #52]	; (8001e90 <_ZL12MX_I2S2_Initv+0x50>)
 8001e5a:	2200      	movs	r2, #0
 8001e5c:	60da      	str	r2, [r3, #12]
  hi2s2.Init.MCLKOutput = I2S_MCLKOUTPUT_DISABLE;
 8001e5e:	4b0c      	ldr	r3, [pc, #48]	; (8001e90 <_ZL12MX_I2S2_Initv+0x50>)
 8001e60:	2200      	movs	r2, #0
 8001e62:	611a      	str	r2, [r3, #16]
  hi2s2.Init.AudioFreq = I2S_AUDIOFREQ_44K;
 8001e64:	4b0a      	ldr	r3, [pc, #40]	; (8001e90 <_ZL12MX_I2S2_Initv+0x50>)
 8001e66:	4a0c      	ldr	r2, [pc, #48]	; (8001e98 <_ZL12MX_I2S2_Initv+0x58>)
 8001e68:	615a      	str	r2, [r3, #20]
  hi2s2.Init.CPOL = I2S_CPOL_HIGH;
 8001e6a:	4b09      	ldr	r3, [pc, #36]	; (8001e90 <_ZL12MX_I2S2_Initv+0x50>)
 8001e6c:	2208      	movs	r2, #8
 8001e6e:	619a      	str	r2, [r3, #24]
  if (HAL_I2S_Init(&hi2s2) != HAL_OK)
 8001e70:	4b07      	ldr	r3, [pc, #28]	; (8001e90 <_ZL12MX_I2S2_Initv+0x50>)
 8001e72:	0018      	movs	r0, r3
 8001e74:	f001 f890 	bl	8002f98 <HAL_I2S_Init>
 8001e78:	0003      	movs	r3, r0
 8001e7a:	1e5a      	subs	r2, r3, #1
 8001e7c:	4193      	sbcs	r3, r2
 8001e7e:	b2db      	uxtb	r3, r3
 8001e80:	2b00      	cmp	r3, #0
 8001e82:	d001      	beq.n	8001e88 <_ZL12MX_I2S2_Initv+0x48>
  {
    Error_Handler();
 8001e84:	f000 fa8e 	bl	80023a4 <Error_Handler>
  }
  /* USER CODE BEGIN I2S2_Init 2 */

  /* USER CODE END I2S2_Init 2 */

}
 8001e88:	46c0      	nop			; (mov r8, r8)
 8001e8a:	46bd      	mov	sp, r7
 8001e8c:	bd80      	pop	{r7, pc}
 8001e8e:	46c0      	nop			; (mov r8, r8)
 8001e90:	2000010c 	.word	0x2000010c
 8001e94:	40003800 	.word	0x40003800
 8001e98:	0000ac44 	.word	0x0000ac44

08001e9c <_ZL12MX_SPI1_Initv>:
  * @brief SPI1 Initialization Function
  * @param None
  * @retval None
  */
static void MX_SPI1_Init(void)
{
 8001e9c:	b580      	push	{r7, lr}
 8001e9e:	af00      	add	r7, sp, #0

  /* USER CODE BEGIN SPI1_Init 1 */

  /* USER CODE END SPI1_Init 1 */
  /* SPI1 parameter configuration*/
  hspi1.Instance = SPI1;
 8001ea0:	4b1a      	ldr	r3, [pc, #104]	; (8001f0c <_ZL12MX_SPI1_Initv+0x70>)
 8001ea2:	4a1b      	ldr	r2, [pc, #108]	; (8001f10 <_ZL12MX_SPI1_Initv+0x74>)
 8001ea4:	601a      	str	r2, [r3, #0]
  hspi1.Init.Mode = SPI_MODE_MASTER;
 8001ea6:	4b19      	ldr	r3, [pc, #100]	; (8001f0c <_ZL12MX_SPI1_Initv+0x70>)
 8001ea8:	2282      	movs	r2, #130	; 0x82
 8001eaa:	0052      	lsls	r2, r2, #1
 8001eac:	605a      	str	r2, [r3, #4]
  hspi1.Init.Direction = SPI_DIRECTION_2LINES;
 8001eae:	4b17      	ldr	r3, [pc, #92]	; (8001f0c <_ZL12MX_SPI1_Initv+0x70>)
 8001eb0:	2200      	movs	r2, #0
 8001eb2:	609a      	str	r2, [r3, #8]
  hspi1.Init.DataSize = SPI_DATASIZE_8BIT;
 8001eb4:	4b15      	ldr	r3, [pc, #84]	; (8001f0c <_ZL12MX_SPI1_Initv+0x70>)
 8001eb6:	2200      	movs	r2, #0
 8001eb8:	60da      	str	r2, [r3, #12]
  hspi1.Init.CLKPolarity = SPI_POLARITY_LOW;
 8001eba:	4b14      	ldr	r3, [pc, #80]	; (8001f0c <_ZL12MX_SPI1_Initv+0x70>)
 8001ebc:	2200      	movs	r2, #0
 8001ebe:	611a      	str	r2, [r3, #16]
  hspi1.Init.CLKPhase = SPI_PHASE_1EDGE;
 8001ec0:	4b12      	ldr	r3, [pc, #72]	; (8001f0c <_ZL12MX_SPI1_Initv+0x70>)
 8001ec2:	2200      	movs	r2, #0
 8001ec4:	615a      	str	r2, [r3, #20]
  hspi1.Init.NSS = SPI_NSS_SOFT;
 8001ec6:	4b11      	ldr	r3, [pc, #68]	; (8001f0c <_ZL12MX_SPI1_Initv+0x70>)
 8001ec8:	2280      	movs	r2, #128	; 0x80
 8001eca:	0092      	lsls	r2, r2, #2
 8001ecc:	619a      	str	r2, [r3, #24]
  hspi1.Init.BaudRatePrescaler = SPI_BAUDRATEPRESCALER_4;
 8001ece:	4b0f      	ldr	r3, [pc, #60]	; (8001f0c <_ZL12MX_SPI1_Initv+0x70>)
 8001ed0:	2208      	movs	r2, #8
 8001ed2:	61da      	str	r2, [r3, #28]
  hspi1.Init.FirstBit = SPI_FIRSTBIT_MSB;
 8001ed4:	4b0d      	ldr	r3, [pc, #52]	; (8001f0c <_ZL12MX_SPI1_Initv+0x70>)
 8001ed6:	2200      	movs	r2, #0
 8001ed8:	621a      	str	r2, [r3, #32]
  hspi1.Init.TIMode = SPI_TIMODE_DISABLE;
 8001eda:	4b0c      	ldr	r3, [pc, #48]	; (8001f0c <_ZL12MX_SPI1_Initv+0x70>)
 8001edc:	2200      	movs	r2, #0
 8001ede:	625a      	str	r2, [r3, #36]	; 0x24
  hspi1.Init.CRCCalculation = SPI_CRCCALCULATION_DISABLE;
 8001ee0:	4b0a      	ldr	r3, [pc, #40]	; (8001f0c <_ZL12MX_SPI1_Initv+0x70>)
 8001ee2:	2200      	movs	r2, #0
 8001ee4:	629a      	str	r2, [r3, #40]	; 0x28
  hspi1.Init.CRCPolynomial = 7;
 8001ee6:	4b09      	ldr	r3, [pc, #36]	; (8001f0c <_ZL12MX_SPI1_Initv+0x70>)
 8001ee8:	2207      	movs	r2, #7
 8001eea:	62da      	str	r2, [r3, #44]	; 0x2c
  if (HAL_SPI_Init(&hspi1) != HAL_OK)
 8001eec:	4b07      	ldr	r3, [pc, #28]	; (8001f0c <_ZL12MX_SPI1_Initv+0x70>)
 8001eee:	0018      	movs	r0, r3
 8001ef0:	f001 fd22 	bl	8003938 <HAL_SPI_Init>
 8001ef4:	0003      	movs	r3, r0
 8001ef6:	1e5a      	subs	r2, r3, #1
 8001ef8:	4193      	sbcs	r3, r2
 8001efa:	b2db      	uxtb	r3, r3
 8001efc:	2b00      	cmp	r3, #0
 8001efe:	d001      	beq.n	8001f04 <_ZL12MX_SPI1_Initv+0x68>
  {
    Error_Handler();
 8001f00:	f000 fa50 	bl	80023a4 <Error_Handler>
  }
  /* USER CODE BEGIN SPI1_Init 2 */

  /* USER CODE END SPI1_Init 2 */

}
 8001f04:	46c0      	nop			; (mov r8, r8)
 8001f06:	46bd      	mov	sp, r7
 8001f08:	bd80      	pop	{r7, pc}
 8001f0a:	46c0      	nop			; (mov r8, r8)
 8001f0c:	20000190 	.word	0x20000190
 8001f10:	40013000 	.word	0x40013000

08001f14 <_ZL12MX_TIM2_Initv>:
  * @brief TIM2 Initialization Function
  * @param None
  * @retval None
  */
static void MX_TIM2_Init(void)
{
 8001f14:	b580      	push	{r7, lr}
 8001f16:	b08a      	sub	sp, #40	; 0x28
 8001f18:	af00      	add	r7, sp, #0

  /* USER CODE BEGIN TIM2_Init 0 */

  /* USER CODE END TIM2_Init 0 */

  TIM_ClockConfigTypeDef sClockSourceConfig = {0};
 8001f1a:	2318      	movs	r3, #24
 8001f1c:	18fb      	adds	r3, r7, r3
 8001f1e:	0018      	movs	r0, r3
 8001f20:	2310      	movs	r3, #16
 8001f22:	001a      	movs	r2, r3
 8001f24:	2100      	movs	r1, #0
 8001f26:	f003 f95c 	bl	80051e2 <memset>
  TIM_MasterConfigTypeDef sMasterConfig = {0};
 8001f2a:	2310      	movs	r3, #16
 8001f2c:	18fb      	adds	r3, r7, r3
 8001f2e:	0018      	movs	r0, r3
 8001f30:	2308      	movs	r3, #8
 8001f32:	001a      	movs	r2, r3
 8001f34:	2100      	movs	r1, #0
 8001f36:	f003 f954 	bl	80051e2 <memset>
  TIM_OC_InitTypeDef sConfigOC = {0};
 8001f3a:	003b      	movs	r3, r7
 8001f3c:	0018      	movs	r0, r3
 8001f3e:	2310      	movs	r3, #16
 8001f40:	001a      	movs	r2, r3
 8001f42:	2100      	movs	r1, #0
 8001f44:	f003 f94d 	bl	80051e2 <memset>

  /* USER CODE BEGIN TIM2_Init 1 */

  /* USER CODE END TIM2_Init 1 */
  htim2.Instance = TIM2;
 8001f48:	4b48      	ldr	r3, [pc, #288]	; (800206c <_ZL12MX_TIM2_Initv+0x158>)
 8001f4a:	2280      	movs	r2, #128	; 0x80
 8001f4c:	05d2      	lsls	r2, r2, #23
 8001f4e:	601a      	str	r2, [r3, #0]
  htim2.Init.Prescaler = 0;
 8001f50:	4b46      	ldr	r3, [pc, #280]	; (800206c <_ZL12MX_TIM2_Initv+0x158>)
 8001f52:	2200      	movs	r2, #0
 8001f54:	605a      	str	r2, [r3, #4]
  htim2.Init.CounterMode = TIM_COUNTERMODE_UP;
 8001f56:	4b45      	ldr	r3, [pc, #276]	; (800206c <_ZL12MX_TIM2_Initv+0x158>)
 8001f58:	2200      	movs	r2, #0
 8001f5a:	609a      	str	r2, [r3, #8]
  htim2.Init.Period = 39;
 8001f5c:	4b43      	ldr	r3, [pc, #268]	; (800206c <_ZL12MX_TIM2_Initv+0x158>)
 8001f5e:	2227      	movs	r2, #39	; 0x27
 8001f60:	60da      	str	r2, [r3, #12]
  htim2.Init.ClockDivision = TIM_CLOCKDIVISION_DIV1;
 8001f62:	4b42      	ldr	r3, [pc, #264]	; (800206c <_ZL12MX_TIM2_Initv+0x158>)
 8001f64:	2200      	movs	r2, #0
 8001f66:	611a      	str	r2, [r3, #16]
  htim2.Init.AutoReloadPreload = TIM_AUTORELOAD_PRELOAD_DISABLE;
 8001f68:	4b40      	ldr	r3, [pc, #256]	; (800206c <_ZL12MX_TIM2_Initv+0x158>)
 8001f6a:	2200      	movs	r2, #0
 8001f6c:	615a      	str	r2, [r3, #20]
  if (HAL_TIM_Base_Init(&htim2) != HAL_OK)
 8001f6e:	4b3f      	ldr	r3, [pc, #252]	; (800206c <_ZL12MX_TIM2_Initv+0x158>)
 8001f70:	0018      	movs	r0, r3
 8001f72:	f002 f834 	bl	8003fde <HAL_TIM_Base_Init>
 8001f76:	0003      	movs	r3, r0
 8001f78:	1e5a      	subs	r2, r3, #1
 8001f7a:	4193      	sbcs	r3, r2
 8001f7c:	b2db      	uxtb	r3, r3
 8001f7e:	2b00      	cmp	r3, #0
 8001f80:	d001      	beq.n	8001f86 <_ZL12MX_TIM2_Initv+0x72>
  {
    Error_Handler();
 8001f82:	f000 fa0f 	bl	80023a4 <Error_Handler>
  }
  sClockSourceConfig.ClockSource = TIM_CLOCKSOURCE_INTERNAL;
 8001f86:	2118      	movs	r1, #24
 8001f88:	187b      	adds	r3, r7, r1
 8001f8a:	2280      	movs	r2, #128	; 0x80
 8001f8c:	0152      	lsls	r2, r2, #5
 8001f8e:	601a      	str	r2, [r3, #0]
  if (HAL_TIM_ConfigClockSource(&htim2, &sClockSourceConfig) != HAL_OK)
 8001f90:	187a      	adds	r2, r7, r1
 8001f92:	4b36      	ldr	r3, [pc, #216]	; (800206c <_ZL12MX_TIM2_Initv+0x158>)
 8001f94:	0011      	movs	r1, r2
 8001f96:	0018      	movs	r0, r3
 8001f98:	f002 f9e4 	bl	8004364 <HAL_TIM_ConfigClockSource>
 8001f9c:	0003      	movs	r3, r0
 8001f9e:	1e5a      	subs	r2, r3, #1
 8001fa0:	4193      	sbcs	r3, r2
 8001fa2:	b2db      	uxtb	r3, r3
 8001fa4:	2b00      	cmp	r3, #0
 8001fa6:	d001      	beq.n	8001fac <_ZL12MX_TIM2_Initv+0x98>
  {
    Error_Handler();
 8001fa8:	f000 f9fc 	bl	80023a4 <Error_Handler>
  }
  if (HAL_TIM_PWM_Init(&htim2) != HAL_OK)
 8001fac:	4b2f      	ldr	r3, [pc, #188]	; (800206c <_ZL12MX_TIM2_Initv+0x158>)
 8001fae:	0018      	movs	r0, r3
 8001fb0:	f002 f91f 	bl	80041f2 <HAL_TIM_PWM_Init>
 8001fb4:	0003      	movs	r3, r0
 8001fb6:	1e5a      	subs	r2, r3, #1
 8001fb8:	4193      	sbcs	r3, r2
 8001fba:	b2db      	uxtb	r3, r3
 8001fbc:	2b00      	cmp	r3, #0
 8001fbe:	d001      	beq.n	8001fc4 <_ZL12MX_TIM2_Initv+0xb0>
  {
    Error_Handler();
 8001fc0:	f000 f9f0 	bl	80023a4 <Error_Handler>
  }
  sMasterConfig.MasterOutputTrigger = TIM_TRGO_RESET;
 8001fc4:	2110      	movs	r1, #16
 8001fc6:	187b      	adds	r3, r7, r1
 8001fc8:	2200      	movs	r2, #0
 8001fca:	601a      	str	r2, [r3, #0]
  sMasterConfig.MasterSlaveMode = TIM_MASTERSLAVEMODE_DISABLE;
 8001fcc:	187b      	adds	r3, r7, r1
 8001fce:	2200      	movs	r2, #0
 8001fd0:	605a      	str	r2, [r3, #4]
  if (HAL_TIMEx_MasterConfigSynchronization(&htim2, &sMasterConfig) != HAL_OK)
 8001fd2:	187a      	adds	r2, r7, r1
 8001fd4:	4b25      	ldr	r3, [pc, #148]	; (800206c <_ZL12MX_TIM2_Initv+0x158>)
 8001fd6:	0011      	movs	r1, r2
 8001fd8:	0018      	movs	r0, r3
 8001fda:	f002 faef 	bl	80045bc <HAL_TIMEx_MasterConfigSynchronization>
 8001fde:	0003      	movs	r3, r0
 8001fe0:	1e5a      	subs	r2, r3, #1
 8001fe2:	4193      	sbcs	r3, r2
 8001fe4:	b2db      	uxtb	r3, r3
 8001fe6:	2b00      	cmp	r3, #0
 8001fe8:	d001      	beq.n	8001fee <_ZL12MX_TIM2_Initv+0xda>
  {
    Error_Handler();
 8001fea:	f000 f9db 	bl	80023a4 <Error_Handler>
  }
  sConfigOC.OCMode = TIM_OCMODE_PWM1;
 8001fee:	003b      	movs	r3, r7
 8001ff0:	2260      	movs	r2, #96	; 0x60
 8001ff2:	601a      	str	r2, [r3, #0]
  sConfigOC.Pulse = 0;
 8001ff4:	003b      	movs	r3, r7
 8001ff6:	2200      	movs	r2, #0
 8001ff8:	605a      	str	r2, [r3, #4]
  sConfigOC.OCPolarity = TIM_OCPOLARITY_HIGH;
 8001ffa:	003b      	movs	r3, r7
 8001ffc:	2200      	movs	r2, #0
 8001ffe:	609a      	str	r2, [r3, #8]
  sConfigOC.OCFastMode = TIM_OCFAST_ENABLE;
 8002000:	003b      	movs	r3, r7
 8002002:	2204      	movs	r2, #4
 8002004:	60da      	str	r2, [r3, #12]
  if (HAL_TIM_PWM_ConfigChannel(&htim2, &sConfigOC, TIM_CHANNEL_1) != HAL_OK)
 8002006:	0039      	movs	r1, r7
 8002008:	4b18      	ldr	r3, [pc, #96]	; (800206c <_ZL12MX_TIM2_Initv+0x158>)
 800200a:	2200      	movs	r2, #0
 800200c:	0018      	movs	r0, r3
 800200e:	f002 f919 	bl	8004244 <HAL_TIM_PWM_ConfigChannel>
 8002012:	0003      	movs	r3, r0
 8002014:	1e5a      	subs	r2, r3, #1
 8002016:	4193      	sbcs	r3, r2
 8002018:	b2db      	uxtb	r3, r3
 800201a:	2b00      	cmp	r3, #0
 800201c:	d001      	beq.n	8002022 <_ZL12MX_TIM2_Initv+0x10e>
  {
    Error_Handler();
 800201e:	f000 f9c1 	bl	80023a4 <Error_Handler>
  }
  if (HAL_TIM_PWM_ConfigChannel(&htim2, &sConfigOC, TIM_CHANNEL_3) != HAL_OK)
 8002022:	0039      	movs	r1, r7
 8002024:	4b11      	ldr	r3, [pc, #68]	; (800206c <_ZL12MX_TIM2_Initv+0x158>)
 8002026:	2208      	movs	r2, #8
 8002028:	0018      	movs	r0, r3
 800202a:	f002 f90b 	bl	8004244 <HAL_TIM_PWM_ConfigChannel>
 800202e:	0003      	movs	r3, r0
 8002030:	1e5a      	subs	r2, r3, #1
 8002032:	4193      	sbcs	r3, r2
 8002034:	b2db      	uxtb	r3, r3
 8002036:	2b00      	cmp	r3, #0
 8002038:	d001      	beq.n	800203e <_ZL12MX_TIM2_Initv+0x12a>
  {
    Error_Handler();
 800203a:	f000 f9b3 	bl	80023a4 <Error_Handler>
  }
  if (HAL_TIM_PWM_ConfigChannel(&htim2, &sConfigOC, TIM_CHANNEL_4) != HAL_OK)
 800203e:	0039      	movs	r1, r7
 8002040:	4b0a      	ldr	r3, [pc, #40]	; (800206c <_ZL12MX_TIM2_Initv+0x158>)
 8002042:	220c      	movs	r2, #12
 8002044:	0018      	movs	r0, r3
 8002046:	f002 f8fd 	bl	8004244 <HAL_TIM_PWM_ConfigChannel>
 800204a:	0003      	movs	r3, r0
 800204c:	1e5a      	subs	r2, r3, #1
 800204e:	4193      	sbcs	r3, r2
 8002050:	b2db      	uxtb	r3, r3
 8002052:	2b00      	cmp	r3, #0
 8002054:	d001      	beq.n	800205a <_ZL12MX_TIM2_Initv+0x146>
  {
    Error_Handler();
 8002056:	f000 f9a5 	bl	80023a4 <Error_Handler>
  }
  /* USER CODE BEGIN TIM2_Init 2 */

  /* USER CODE END TIM2_Init 2 */
  HAL_TIM_MspPostInit(&htim2);
 800205a:	4b04      	ldr	r3, [pc, #16]	; (800206c <_ZL12MX_TIM2_Initv+0x158>)
 800205c:	0018      	movs	r0, r3
 800205e:	f000 fc6d 	bl	800293c <HAL_TIM_MspPostInit>

}
 8002062:	46c0      	nop			; (mov r8, r8)
 8002064:	46bd      	mov	sp, r7
 8002066:	b00a      	add	sp, #40	; 0x28
 8002068:	bd80      	pop	{r7, pc}
 800206a:	46c0      	nop			; (mov r8, r8)
 800206c:	20000278 	.word	0x20000278

08002070 <_ZL11MX_DMA_Initv>:

/**
  * Enable DMA controller clock
  */
static void MX_DMA_Init(void)
{
 8002070:	b580      	push	{r7, lr}
 8002072:	b082      	sub	sp, #8
 8002074:	af00      	add	r7, sp, #0

  /* DMA controller clock enable */
  __HAL_RCC_DMA1_CLK_ENABLE();
 8002076:	4b14      	ldr	r3, [pc, #80]	; (80020c8 <_ZL11MX_DMA_Initv+0x58>)
 8002078:	6b1a      	ldr	r2, [r3, #48]	; 0x30
 800207a:	4b13      	ldr	r3, [pc, #76]	; (80020c8 <_ZL11MX_DMA_Initv+0x58>)
 800207c:	2101      	movs	r1, #1
 800207e:	430a      	orrs	r2, r1
 8002080:	631a      	str	r2, [r3, #48]	; 0x30
 8002082:	4b11      	ldr	r3, [pc, #68]	; (80020c8 <_ZL11MX_DMA_Initv+0x58>)
 8002084:	6b1b      	ldr	r3, [r3, #48]	; 0x30
 8002086:	2201      	movs	r2, #1
 8002088:	4013      	ands	r3, r2
 800208a:	607b      	str	r3, [r7, #4]
 800208c:	687b      	ldr	r3, [r7, #4]

  /* DMA interrupt init */
  /* DMA1_Channel1_IRQn interrupt configuration */
  HAL_NVIC_SetPriority(DMA1_Channel1_IRQn, 0, 0);
 800208e:	2200      	movs	r2, #0
 8002090:	2100      	movs	r1, #0
 8002092:	2009      	movs	r0, #9
 8002094:	f000 fd8a 	bl	8002bac <HAL_NVIC_SetPriority>
  HAL_NVIC_EnableIRQ(DMA1_Channel1_IRQn);
 8002098:	2009      	movs	r0, #9
 800209a:	f000 fdb1 	bl	8002c00 <HAL_NVIC_EnableIRQ>
  /* DMA1_Channel2_3_IRQn interrupt configuration */
  HAL_NVIC_SetPriority(DMA1_Channel2_3_IRQn, 0, 0);
 800209e:	2200      	movs	r2, #0
 80020a0:	2100      	movs	r1, #0
 80020a2:	200a      	movs	r0, #10
 80020a4:	f000 fd82 	bl	8002bac <HAL_NVIC_SetPriority>
  HAL_NVIC_EnableIRQ(DMA1_Channel2_3_IRQn);
 80020a8:	200a      	movs	r0, #10
 80020aa:	f000 fda9 	bl	8002c00 <HAL_NVIC_EnableIRQ>
  /* DMA1_Channel4_5_6_7_IRQn interrupt configuration */
  HAL_NVIC_SetPriority(DMA1_Channel4_5_6_7_IRQn, 0, 0);
 80020ae:	2200      	movs	r2, #0
 80020b0:	2100      	movs	r1, #0
 80020b2:	200b      	movs	r0, #11
 80020b4:	f000 fd7a 	bl	8002bac <HAL_NVIC_SetPriority>
  HAL_NVIC_EnableIRQ(DMA1_Channel4_5_6_7_IRQn);
 80020b8:	200b      	movs	r0, #11
 80020ba:	f000 fda1 	bl	8002c00 <HAL_NVIC_EnableIRQ>

}
 80020be:	46c0      	nop			; (mov r8, r8)
 80020c0:	46bd      	mov	sp, r7
 80020c2:	b002      	add	sp, #8
 80020c4:	bd80      	pop	{r7, pc}
 80020c6:	46c0      	nop			; (mov r8, r8)
 80020c8:	40021000 	.word	0x40021000

080020cc <_ZL12MX_GPIO_Initv>:
  * @brief GPIO Initialization Function
  * @param None
  * @retval None
  */
static void MX_GPIO_Init(void)
{
 80020cc:	b590      	push	{r4, r7, lr}
 80020ce:	b08d      	sub	sp, #52	; 0x34
 80020d0:	af00      	add	r7, sp, #0
  GPIO_InitTypeDef GPIO_InitStruct = {0};
 80020d2:	241c      	movs	r4, #28
 80020d4:	193b      	adds	r3, r7, r4
 80020d6:	0018      	movs	r0, r3
 80020d8:	2314      	movs	r3, #20
 80020da:	001a      	movs	r2, r3
 80020dc:	2100      	movs	r1, #0
 80020de:	f003 f880 	bl	80051e2 <memset>

  /* GPIO Ports Clock Enable */
  __HAL_RCC_GPIOE_CLK_ENABLE();
 80020e2:	4ba7      	ldr	r3, [pc, #668]	; (8002380 <_ZL12MX_GPIO_Initv+0x2b4>)
 80020e4:	6ada      	ldr	r2, [r3, #44]	; 0x2c
 80020e6:	4ba6      	ldr	r3, [pc, #664]	; (8002380 <_ZL12MX_GPIO_Initv+0x2b4>)
 80020e8:	2110      	movs	r1, #16
 80020ea:	430a      	orrs	r2, r1
 80020ec:	62da      	str	r2, [r3, #44]	; 0x2c
 80020ee:	4ba4      	ldr	r3, [pc, #656]	; (8002380 <_ZL12MX_GPIO_Initv+0x2b4>)
 80020f0:	6adb      	ldr	r3, [r3, #44]	; 0x2c
 80020f2:	2210      	movs	r2, #16
 80020f4:	4013      	ands	r3, r2
 80020f6:	61bb      	str	r3, [r7, #24]
 80020f8:	69bb      	ldr	r3, [r7, #24]
  __HAL_RCC_GPIOC_CLK_ENABLE();
 80020fa:	4ba1      	ldr	r3, [pc, #644]	; (8002380 <_ZL12MX_GPIO_Initv+0x2b4>)
 80020fc:	6ada      	ldr	r2, [r3, #44]	; 0x2c
 80020fe:	4ba0      	ldr	r3, [pc, #640]	; (8002380 <_ZL12MX_GPIO_Initv+0x2b4>)
 8002100:	2104      	movs	r1, #4
 8002102:	430a      	orrs	r2, r1
 8002104:	62da      	str	r2, [r3, #44]	; 0x2c
 8002106:	4b9e      	ldr	r3, [pc, #632]	; (8002380 <_ZL12MX_GPIO_Initv+0x2b4>)
 8002108:	6adb      	ldr	r3, [r3, #44]	; 0x2c
 800210a:	2204      	movs	r2, #4
 800210c:	4013      	ands	r3, r2
 800210e:	617b      	str	r3, [r7, #20]
 8002110:	697b      	ldr	r3, [r7, #20]
  __HAL_RCC_GPIOH_CLK_ENABLE();
 8002112:	4b9b      	ldr	r3, [pc, #620]	; (8002380 <_ZL12MX_GPIO_Initv+0x2b4>)
 8002114:	6ada      	ldr	r2, [r3, #44]	; 0x2c
 8002116:	4b9a      	ldr	r3, [pc, #616]	; (8002380 <_ZL12MX_GPIO_Initv+0x2b4>)
 8002118:	2180      	movs	r1, #128	; 0x80
 800211a:	430a      	orrs	r2, r1
 800211c:	62da      	str	r2, [r3, #44]	; 0x2c
 800211e:	4b98      	ldr	r3, [pc, #608]	; (8002380 <_ZL12MX_GPIO_Initv+0x2b4>)
 8002120:	6adb      	ldr	r3, [r3, #44]	; 0x2c
 8002122:	2280      	movs	r2, #128	; 0x80
 8002124:	4013      	ands	r3, r2
 8002126:	613b      	str	r3, [r7, #16]
 8002128:	693b      	ldr	r3, [r7, #16]
  __HAL_RCC_GPIOA_CLK_ENABLE();
 800212a:	4b95      	ldr	r3, [pc, #596]	; (8002380 <_ZL12MX_GPIO_Initv+0x2b4>)
 800212c:	6ada      	ldr	r2, [r3, #44]	; 0x2c
 800212e:	4b94      	ldr	r3, [pc, #592]	; (8002380 <_ZL12MX_GPIO_Initv+0x2b4>)
 8002130:	2101      	movs	r1, #1
 8002132:	430a      	orrs	r2, r1
 8002134:	62da      	str	r2, [r3, #44]	; 0x2c
 8002136:	4b92      	ldr	r3, [pc, #584]	; (8002380 <_ZL12MX_GPIO_Initv+0x2b4>)
 8002138:	6adb      	ldr	r3, [r3, #44]	; 0x2c
 800213a:	2201      	movs	r2, #1
 800213c:	4013      	ands	r3, r2
 800213e:	60fb      	str	r3, [r7, #12]
 8002140:	68fb      	ldr	r3, [r7, #12]
  __HAL_RCC_GPIOB_CLK_ENABLE();
 8002142:	4b8f      	ldr	r3, [pc, #572]	; (8002380 <_ZL12MX_GPIO_Initv+0x2b4>)
 8002144:	6ada      	ldr	r2, [r3, #44]	; 0x2c
 8002146:	4b8e      	ldr	r3, [pc, #568]	; (8002380 <_ZL12MX_GPIO_Initv+0x2b4>)
 8002148:	2102      	movs	r1, #2
 800214a:	430a      	orrs	r2, r1
 800214c:	62da      	str	r2, [r3, #44]	; 0x2c
 800214e:	4b8c      	ldr	r3, [pc, #560]	; (8002380 <_ZL12MX_GPIO_Initv+0x2b4>)
 8002150:	6adb      	ldr	r3, [r3, #44]	; 0x2c
 8002152:	2202      	movs	r2, #2
 8002154:	4013      	ands	r3, r2
 8002156:	60bb      	str	r3, [r7, #8]
 8002158:	68bb      	ldr	r3, [r7, #8]
  __HAL_RCC_GPIOD_CLK_ENABLE();
 800215a:	4b89      	ldr	r3, [pc, #548]	; (8002380 <_ZL12MX_GPIO_Initv+0x2b4>)
 800215c:	6ada      	ldr	r2, [r3, #44]	; 0x2c
 800215e:	4b88      	ldr	r3, [pc, #544]	; (8002380 <_ZL12MX_GPIO_Initv+0x2b4>)
 8002160:	2108      	movs	r1, #8
 8002162:	430a      	orrs	r2, r1
 8002164:	62da      	str	r2, [r3, #44]	; 0x2c
 8002166:	4b86      	ldr	r3, [pc, #536]	; (8002380 <_ZL12MX_GPIO_Initv+0x2b4>)
 8002168:	6adb      	ldr	r3, [r3, #44]	; 0x2c
 800216a:	2208      	movs	r2, #8
 800216c:	4013      	ands	r3, r2
 800216e:	607b      	str	r3, [r7, #4]
 8002170:	687b      	ldr	r3, [r7, #4]

  /*Configure GPIO pin Output Level */
  HAL_GPIO_WritePin(BUTTON_LED_L_GPIO_Port, BUTTON_LED_L_Pin, GPIO_PIN_RESET);
 8002172:	4b84      	ldr	r3, [pc, #528]	; (8002384 <_ZL12MX_GPIO_Initv+0x2b8>)
 8002174:	2200      	movs	r2, #0
 8002176:	2120      	movs	r1, #32
 8002178:	0018      	movs	r0, r3
 800217a:	f000 ff07 	bl	8002f8c <HAL_GPIO_WritePin>

  /*Configure GPIO pin Output Level */
  HAL_GPIO_WritePin(BUTTON_LED_R_GPIO_Port, BUTTON_LED_R_Pin, GPIO_PIN_RESET);
 800217e:	2380      	movs	r3, #128	; 0x80
 8002180:	01db      	lsls	r3, r3, #7
 8002182:	4881      	ldr	r0, [pc, #516]	; (8002388 <_ZL12MX_GPIO_Initv+0x2bc>)
 8002184:	2200      	movs	r2, #0
 8002186:	0019      	movs	r1, r3
 8002188:	f000 ff00 	bl	8002f8c <HAL_GPIO_WritePin>

  /*Configure GPIO pin Output Level */
  HAL_GPIO_WritePin(TEST_LED_GPIO_Port, TEST_LED_Pin, GPIO_PIN_RESET);
 800218c:	2380      	movs	r3, #128	; 0x80
 800218e:	00db      	lsls	r3, r3, #3
 8002190:	487e      	ldr	r0, [pc, #504]	; (800238c <_ZL12MX_GPIO_Initv+0x2c0>)
 8002192:	2200      	movs	r2, #0
 8002194:	0019      	movs	r1, r3
 8002196:	f000 fef9 	bl	8002f8c <HAL_GPIO_WritePin>

  /*Configure GPIO pin Output Level */
  HAL_GPIO_WritePin(GPIOD, AUDIO_SD_N_L_Pin|AUDIO_SD_N_R_Pin, GPIO_PIN_RESET);
 800219a:	23c0      	movs	r3, #192	; 0xc0
 800219c:	011b      	lsls	r3, r3, #4
 800219e:	487c      	ldr	r0, [pc, #496]	; (8002390 <_ZL12MX_GPIO_Initv+0x2c4>)
 80021a0:	2200      	movs	r2, #0
 80021a2:	0019      	movs	r1, r3
 80021a4:	f000 fef2 	bl	8002f8c <HAL_GPIO_WritePin>

  /*Configure GPIO pin Output Level */
  HAL_GPIO_WritePin(SD_SPI1_CS_N_GPIO_Port, SD_SPI1_CS_N_Pin, GPIO_PIN_RESET);
 80021a8:	2380      	movs	r3, #128	; 0x80
 80021aa:	0219      	lsls	r1, r3, #8
 80021ac:	23a0      	movs	r3, #160	; 0xa0
 80021ae:	05db      	lsls	r3, r3, #23
 80021b0:	2200      	movs	r2, #0
 80021b2:	0018      	movs	r0, r3
 80021b4:	f000 feea 	bl	8002f8c <HAL_GPIO_WritePin>

  /*Configure GPIO pins : BUTTON_L_Pin SD_DET_A_Pin SD_DET_B_Pin */
  GPIO_InitStruct.Pin = BUTTON_L_Pin|SD_DET_A_Pin|SD_DET_B_Pin;
 80021b8:	193b      	adds	r3, r7, r4
 80021ba:	22c8      	movs	r2, #200	; 0xc8
 80021bc:	0052      	lsls	r2, r2, #1
 80021be:	601a      	str	r2, [r3, #0]
  GPIO_InitStruct.Mode = GPIO_MODE_INPUT;
 80021c0:	193b      	adds	r3, r7, r4
 80021c2:	2200      	movs	r2, #0
 80021c4:	605a      	str	r2, [r3, #4]
  GPIO_InitStruct.Pull = GPIO_NOPULL;
 80021c6:	193b      	adds	r3, r7, r4
 80021c8:	2200      	movs	r2, #0
 80021ca:	609a      	str	r2, [r3, #8]
  HAL_GPIO_Init(GPIOE, &GPIO_InitStruct);
 80021cc:	193b      	adds	r3, r7, r4
 80021ce:	4a6d      	ldr	r2, [pc, #436]	; (8002384 <_ZL12MX_GPIO_Initv+0x2b8>)
 80021d0:	0019      	movs	r1, r3
 80021d2:	0010      	movs	r0, r2
 80021d4:	f000 fe0a 	bl	8002dec <HAL_GPIO_Init>

  /*Configure GPIO pin : BUTTON_LED_L_Pin */
  GPIO_InitStruct.Pin = BUTTON_LED_L_Pin;
 80021d8:	193b      	adds	r3, r7, r4
 80021da:	2220      	movs	r2, #32
 80021dc:	601a      	str	r2, [r3, #0]
  GPIO_InitStruct.Mode = GPIO_MODE_OUTPUT_PP;
 80021de:	193b      	adds	r3, r7, r4
 80021e0:	2201      	movs	r2, #1
 80021e2:	605a      	str	r2, [r3, #4]
  GPIO_InitStruct.Pull = GPIO_NOPULL;
 80021e4:	193b      	adds	r3, r7, r4
 80021e6:	2200      	movs	r2, #0
 80021e8:	609a      	str	r2, [r3, #8]
  GPIO_InitStruct.Speed = GPIO_SPEED_FREQ_LOW;
 80021ea:	193b      	adds	r3, r7, r4
 80021ec:	2200      	movs	r2, #0
 80021ee:	60da      	str	r2, [r3, #12]
  HAL_GPIO_Init(BUTTON_LED_L_GPIO_Port, &GPIO_InitStruct);
 80021f0:	193b      	adds	r3, r7, r4
 80021f2:	4a64      	ldr	r2, [pc, #400]	; (8002384 <_ZL12MX_GPIO_Initv+0x2b8>)
 80021f4:	0019      	movs	r1, r3
 80021f6:	0010      	movs	r0, r2
 80021f8:	f000 fdf8 	bl	8002dec <HAL_GPIO_Init>

  /*Configure GPIO pins : BUTTON_R_Pin TOUCH_STAR_0_Pin TOUCH_STAR_1_Pin TOUCH_STAR_2_Pin
                           TOUCH_STAR_15_Pin TOUCH_STAR_16_Pin TOUCH_STAR_17_Pin */
  GPIO_InitStruct.Pin = BUTTON_R_Pin|TOUCH_STAR_0_Pin|TOUCH_STAR_1_Pin|TOUCH_STAR_2_Pin
 80021fc:	193b      	adds	r3, r7, r4
 80021fe:	4a65      	ldr	r2, [pc, #404]	; (8002394 <_ZL12MX_GPIO_Initv+0x2c8>)
 8002200:	601a      	str	r2, [r3, #0]
                          |TOUCH_STAR_15_Pin|TOUCH_STAR_16_Pin|TOUCH_STAR_17_Pin;
  GPIO_InitStruct.Mode = GPIO_MODE_INPUT;
 8002202:	193b      	adds	r3, r7, r4
 8002204:	2200      	movs	r2, #0
 8002206:	605a      	str	r2, [r3, #4]
  GPIO_InitStruct.Pull = GPIO_NOPULL;
 8002208:	193b      	adds	r3, r7, r4
 800220a:	2200      	movs	r2, #0
 800220c:	609a      	str	r2, [r3, #8]
  HAL_GPIO_Init(GPIOC, &GPIO_InitStruct);
 800220e:	193b      	adds	r3, r7, r4
 8002210:	4a5d      	ldr	r2, [pc, #372]	; (8002388 <_ZL12MX_GPIO_Initv+0x2bc>)
 8002212:	0019      	movs	r1, r3
 8002214:	0010      	movs	r0, r2
 8002216:	f000 fde9 	bl	8002dec <HAL_GPIO_Init>

  /*Configure GPIO pin : BUTTON_LED_R_Pin */
  GPIO_InitStruct.Pin = BUTTON_LED_R_Pin;
 800221a:	0021      	movs	r1, r4
 800221c:	187b      	adds	r3, r7, r1
 800221e:	2280      	movs	r2, #128	; 0x80
 8002220:	01d2      	lsls	r2, r2, #7
 8002222:	601a      	str	r2, [r3, #0]
  GPIO_InitStruct.Mode = GPIO_MODE_OUTPUT_PP;
 8002224:	000c      	movs	r4, r1
 8002226:	193b      	adds	r3, r7, r4
 8002228:	2201      	movs	r2, #1
 800222a:	605a      	str	r2, [r3, #4]
  GPIO_InitStruct.Pull = GPIO_NOPULL;
 800222c:	193b      	adds	r3, r7, r4
 800222e:	2200      	movs	r2, #0
 8002230:	609a      	str	r2, [r3, #8]
  GPIO_InitStruct.Speed = GPIO_SPEED_FREQ_LOW;
 8002232:	193b      	adds	r3, r7, r4
 8002234:	2200      	movs	r2, #0
 8002236:	60da      	str	r2, [r3, #12]
  HAL_GPIO_Init(BUTTON_LED_R_GPIO_Port, &GPIO_InitStruct);
 8002238:	193b      	adds	r3, r7, r4
 800223a:	4a53      	ldr	r2, [pc, #332]	; (8002388 <_ZL12MX_GPIO_Initv+0x2bc>)
 800223c:	0019      	movs	r1, r3
 800223e:	0010      	movs	r0, r2
 8002240:	f000 fdd4 	bl	8002dec <HAL_GPIO_Init>

  /*Configure GPIO pin : TEST_LED_Pin */
  GPIO_InitStruct.Pin = TEST_LED_Pin;
 8002244:	0021      	movs	r1, r4
 8002246:	187b      	adds	r3, r7, r1
 8002248:	2280      	movs	r2, #128	; 0x80
 800224a:	00d2      	lsls	r2, r2, #3
 800224c:	601a      	str	r2, [r3, #0]
  GPIO_InitStruct.Mode = GPIO_MODE_OUTPUT_PP;
 800224e:	000c      	movs	r4, r1
 8002250:	193b      	adds	r3, r7, r4
 8002252:	2201      	movs	r2, #1
 8002254:	605a      	str	r2, [r3, #4]
  GPIO_InitStruct.Pull = GPIO_NOPULL;
 8002256:	193b      	adds	r3, r7, r4
 8002258:	2200      	movs	r2, #0
 800225a:	609a      	str	r2, [r3, #8]
  GPIO_InitStruct.Speed = GPIO_SPEED_FREQ_LOW;
 800225c:	193b      	adds	r3, r7, r4
 800225e:	2200      	movs	r2, #0
 8002260:	60da      	str	r2, [r3, #12]
  HAL_GPIO_Init(TEST_LED_GPIO_Port, &GPIO_InitStruct);
 8002262:	193b      	adds	r3, r7, r4
 8002264:	4a49      	ldr	r2, [pc, #292]	; (800238c <_ZL12MX_GPIO_Initv+0x2c0>)
 8002266:	0019      	movs	r1, r3
 8002268:	0010      	movs	r0, r2
 800226a:	f000 fdbf 	bl	8002dec <HAL_GPIO_Init>

  /*Configure GPIO pin : TOUCH_G7_1_SAMP_Pin */
  GPIO_InitStruct.Pin = TOUCH_G7_1_SAMP_Pin;
 800226e:	193b      	adds	r3, r7, r4
 8002270:	2201      	movs	r2, #1
 8002272:	601a      	str	r2, [r3, #0]
  GPIO_InitStruct.Mode = GPIO_MODE_AF_PP;
 8002274:	193b      	adds	r3, r7, r4
 8002276:	2202      	movs	r2, #2
 8002278:	605a      	str	r2, [r3, #4]
  GPIO_InitStruct.Pull = GPIO_NOPULL;
 800227a:	193b      	adds	r3, r7, r4
 800227c:	2200      	movs	r2, #0
 800227e:	609a      	str	r2, [r3, #8]
  GPIO_InitStruct.Speed = GPIO_SPEED_FREQ_LOW;
 8002280:	193b      	adds	r3, r7, r4
 8002282:	2200      	movs	r2, #0
 8002284:	60da      	str	r2, [r3, #12]
  GPIO_InitStruct.Alternate = GPIO_AF3_TSC;
 8002286:	193b      	adds	r3, r7, r4
 8002288:	2203      	movs	r2, #3
 800228a:	611a      	str	r2, [r3, #16]
  HAL_GPIO_Init(TOUCH_G7_1_SAMP_GPIO_Port, &GPIO_InitStruct);
 800228c:	193b      	adds	r3, r7, r4
 800228e:	4a3e      	ldr	r2, [pc, #248]	; (8002388 <_ZL12MX_GPIO_Initv+0x2bc>)
 8002290:	0019      	movs	r1, r3
 8002292:	0010      	movs	r0, r2
 8002294:	f000 fdaa 	bl	8002dec <HAL_GPIO_Init>

  /*Configure GPIO pins : TOUCH_STAR_3_Pin TOUCH_STAR_4_Pin TOUCH_STAR_5_Pin TOUCH_STAR_6_Pin
                           TOUCH_STAR_7_Pin TOUCH_STAR_8_Pin TOUCH_STAR_18_Pin TOUCH_STAR_19_Pin
                           TOUCH_STAR_20_Pin */
  GPIO_InitStruct.Pin = TOUCH_STAR_3_Pin|TOUCH_STAR_4_Pin|TOUCH_STAR_5_Pin|TOUCH_STAR_6_Pin
 8002298:	193b      	adds	r3, r7, r4
 800229a:	4a3f      	ldr	r2, [pc, #252]	; (8002398 <_ZL12MX_GPIO_Initv+0x2cc>)
 800229c:	601a      	str	r2, [r3, #0]
                          |TOUCH_STAR_7_Pin|TOUCH_STAR_8_Pin|TOUCH_STAR_18_Pin|TOUCH_STAR_19_Pin
                          |TOUCH_STAR_20_Pin;
  GPIO_InitStruct.Mode = GPIO_MODE_INPUT;
 800229e:	193b      	adds	r3, r7, r4
 80022a0:	2200      	movs	r2, #0
 80022a2:	605a      	str	r2, [r3, #4]
  GPIO_InitStruct.Pull = GPIO_NOPULL;
 80022a4:	193b      	adds	r3, r7, r4
 80022a6:	2200      	movs	r2, #0
 80022a8:	609a      	str	r2, [r3, #8]
  HAL_GPIO_Init(GPIOA, &GPIO_InitStruct);
 80022aa:	193a      	adds	r2, r7, r4
 80022ac:	23a0      	movs	r3, #160	; 0xa0
 80022ae:	05db      	lsls	r3, r3, #23
 80022b0:	0011      	movs	r1, r2
 80022b2:	0018      	movs	r0, r3
 80022b4:	f000 fd9a 	bl	8002dec <HAL_GPIO_Init>

  /*Configure GPIO pins : TOUCH_STAR_9_Pin TOUCH_STAR_10_Pin TOUCH_STAR_11_Pin TOUCH_STAR_12_Pin
                           TOUCH_STAR_13_Pin TOUCH_STAR_14_Pin TOUCH_STAR_21_Pin TOUCH_STAR_22_Pin
                           TOUCH_STAR_23_Pin */
  GPIO_InitStruct.Pin = TOUCH_STAR_9_Pin|TOUCH_STAR_10_Pin|TOUCH_STAR_11_Pin|TOUCH_STAR_12_Pin
 80022b8:	193b      	adds	r3, r7, r4
 80022ba:	4a38      	ldr	r2, [pc, #224]	; (800239c <_ZL12MX_GPIO_Initv+0x2d0>)
 80022bc:	601a      	str	r2, [r3, #0]
                          |TOUCH_STAR_13_Pin|TOUCH_STAR_14_Pin|TOUCH_STAR_21_Pin|TOUCH_STAR_22_Pin
                          |TOUCH_STAR_23_Pin;
  GPIO_InitStruct.Mode = GPIO_MODE_INPUT;
 80022be:	193b      	adds	r3, r7, r4
 80022c0:	2200      	movs	r2, #0
 80022c2:	605a      	str	r2, [r3, #4]
  GPIO_InitStruct.Pull = GPIO_NOPULL;
 80022c4:	193b      	adds	r3, r7, r4
 80022c6:	2200      	movs	r2, #0
 80022c8:	609a      	str	r2, [r3, #8]
  HAL_GPIO_Init(GPIOB, &GPIO_InitStruct);
 80022ca:	193b      	adds	r3, r7, r4
 80022cc:	4a34      	ldr	r2, [pc, #208]	; (80023a0 <_ZL12MX_GPIO_Initv+0x2d4>)
 80022ce:	0019      	movs	r1, r3
 80022d0:	0010      	movs	r0, r2
 80022d2:	f000 fd8b 	bl	8002dec <HAL_GPIO_Init>

  /*Configure GPIO pin : AUDIO_SD_N_L_Pin */
  GPIO_InitStruct.Pin = AUDIO_SD_N_L_Pin;
 80022d6:	0021      	movs	r1, r4
 80022d8:	187b      	adds	r3, r7, r1
 80022da:	2280      	movs	r2, #128	; 0x80
 80022dc:	00d2      	lsls	r2, r2, #3
 80022de:	601a      	str	r2, [r3, #0]
  GPIO_InitStruct.Mode = GPIO_MODE_OUTPUT_PP;
 80022e0:	000c      	movs	r4, r1
 80022e2:	193b      	adds	r3, r7, r4
 80022e4:	2201      	movs	r2, #1
 80022e6:	605a      	str	r2, [r3, #4]
  GPIO_InitStruct.Pull = GPIO_NOPULL;
 80022e8:	193b      	adds	r3, r7, r4
 80022ea:	2200      	movs	r2, #0
 80022ec:	609a      	str	r2, [r3, #8]
  GPIO_InitStruct.Speed = GPIO_SPEED_FREQ_LOW;
 80022ee:	193b      	adds	r3, r7, r4
 80022f0:	2200      	movs	r2, #0
 80022f2:	60da      	str	r2, [r3, #12]
  HAL_GPIO_Init(AUDIO_SD_N_L_GPIO_Port, &GPIO_InitStruct);
 80022f4:	193b      	adds	r3, r7, r4
 80022f6:	4a26      	ldr	r2, [pc, #152]	; (8002390 <_ZL12MX_GPIO_Initv+0x2c4>)
 80022f8:	0019      	movs	r1, r3
 80022fa:	0010      	movs	r0, r2
 80022fc:	f000 fd76 	bl	8002dec <HAL_GPIO_Init>

  /*Configure GPIO pin : AUDIO_SD_N_R_Pin */
  GPIO_InitStruct.Pin = AUDIO_SD_N_R_Pin;
 8002300:	0021      	movs	r1, r4
 8002302:	187b      	adds	r3, r7, r1
 8002304:	2280      	movs	r2, #128	; 0x80
 8002306:	0112      	lsls	r2, r2, #4
 8002308:	601a      	str	r2, [r3, #0]
  GPIO_InitStruct.Mode = GPIO_MODE_OUTPUT_PP;
 800230a:	000c      	movs	r4, r1
 800230c:	193b      	adds	r3, r7, r4
 800230e:	2201      	movs	r2, #1
 8002310:	605a      	str	r2, [r3, #4]
  GPIO_InitStruct.Pull = GPIO_NOPULL;
 8002312:	193b      	adds	r3, r7, r4
 8002314:	2200      	movs	r2, #0
 8002316:	609a      	str	r2, [r3, #8]
  GPIO_InitStruct.Speed = GPIO_SPEED_FREQ_LOW;
 8002318:	193b      	adds	r3, r7, r4
 800231a:	2200      	movs	r2, #0
 800231c:	60da      	str	r2, [r3, #12]
  HAL_GPIO_Init(AUDIO_SD_N_R_GPIO_Port, &GPIO_InitStruct);
 800231e:	193b      	adds	r3, r7, r4
 8002320:	4a1b      	ldr	r2, [pc, #108]	; (8002390 <_ZL12MX_GPIO_Initv+0x2c4>)
 8002322:	0019      	movs	r1, r3
 8002324:	0010      	movs	r0, r2
 8002326:	f000 fd61 	bl	8002dec <HAL_GPIO_Init>

  /*Configure GPIO pin : MODE_SW_Pin */
  GPIO_InitStruct.Pin = MODE_SW_Pin;
 800232a:	0021      	movs	r1, r4
 800232c:	187b      	adds	r3, r7, r1
 800232e:	2280      	movs	r2, #128	; 0x80
 8002330:	0212      	lsls	r2, r2, #8
 8002332:	601a      	str	r2, [r3, #0]
  GPIO_InitStruct.Mode = GPIO_MODE_INPUT;
 8002334:	000c      	movs	r4, r1
 8002336:	193b      	adds	r3, r7, r4
 8002338:	2200      	movs	r2, #0
 800233a:	605a      	str	r2, [r3, #4]
  GPIO_InitStruct.Pull = GPIO_NOPULL;
 800233c:	193b      	adds	r3, r7, r4
 800233e:	2200      	movs	r2, #0
 8002340:	609a      	str	r2, [r3, #8]
  HAL_GPIO_Init(MODE_SW_GPIO_Port, &GPIO_InitStruct);
 8002342:	193b      	adds	r3, r7, r4
 8002344:	4a12      	ldr	r2, [pc, #72]	; (8002390 <_ZL12MX_GPIO_Initv+0x2c4>)
 8002346:	0019      	movs	r1, r3
 8002348:	0010      	movs	r0, r2
 800234a:	f000 fd4f 	bl	8002dec <HAL_GPIO_Init>

  /*Configure GPIO pin : SD_SPI1_CS_N_Pin */
  GPIO_InitStruct.Pin = SD_SPI1_CS_N_Pin;
 800234e:	0021      	movs	r1, r4
 8002350:	187b      	adds	r3, r7, r1
 8002352:	2280      	movs	r2, #128	; 0x80
 8002354:	0212      	lsls	r2, r2, #8
 8002356:	601a      	str	r2, [r3, #0]
  GPIO_InitStruct.Mode = GPIO_MODE_OUTPUT_PP;
 8002358:	187b      	adds	r3, r7, r1
 800235a:	2201      	movs	r2, #1
 800235c:	605a      	str	r2, [r3, #4]
  GPIO_InitStruct.Pull = GPIO_NOPULL;
 800235e:	187b      	adds	r3, r7, r1
 8002360:	2200      	movs	r2, #0
 8002362:	609a      	str	r2, [r3, #8]
  GPIO_InitStruct.Speed = GPIO_SPEED_FREQ_LOW;
 8002364:	187b      	adds	r3, r7, r1
 8002366:	2200      	movs	r2, #0
 8002368:	60da      	str	r2, [r3, #12]
  HAL_GPIO_Init(SD_SPI1_CS_N_GPIO_Port, &GPIO_InitStruct);
 800236a:	187a      	adds	r2, r7, r1
 800236c:	23a0      	movs	r3, #160	; 0xa0
 800236e:	05db      	lsls	r3, r3, #23
 8002370:	0011      	movs	r1, r2
 8002372:	0018      	movs	r0, r3
 8002374:	f000 fd3a 	bl	8002dec <HAL_GPIO_Init>

}
 8002378:	46c0      	nop			; (mov r8, r8)
 800237a:	46bd      	mov	sp, r7
 800237c:	b00d      	add	sp, #52	; 0x34
 800237e:	bd90      	pop	{r4, r7, pc}
 8002380:	40021000 	.word	0x40021000
 8002384:	50001000 	.word	0x50001000
 8002388:	50000800 	.word	0x50000800
 800238c:	50001c00 	.word	0x50001c00
 8002390:	50000c00 	.word	0x50000c00
 8002394:	0000238e 	.word	0x0000238e
 8002398:	00001cee 	.word	0x00001cee
 800239c:	000070d7 	.word	0x000070d7
 80023a0:	50000400 	.word	0x50000400

080023a4 <Error_Handler>:
/**
  * @brief  This function is executed in case of error occurrence.
  * @retval None
  */
void Error_Handler(void)
{
 80023a4:	b580      	push	{r7, lr}
 80023a6:	af00      	add	r7, sp, #0
  \details Disables IRQ interrupts by setting the I-bit in the CPSR.
           Can only be executed in Privileged modes.
 */
__STATIC_FORCEINLINE void __disable_irq(void)
{
  __ASM volatile ("cpsid i" : : : "memory");
 80023a8:	b672      	cpsid	i
}
 80023aa:	46c0      	nop			; (mov r8, r8)
  /* USER CODE BEGIN Error_Handler_Debug */
  /* User can add his own implementation to report the HAL error return state */
  __disable_irq();
  while (1)
 80023ac:	e7fe      	b.n	80023ac <Error_Handler+0x8>

080023ae <_ZNSt6vectorI15TouchState_enumSaIS0_EEaSEOS2_>:
      operator=(vector&& __x) noexcept(_Alloc_traits::_S_nothrow_move())
 80023ae:	b590      	push	{r4, r7, lr}
 80023b0:	b085      	sub	sp, #20
 80023b2:	af00      	add	r7, sp, #0
 80023b4:	6078      	str	r0, [r7, #4]
 80023b6:	6039      	str	r1, [r7, #0]
	constexpr bool __move_storage =
 80023b8:	230f      	movs	r3, #15
 80023ba:	18fb      	adds	r3, r7, r3
 80023bc:	2201      	movs	r2, #1
 80023be:	701a      	strb	r2, [r3, #0]
	_M_move_assign(std::move(__x), __bool_constant<__move_storage>());
 80023c0:	683b      	ldr	r3, [r7, #0]
 80023c2:	0018      	movs	r0, r3
 80023c4:	f000 f80b 	bl	80023de <_ZSt4moveIRSt6vectorI15TouchState_enumSaIS1_EEEONSt16remove_referenceIT_E4typeEOS6_>
 80023c8:	0001      	movs	r1, r0
 80023ca:	687b      	ldr	r3, [r7, #4]
 80023cc:	1c22      	adds	r2, r4, #0
 80023ce:	0018      	movs	r0, r3
 80023d0:	f000 f80e 	bl	80023f0 <_ZNSt6vectorI15TouchState_enumSaIS0_EE14_M_move_assignEOS2_St17integral_constantIbLb1EE>
	return *this;
 80023d4:	687b      	ldr	r3, [r7, #4]
      }
 80023d6:	0018      	movs	r0, r3
 80023d8:	46bd      	mov	sp, r7
 80023da:	b005      	add	sp, #20
 80023dc:	bd90      	pop	{r4, r7, pc}

080023de <_ZSt4moveIRSt6vectorI15TouchState_enumSaIS1_EEEONSt16remove_referenceIT_E4typeEOS6_>:
   *  @return The parameter cast to an rvalue-reference to allow moving it.
  */
  template<typename _Tp>
    _GLIBCXX_NODISCARD
    constexpr typename std::remove_reference<_Tp>::type&&
    move(_Tp&& __t) noexcept
 80023de:	b580      	push	{r7, lr}
 80023e0:	b082      	sub	sp, #8
 80023e2:	af00      	add	r7, sp, #0
 80023e4:	6078      	str	r0, [r7, #4]
    { return static_cast<typename std::remove_reference<_Tp>::type&&>(__t); }
 80023e6:	687b      	ldr	r3, [r7, #4]
 80023e8:	0018      	movs	r0, r3
 80023ea:	46bd      	mov	sp, r7
 80023ec:	b002      	add	sp, #8
 80023ee:	bd80      	pop	{r7, pc}

080023f0 <_ZNSt6vectorI15TouchState_enumSaIS0_EE14_M_move_assignEOS2_St17integral_constantIbLb1EE>:
    private:
      // Constant-time move assignment when source object's memory can be
      // moved, either because the source's allocator will move too
      // or because the allocators are equal.
      void
      _M_move_assign(vector&& __x, true_type) noexcept
 80023f0:	b5b0      	push	{r4, r5, r7, lr}
 80023f2:	b088      	sub	sp, #32
 80023f4:	af00      	add	r7, sp, #0
 80023f6:	60f8      	str	r0, [r7, #12]
 80023f8:	60b9      	str	r1, [r7, #8]
 80023fa:	1d3b      	adds	r3, r7, #4
 80023fc:	701a      	strb	r2, [r3, #0]
      {
	vector __tmp(get_allocator());
 80023fe:	68fa      	ldr	r2, [r7, #12]
 8002400:	241c      	movs	r4, #28
 8002402:	193b      	adds	r3, r7, r4
 8002404:	0011      	movs	r1, r2
 8002406:	0018      	movs	r0, r3
 8002408:	f000 f82c 	bl	8002464 <_ZNKSt12_Vector_baseI15TouchState_enumSaIS0_EE13get_allocatorEv>
 800240c:	193a      	adds	r2, r7, r4
 800240e:	2510      	movs	r5, #16
 8002410:	197b      	adds	r3, r7, r5
 8002412:	0011      	movs	r1, r2
 8002414:	0018      	movs	r0, r3
 8002416:	f000 f838 	bl	800248a <_ZNSt6vectorI15TouchState_enumSaIS0_EEC1ERKS1_>
 800241a:	193b      	adds	r3, r7, r4
 800241c:	0018      	movs	r0, r3
 800241e:	f7fe fca8 	bl	8000d72 <_ZNSaI15TouchState_enumED1Ev>
	this->_M_impl._M_swap_data(__x._M_impl);
 8002422:	68fb      	ldr	r3, [r7, #12]
 8002424:	68ba      	ldr	r2, [r7, #8]
 8002426:	0011      	movs	r1, r2
 8002428:	0018      	movs	r0, r3
 800242a:	f000 f83e 	bl	80024aa <_ZNSt12_Vector_baseI15TouchState_enumSaIS0_EE17_Vector_impl_data12_M_swap_dataERS3_>
	__tmp._M_impl._M_swap_data(__x._M_impl);
 800242e:	68ba      	ldr	r2, [r7, #8]
 8002430:	197b      	adds	r3, r7, r5
 8002432:	0011      	movs	r1, r2
 8002434:	0018      	movs	r0, r3
 8002436:	f000 f838 	bl	80024aa <_ZNSt12_Vector_baseI15TouchState_enumSaIS0_EE17_Vector_impl_data12_M_swap_dataERS3_>
	std::__alloc_on_move(_M_get_Tp_allocator(), __x._M_get_Tp_allocator());
 800243a:	68fb      	ldr	r3, [r7, #12]
 800243c:	0018      	movs	r0, r3
 800243e:	f7fe fe70 	bl	8001122 <_ZNSt12_Vector_baseI15TouchState_enumSaIS0_EE19_M_get_Tp_allocatorEv>
 8002442:	0004      	movs	r4, r0
 8002444:	68bb      	ldr	r3, [r7, #8]
 8002446:	0018      	movs	r0, r3
 8002448:	f7fe fe6b 	bl	8001122 <_ZNSt12_Vector_baseI15TouchState_enumSaIS0_EE19_M_get_Tp_allocatorEv>
 800244c:	0003      	movs	r3, r0
 800244e:	0019      	movs	r1, r3
 8002450:	0020      	movs	r0, r4
 8002452:	f000 f84a 	bl	80024ea <_ZSt15__alloc_on_moveISaI15TouchState_enumEEvRT_S3_>
      }
 8002456:	197b      	adds	r3, r7, r5
 8002458:	0018      	movs	r0, r3
 800245a:	f7fe fcb5 	bl	8000dc8 <_ZNSt6vectorI15TouchState_enumSaIS0_EED1Ev>
 800245e:	46bd      	mov	sp, r7
 8002460:	b008      	add	sp, #32
 8002462:	bdb0      	pop	{r4, r5, r7, pc}

08002464 <_ZNKSt12_Vector_baseI15TouchState_enumSaIS0_EE13get_allocatorEv>:
      get_allocator() const _GLIBCXX_NOEXCEPT
 8002464:	b580      	push	{r7, lr}
 8002466:	b082      	sub	sp, #8
 8002468:	af00      	add	r7, sp, #0
 800246a:	6078      	str	r0, [r7, #4]
 800246c:	6039      	str	r1, [r7, #0]
      { return allocator_type(_M_get_Tp_allocator()); }
 800246e:	683b      	ldr	r3, [r7, #0]
 8002470:	0018      	movs	r0, r3
 8002472:	f7fe fe8b 	bl	800118c <_ZNKSt12_Vector_baseI15TouchState_enumSaIS0_EE19_M_get_Tp_allocatorEv>
 8002476:	0002      	movs	r2, r0
 8002478:	687b      	ldr	r3, [r7, #4]
 800247a:	0011      	movs	r1, r2
 800247c:	0018      	movs	r0, r3
 800247e:	f7fe ff6d 	bl	800135c <_ZNSaI15TouchState_enumEC1ERKS0_>
 8002482:	6878      	ldr	r0, [r7, #4]
 8002484:	46bd      	mov	sp, r7
 8002486:	b002      	add	sp, #8
 8002488:	bd80      	pop	{r7, pc}

0800248a <_ZNSt6vectorI15TouchState_enumSaIS0_EEC1ERKS1_>:
      vector(const allocator_type& __a) _GLIBCXX_NOEXCEPT
 800248a:	b580      	push	{r7, lr}
 800248c:	b082      	sub	sp, #8
 800248e:	af00      	add	r7, sp, #0
 8002490:	6078      	str	r0, [r7, #4]
 8002492:	6039      	str	r1, [r7, #0]
      : _Base(__a) { }
 8002494:	687b      	ldr	r3, [r7, #4]
 8002496:	683a      	ldr	r2, [r7, #0]
 8002498:	0011      	movs	r1, r2
 800249a:	0018      	movs	r0, r3
 800249c:	f000 f833 	bl	8002506 <_ZNSt12_Vector_baseI15TouchState_enumSaIS0_EEC1ERKS1_>
 80024a0:	687b      	ldr	r3, [r7, #4]
 80024a2:	0018      	movs	r0, r3
 80024a4:	46bd      	mov	sp, r7
 80024a6:	b002      	add	sp, #8
 80024a8:	bd80      	pop	{r7, pc}

080024aa <_ZNSt12_Vector_baseI15TouchState_enumSaIS0_EE17_Vector_impl_data12_M_swap_dataERS3_>:
	_M_swap_data(_Vector_impl_data& __x) _GLIBCXX_NOEXCEPT
 80024aa:	b590      	push	{r4, r7, lr}
 80024ac:	b087      	sub	sp, #28
 80024ae:	af00      	add	r7, sp, #0
 80024b0:	6078      	str	r0, [r7, #4]
 80024b2:	6039      	str	r1, [r7, #0]
	  _Vector_impl_data __tmp;
 80024b4:	240c      	movs	r4, #12
 80024b6:	193b      	adds	r3, r7, r4
 80024b8:	0018      	movs	r0, r3
 80024ba:	f7ff f899 	bl	80015f0 <_ZNSt12_Vector_baseI15TouchState_enumSaIS0_EE17_Vector_impl_dataC1Ev>
	  __tmp._M_copy_data(*this);
 80024be:	687a      	ldr	r2, [r7, #4]
 80024c0:	193b      	adds	r3, r7, r4
 80024c2:	0011      	movs	r1, r2
 80024c4:	0018      	movs	r0, r3
 80024c6:	f000 f82e 	bl	8002526 <_ZNSt12_Vector_baseI15TouchState_enumSaIS0_EE17_Vector_impl_data12_M_copy_dataERKS3_>
	  _M_copy_data(__x);
 80024ca:	683a      	ldr	r2, [r7, #0]
 80024cc:	687b      	ldr	r3, [r7, #4]
 80024ce:	0011      	movs	r1, r2
 80024d0:	0018      	movs	r0, r3
 80024d2:	f000 f828 	bl	8002526 <_ZNSt12_Vector_baseI15TouchState_enumSaIS0_EE17_Vector_impl_data12_M_copy_dataERKS3_>
	  __x._M_copy_data(__tmp);
 80024d6:	193a      	adds	r2, r7, r4
 80024d8:	683b      	ldr	r3, [r7, #0]
 80024da:	0011      	movs	r1, r2
 80024dc:	0018      	movs	r0, r3
 80024de:	f000 f822 	bl	8002526 <_ZNSt12_Vector_baseI15TouchState_enumSaIS0_EE17_Vector_impl_data12_M_copy_dataERKS3_>
	}
 80024e2:	46c0      	nop			; (mov r8, r8)
 80024e4:	46bd      	mov	sp, r7
 80024e6:	b007      	add	sp, #28
 80024e8:	bd90      	pop	{r4, r7, pc}

080024ea <_ZSt15__alloc_on_moveISaI15TouchState_enumEEvRT_S3_>:
    __alloc_on_move(_Alloc& __one, _Alloc& __two)
 80024ea:	b580      	push	{r7, lr}
 80024ec:	b082      	sub	sp, #8
 80024ee:	af00      	add	r7, sp, #0
 80024f0:	6078      	str	r0, [r7, #4]
 80024f2:	6039      	str	r1, [r7, #0]
      __do_alloc_on_move(__one, __two, __pocma());
 80024f4:	6839      	ldr	r1, [r7, #0]
 80024f6:	687b      	ldr	r3, [r7, #4]
 80024f8:	0018      	movs	r0, r3
 80024fa:	f000 f829 	bl	8002550 <_ZSt18__do_alloc_on_moveISaI15TouchState_enumEEvRT_S3_St17integral_constantIbLb1EE>
    }
 80024fe:	46c0      	nop			; (mov r8, r8)
 8002500:	46bd      	mov	sp, r7
 8002502:	b002      	add	sp, #8
 8002504:	bd80      	pop	{r7, pc}

08002506 <_ZNSt12_Vector_baseI15TouchState_enumSaIS0_EEC1ERKS1_>:
      _Vector_base(const allocator_type& __a) _GLIBCXX_NOEXCEPT
 8002506:	b580      	push	{r7, lr}
 8002508:	b082      	sub	sp, #8
 800250a:	af00      	add	r7, sp, #0
 800250c:	6078      	str	r0, [r7, #4]
 800250e:	6039      	str	r1, [r7, #0]
      : _M_impl(__a) { }
 8002510:	687b      	ldr	r3, [r7, #4]
 8002512:	683a      	ldr	r2, [r7, #0]
 8002514:	0011      	movs	r1, r2
 8002516:	0018      	movs	r0, r3
 8002518:	f7fe ff30 	bl	800137c <_ZNSt12_Vector_baseI15TouchState_enumSaIS0_EE12_Vector_implC1ERKS1_>
 800251c:	687b      	ldr	r3, [r7, #4]
 800251e:	0018      	movs	r0, r3
 8002520:	46bd      	mov	sp, r7
 8002522:	b002      	add	sp, #8
 8002524:	bd80      	pop	{r7, pc}

08002526 <_ZNSt12_Vector_baseI15TouchState_enumSaIS0_EE17_Vector_impl_data12_M_copy_dataERKS3_>:
	_M_copy_data(_Vector_impl_data const& __x) _GLIBCXX_NOEXCEPT
 8002526:	b580      	push	{r7, lr}
 8002528:	b082      	sub	sp, #8
 800252a:	af00      	add	r7, sp, #0
 800252c:	6078      	str	r0, [r7, #4]
 800252e:	6039      	str	r1, [r7, #0]
	  _M_start = __x._M_start;
 8002530:	683b      	ldr	r3, [r7, #0]
 8002532:	681a      	ldr	r2, [r3, #0]
 8002534:	687b      	ldr	r3, [r7, #4]
 8002536:	601a      	str	r2, [r3, #0]
	  _M_finish = __x._M_finish;
 8002538:	683b      	ldr	r3, [r7, #0]
 800253a:	685a      	ldr	r2, [r3, #4]
 800253c:	687b      	ldr	r3, [r7, #4]
 800253e:	605a      	str	r2, [r3, #4]
	  _M_end_of_storage = __x._M_end_of_storage;
 8002540:	683b      	ldr	r3, [r7, #0]
 8002542:	689a      	ldr	r2, [r3, #8]
 8002544:	687b      	ldr	r3, [r7, #4]
 8002546:	609a      	str	r2, [r3, #8]
	}
 8002548:	46c0      	nop			; (mov r8, r8)
 800254a:	46bd      	mov	sp, r7
 800254c:	b002      	add	sp, #8
 800254e:	bd80      	pop	{r7, pc}

08002550 <_ZSt18__do_alloc_on_moveISaI15TouchState_enumEEvRT_S3_St17integral_constantIbLb1EE>:
    inline void __do_alloc_on_move(_Alloc& __one, _Alloc& __two, true_type)
 8002550:	b580      	push	{r7, lr}
 8002552:	b084      	sub	sp, #16
 8002554:	af00      	add	r7, sp, #0
 8002556:	60f8      	str	r0, [r7, #12]
 8002558:	60b9      	str	r1, [r7, #8]
 800255a:	1d3b      	adds	r3, r7, #4
 800255c:	701a      	strb	r2, [r3, #0]
    { __one = std::move(__two); }
 800255e:	68bb      	ldr	r3, [r7, #8]
 8002560:	0018      	movs	r0, r3
 8002562:	f000 f804 	bl	800256e <_ZSt4moveIRSaI15TouchState_enumEEONSt16remove_referenceIT_E4typeEOS4_>
 8002566:	46c0      	nop			; (mov r8, r8)
 8002568:	46bd      	mov	sp, r7
 800256a:	b004      	add	sp, #16
 800256c:	bd80      	pop	{r7, pc}

0800256e <_ZSt4moveIRSaI15TouchState_enumEEONSt16remove_referenceIT_E4typeEOS4_>:
    move(_Tp&& __t) noexcept
 800256e:	b580      	push	{r7, lr}
 8002570:	b082      	sub	sp, #8
 8002572:	af00      	add	r7, sp, #0
 8002574:	6078      	str	r0, [r7, #4]
    { return static_cast<typename std::remove_reference<_Tp>::type&&>(__t); }
 8002576:	687b      	ldr	r3, [r7, #4]
 8002578:	0018      	movs	r0, r3
 800257a:	46bd      	mov	sp, r7
 800257c:	b002      	add	sp, #8
 800257e:	bd80      	pop	{r7, pc}

08002580 <_Z41__static_initialization_and_destruction_0ii>:
  {
  }
  /* USER CODE END Error_Handler_Debug */
}
 8002580:	b590      	push	{r4, r7, lr}
 8002582:	b087      	sub	sp, #28
 8002584:	af02      	add	r7, sp, #8
 8002586:	6078      	str	r0, [r7, #4]
 8002588:	6039      	str	r1, [r7, #0]
 800258a:	687b      	ldr	r3, [r7, #4]
 800258c:	2b01      	cmp	r3, #1
 800258e:	d140      	bne.n	8002612 <_Z41__static_initialization_and_destruction_0ii+0x92>
 8002590:	683b      	ldr	r3, [r7, #0]
 8002592:	4a31      	ldr	r2, [pc, #196]	; (8002658 <_Z41__static_initialization_and_destruction_0ii+0xd8>)
 8002594:	4293      	cmp	r3, r2
 8002596:	d13c      	bne.n	8002612 <_Z41__static_initialization_and_destruction_0ii+0x92>
TouchBoardGroup touchGroup0 = TouchBoardGroup(NUM_BOARDS, htim2, TIM_CHANNEL_1, hdma_tim2_ch1);
 8002598:	4a30      	ldr	r2, [pc, #192]	; (800265c <_Z41__static_initialization_and_destruction_0ii+0xdc>)
 800259a:	4831      	ldr	r0, [pc, #196]	; (8002660 <_Z41__static_initialization_and_destruction_0ii+0xe0>)
 800259c:	4b31      	ldr	r3, [pc, #196]	; (8002664 <_Z41__static_initialization_and_destruction_0ii+0xe4>)
 800259e:	9300      	str	r3, [sp, #0]
 80025a0:	2300      	movs	r3, #0
 80025a2:	2118      	movs	r1, #24
 80025a4:	f7fe f9ee 	bl	8000984 <_ZN15TouchBoardGroupC1EhR17TIM_HandleTypeDefmR19__DMA_HandleTypeDef>
std::vector<TouchState_enum> touchStates(NUM_BOARDS);
 80025a8:	240c      	movs	r4, #12
 80025aa:	193b      	adds	r3, r7, r4
 80025ac:	0018      	movs	r0, r3
 80025ae:	f7fe fbd3 	bl	8000d58 <_ZNSaI15TouchState_enumEC1Ev>
 80025b2:	193a      	adds	r2, r7, r4
 80025b4:	4b2c      	ldr	r3, [pc, #176]	; (8002668 <_Z41__static_initialization_and_destruction_0ii+0xe8>)
 80025b6:	2118      	movs	r1, #24
 80025b8:	0018      	movs	r0, r3
 80025ba:	f7fe fbe7 	bl	8000d8c <_ZNSt6vectorI15TouchState_enumSaIS0_EEC1EjRKS1_>
 80025be:	193b      	adds	r3, r7, r4
 80025c0:	0018      	movs	r0, r3
 80025c2:	f7fe fbd6 	bl	8000d72 <_ZNSaI15TouchState_enumED1Ev>
WavPlayer audioPlayer = WavPlayer(hi2s2);
 80025c6:	4a29      	ldr	r2, [pc, #164]	; (800266c <_Z41__static_initialization_and_destruction_0ii+0xec>)
 80025c8:	4b29      	ldr	r3, [pc, #164]	; (8002670 <_Z41__static_initialization_and_destruction_0ii+0xf0>)
 80025ca:	0011      	movs	r1, r2
 80025cc:	0018      	movs	r0, r3
 80025ce:	f7ff fac7 	bl	8001b60 <_ZN9WavPlayerC1ER17I2S_HandleTypeDef>
NeoPixel rocketStream = NeoPixel(72, htim2, TIM_CHANNEL_3, hdma_tim2_ch3);
 80025d2:	4a22      	ldr	r2, [pc, #136]	; (800265c <_Z41__static_initialization_and_destruction_0ii+0xdc>)
 80025d4:	4827      	ldr	r0, [pc, #156]	; (8002674 <_Z41__static_initialization_and_destruction_0ii+0xf4>)
 80025d6:	4b28      	ldr	r3, [pc, #160]	; (8002678 <_Z41__static_initialization_and_destruction_0ii+0xf8>)
 80025d8:	9300      	str	r3, [sp, #0]
 80025da:	2308      	movs	r3, #8
 80025dc:	2148      	movs	r1, #72	; 0x48
 80025de:	f7fd fff1 	bl	80005c4 <_ZN8NeoPixelC1EtR17TIM_HandleTypeDefmR19__DMA_HandleTypeDef>
LedButton buttonL = LedButton(BUTTON_LED_L_GPIO_Port, BUTTON_LED_L_Pin, BUTTON_L_GPIO_Port, BUTTON_L_Pin);
 80025e2:	4a26      	ldr	r2, [pc, #152]	; (800267c <_Z41__static_initialization_and_destruction_0ii+0xfc>)
 80025e4:	4925      	ldr	r1, [pc, #148]	; (800267c <_Z41__static_initialization_and_destruction_0ii+0xfc>)
 80025e6:	4826      	ldr	r0, [pc, #152]	; (8002680 <_Z41__static_initialization_and_destruction_0ii+0x100>)
 80025e8:	2310      	movs	r3, #16
 80025ea:	9300      	str	r3, [sp, #0]
 80025ec:	0013      	movs	r3, r2
 80025ee:	2220      	movs	r2, #32
 80025f0:	f7fd ff5a 	bl	80004a8 <_ZN9LedButtonC1EP12GPIO_TypeDeftS1_t>
LedButton buttonR = LedButton(BUTTON_LED_R_GPIO_Port, BUTTON_LED_R_Pin, BUTTON_R_GPIO_Port, BUTTON_R_Pin);
 80025f4:	4c23      	ldr	r4, [pc, #140]	; (8002684 <_Z41__static_initialization_and_destruction_0ii+0x104>)
 80025f6:	2380      	movs	r3, #128	; 0x80
 80025f8:	01da      	lsls	r2, r3, #7
 80025fa:	4922      	ldr	r1, [pc, #136]	; (8002684 <_Z41__static_initialization_and_destruction_0ii+0x104>)
 80025fc:	4822      	ldr	r0, [pc, #136]	; (8002688 <_Z41__static_initialization_and_destruction_0ii+0x108>)
 80025fe:	2380      	movs	r3, #128	; 0x80
 8002600:	019b      	lsls	r3, r3, #6
 8002602:	9300      	str	r3, [sp, #0]
 8002604:	0023      	movs	r3, r4
 8002606:	f7fd ff4f 	bl	80004a8 <_ZN9LedButtonC1EP12GPIO_TypeDeftS1_t>
uint16_t inactivity_timer = inactivity_timeout;
 800260a:	4b20      	ldr	r3, [pc, #128]	; (800268c <_Z41__static_initialization_and_destruction_0ii+0x10c>)
 800260c:	881a      	ldrh	r2, [r3, #0]
 800260e:	4b20      	ldr	r3, [pc, #128]	; (8002690 <_Z41__static_initialization_and_destruction_0ii+0x110>)
 8002610:	801a      	strh	r2, [r3, #0]
 8002612:	687b      	ldr	r3, [r7, #4]
 8002614:	2b00      	cmp	r3, #0
 8002616:	d11b      	bne.n	8002650 <_Z41__static_initialization_and_destruction_0ii+0xd0>
 8002618:	683b      	ldr	r3, [r7, #0]
 800261a:	4a0f      	ldr	r2, [pc, #60]	; (8002658 <_Z41__static_initialization_and_destruction_0ii+0xd8>)
 800261c:	4293      	cmp	r3, r2
 800261e:	d117      	bne.n	8002650 <_Z41__static_initialization_and_destruction_0ii+0xd0>
LedButton buttonR = LedButton(BUTTON_LED_R_GPIO_Port, BUTTON_LED_R_Pin, BUTTON_R_GPIO_Port, BUTTON_R_Pin);
 8002620:	4b19      	ldr	r3, [pc, #100]	; (8002688 <_Z41__static_initialization_and_destruction_0ii+0x108>)
 8002622:	0018      	movs	r0, r3
 8002624:	f7fd ff68 	bl	80004f8 <_ZN9LedButtonD1Ev>
LedButton buttonL = LedButton(BUTTON_LED_L_GPIO_Port, BUTTON_LED_L_Pin, BUTTON_L_GPIO_Port, BUTTON_L_Pin);
 8002628:	4b15      	ldr	r3, [pc, #84]	; (8002680 <_Z41__static_initialization_and_destruction_0ii+0x100>)
 800262a:	0018      	movs	r0, r3
 800262c:	f7fd ff64 	bl	80004f8 <_ZN9LedButtonD1Ev>
NeoPixel rocketStream = NeoPixel(72, htim2, TIM_CHANNEL_3, hdma_tim2_ch3);
 8002630:	4b10      	ldr	r3, [pc, #64]	; (8002674 <_Z41__static_initialization_and_destruction_0ii+0xf4>)
 8002632:	0018      	movs	r0, r3
 8002634:	f7fd ffe5 	bl	8000602 <_ZN8NeoPixelD1Ev>
WavPlayer audioPlayer = WavPlayer(hi2s2);
 8002638:	4b0d      	ldr	r3, [pc, #52]	; (8002670 <_Z41__static_initialization_and_destruction_0ii+0xf0>)
 800263a:	0018      	movs	r0, r3
 800263c:	f7ff faa3 	bl	8001b86 <_ZN9WavPlayerD1Ev>
std::vector<TouchState_enum> touchStates(NUM_BOARDS);
 8002640:	4b09      	ldr	r3, [pc, #36]	; (8002668 <_Z41__static_initialization_and_destruction_0ii+0xe8>)
 8002642:	0018      	movs	r0, r3
 8002644:	f7fe fbc0 	bl	8000dc8 <_ZNSt6vectorI15TouchState_enumSaIS0_EED1Ev>
TouchBoardGroup touchGroup0 = TouchBoardGroup(NUM_BOARDS, htim2, TIM_CHANNEL_1, hdma_tim2_ch1);
 8002648:	4b05      	ldr	r3, [pc, #20]	; (8002660 <_Z41__static_initialization_and_destruction_0ii+0xe0>)
 800264a:	0018      	movs	r0, r3
 800264c:	f7fe fa1a 	bl	8000a84 <_ZN15TouchBoardGroupD1Ev>
}
 8002650:	46c0      	nop			; (mov r8, r8)
 8002652:	46bd      	mov	sp, r7
 8002654:	b005      	add	sp, #20
 8002656:	bd90      	pop	{r4, r7, pc}
 8002658:	0000ffff 	.word	0x0000ffff
 800265c:	20000278 	.word	0x20000278
 8002660:	200005b8 	.word	0x200005b8
 8002664:	200002b8 	.word	0x200002b8
 8002668:	200005f8 	.word	0x200005f8
 800266c:	2000010c 	.word	0x2000010c
 8002670:	20000604 	.word	0x20000604
 8002674:	20000c34 	.word	0x20000c34
 8002678:	20000300 	.word	0x20000300
 800267c:	50001000 	.word	0x50001000
 8002680:	20000c54 	.word	0x20000c54
 8002684:	50000800 	.word	0x50000800
 8002688:	20000c6c 	.word	0x20000c6c
 800268c:	20000090 	.word	0x20000090
 8002690:	20000c88 	.word	0x20000c88

08002694 <_GLOBAL__sub_I_hi2s2>:
 8002694:	b580      	push	{r7, lr}
 8002696:	af00      	add	r7, sp, #0
 8002698:	4b03      	ldr	r3, [pc, #12]	; (80026a8 <_GLOBAL__sub_I_hi2s2+0x14>)
 800269a:	0019      	movs	r1, r3
 800269c:	2001      	movs	r0, #1
 800269e:	f7ff ff6f 	bl	8002580 <_Z41__static_initialization_and_destruction_0ii>
 80026a2:	46bd      	mov	sp, r7
 80026a4:	bd80      	pop	{r7, pc}
 80026a6:	46c0      	nop			; (mov r8, r8)
 80026a8:	0000ffff 	.word	0x0000ffff

080026ac <_GLOBAL__sub_D_hi2s2>:
 80026ac:	b580      	push	{r7, lr}
 80026ae:	af00      	add	r7, sp, #0
 80026b0:	4b03      	ldr	r3, [pc, #12]	; (80026c0 <_GLOBAL__sub_D_hi2s2+0x14>)
 80026b2:	0019      	movs	r1, r3
 80026b4:	2000      	movs	r0, #0
 80026b6:	f7ff ff63 	bl	8002580 <_Z41__static_initialization_and_destruction_0ii>
 80026ba:	46bd      	mov	sp, r7
 80026bc:	bd80      	pop	{r7, pc}
 80026be:	46c0      	nop			; (mov r8, r8)
 80026c0:	0000ffff 	.word	0x0000ffff

080026c4 <HAL_MspInit>:
{
  /* USER CODE BEGIN MspInit 0 */

  /* USER CODE END MspInit 0 */

  __HAL_RCC_SYSCFG_CLK_ENABLE();
 80026c4:	2201      	movs	r2, #1
 80026c6:	4b05      	ldr	r3, [pc, #20]	; (80026dc <HAL_MspInit+0x18>)
 80026c8:	6b59      	ldr	r1, [r3, #52]	; 0x34
 80026ca:	430a      	orrs	r2, r1
 80026cc:	635a      	str	r2, [r3, #52]	; 0x34
  __HAL_RCC_PWR_CLK_ENABLE();
 80026ce:	2280      	movs	r2, #128	; 0x80
 80026d0:	6b99      	ldr	r1, [r3, #56]	; 0x38
 80026d2:	0552      	lsls	r2, r2, #21
 80026d4:	430a      	orrs	r2, r1
 80026d6:	639a      	str	r2, [r3, #56]	; 0x38
  /* System interrupt init*/

  /* USER CODE BEGIN MspInit 1 */

  /* USER CODE END MspInit 1 */
}
 80026d8:	4770      	bx	lr
 80026da:	46c0      	nop			; (mov r8, r8)
 80026dc:	40021000 	.word	0x40021000

080026e0 <HAL_I2S_MspInit>:
* This function configures the hardware resources used in this example
* @param hi2s: I2S handle pointer
* @retval None
*/
void HAL_I2S_MspInit(I2S_HandleTypeDef* hi2s)
{
 80026e0:	b5f0      	push	{r4, r5, r6, r7, lr}
 80026e2:	0005      	movs	r5, r0
 80026e4:	b089      	sub	sp, #36	; 0x24
  GPIO_InitTypeDef GPIO_InitStruct = {0};
 80026e6:	2214      	movs	r2, #20
 80026e8:	2100      	movs	r1, #0
 80026ea:	a803      	add	r0, sp, #12
 80026ec:	f002 fd79 	bl	80051e2 <memset>
  if(hi2s->Instance==SPI2)
 80026f0:	4b24      	ldr	r3, [pc, #144]	; (8002784 <HAL_I2S_MspInit+0xa4>)
 80026f2:	682a      	ldr	r2, [r5, #0]
 80026f4:	429a      	cmp	r2, r3
 80026f6:	d143      	bne.n	8002780 <HAL_I2S_MspInit+0xa0>
  {
  /* USER CODE BEGIN SPI2_MspInit 0 */

  /* USER CODE END SPI2_MspInit 0 */
    /* Peripheral clock enable */
    __HAL_RCC_SPI2_CLK_ENABLE();
 80026f8:	2280      	movs	r2, #128	; 0x80

    __HAL_RCC_GPIOB_CLK_ENABLE();
 80026fa:	2602      	movs	r6, #2
    __HAL_RCC_SPI2_CLK_ENABLE();
 80026fc:	4b22      	ldr	r3, [pc, #136]	; (8002788 <HAL_I2S_MspInit+0xa8>)
 80026fe:	01d2      	lsls	r2, r2, #7
 8002700:	6b99      	ldr	r1, [r3, #56]	; 0x38
    PD1     ------> I2S2_CK
    */
    GPIO_InitStruct.Pin = I2S_SPI2_SD_Pin;
    GPIO_InitStruct.Mode = GPIO_MODE_AF_PP;
    GPIO_InitStruct.Pull = GPIO_NOPULL;
    GPIO_InitStruct.Speed = GPIO_SPEED_FREQ_VERY_HIGH;
 8002702:	2403      	movs	r4, #3
    __HAL_RCC_SPI2_CLK_ENABLE();
 8002704:	430a      	orrs	r2, r1
    __HAL_RCC_GPIOD_CLK_ENABLE();
 8002706:	2108      	movs	r1, #8
    __HAL_RCC_SPI2_CLK_ENABLE();
 8002708:	639a      	str	r2, [r3, #56]	; 0x38
    __HAL_RCC_GPIOB_CLK_ENABLE();
 800270a:	6ada      	ldr	r2, [r3, #44]	; 0x2c
    GPIO_InitStruct.Alternate = GPIO_AF0_SPI2;
    HAL_GPIO_Init(I2S_SPI2_SD_GPIO_Port, &GPIO_InitStruct);
 800270c:	481f      	ldr	r0, [pc, #124]	; (800278c <HAL_I2S_MspInit+0xac>)
    __HAL_RCC_GPIOB_CLK_ENABLE();
 800270e:	4332      	orrs	r2, r6
 8002710:	62da      	str	r2, [r3, #44]	; 0x2c
 8002712:	6ada      	ldr	r2, [r3, #44]	; 0x2c

    GPIO_InitStruct.Pin = I2S_SPI2_WS_Pin|I2S_SPI2_CK_Pin;
    GPIO_InitStruct.Mode = GPIO_MODE_AF_PP;
    GPIO_InitStruct.Pull = GPIO_NOPULL;
 8002714:	2700      	movs	r7, #0
    __HAL_RCC_GPIOB_CLK_ENABLE();
 8002716:	4032      	ands	r2, r6
 8002718:	9201      	str	r2, [sp, #4]
 800271a:	9a01      	ldr	r2, [sp, #4]
    __HAL_RCC_GPIOD_CLK_ENABLE();
 800271c:	6ada      	ldr	r2, [r3, #44]	; 0x2c
 800271e:	430a      	orrs	r2, r1
 8002720:	62da      	str	r2, [r3, #44]	; 0x2c
 8002722:	6adb      	ldr	r3, [r3, #44]	; 0x2c
    GPIO_InitStruct.Speed = GPIO_SPEED_FREQ_VERY_HIGH;
 8002724:	9406      	str	r4, [sp, #24]
    __HAL_RCC_GPIOD_CLK_ENABLE();
 8002726:	400b      	ands	r3, r1
 8002728:	9302      	str	r3, [sp, #8]
 800272a:	9b02      	ldr	r3, [sp, #8]
    GPIO_InitStruct.Pin = I2S_SPI2_SD_Pin;
 800272c:	2380      	movs	r3, #128	; 0x80
    HAL_GPIO_Init(I2S_SPI2_SD_GPIO_Port, &GPIO_InitStruct);
 800272e:	a903      	add	r1, sp, #12
    GPIO_InitStruct.Pin = I2S_SPI2_SD_Pin;
 8002730:	021b      	lsls	r3, r3, #8
 8002732:	9303      	str	r3, [sp, #12]
    GPIO_InitStruct.Mode = GPIO_MODE_AF_PP;
 8002734:	9604      	str	r6, [sp, #16]
    HAL_GPIO_Init(I2S_SPI2_SD_GPIO_Port, &GPIO_InitStruct);
 8002736:	f000 fb59 	bl	8002dec <HAL_GPIO_Init>
    GPIO_InitStruct.Speed = GPIO_SPEED_FREQ_VERY_HIGH;
    GPIO_InitStruct.Alternate = GPIO_AF1_SPI2;
 800273a:	2301      	movs	r3, #1
    HAL_GPIO_Init(GPIOD, &GPIO_InitStruct);
 800273c:	4814      	ldr	r0, [pc, #80]	; (8002790 <HAL_I2S_MspInit+0xb0>)
 800273e:	a903      	add	r1, sp, #12
    GPIO_InitStruct.Pin = I2S_SPI2_WS_Pin|I2S_SPI2_CK_Pin;
 8002740:	9403      	str	r4, [sp, #12]
    GPIO_InitStruct.Speed = GPIO_SPEED_FREQ_VERY_HIGH;
 8002742:	9406      	str	r4, [sp, #24]
    GPIO_InitStruct.Alternate = GPIO_AF1_SPI2;
 8002744:	9307      	str	r3, [sp, #28]
    GPIO_InitStruct.Mode = GPIO_MODE_AF_PP;
 8002746:	9604      	str	r6, [sp, #16]
    GPIO_InitStruct.Pull = GPIO_NOPULL;
 8002748:	9705      	str	r7, [sp, #20]
    HAL_GPIO_Init(GPIOD, &GPIO_InitStruct);
 800274a:	f000 fb4f 	bl	8002dec <HAL_GPIO_Init>

    /* I2S2 DMA Init */
    /* SPI2_TX Init */
    hdma_spi2_tx.Instance = DMA1_Channel7;
 800274e:	4c11      	ldr	r4, [pc, #68]	; (8002794 <HAL_I2S_MspInit+0xb4>)
 8002750:	4b11      	ldr	r3, [pc, #68]	; (8002798 <HAL_I2S_MspInit+0xb8>)
    hdma_spi2_tx.Init.MemInc = DMA_MINC_ENABLE;
    hdma_spi2_tx.Init.PeriphDataAlignment = DMA_PDATAALIGN_HALFWORD;
    hdma_spi2_tx.Init.MemDataAlignment = DMA_MDATAALIGN_HALFWORD;
    hdma_spi2_tx.Init.Mode = DMA_NORMAL;
    hdma_spi2_tx.Init.Priority = DMA_PRIORITY_LOW;
    if (HAL_DMA_Init(&hdma_spi2_tx) != HAL_OK)
 8002752:	0020      	movs	r0, r4
    hdma_spi2_tx.Instance = DMA1_Channel7;
 8002754:	6023      	str	r3, [r4, #0]
    hdma_spi2_tx.Init.Direction = DMA_MEMORY_TO_PERIPH;
 8002756:	2310      	movs	r3, #16
 8002758:	60a3      	str	r3, [r4, #8]
    hdma_spi2_tx.Init.MemInc = DMA_MINC_ENABLE;
 800275a:	3370      	adds	r3, #112	; 0x70
 800275c:	6123      	str	r3, [r4, #16]
    hdma_spi2_tx.Init.PeriphDataAlignment = DMA_PDATAALIGN_HALFWORD;
 800275e:	3380      	adds	r3, #128	; 0x80
 8002760:	6163      	str	r3, [r4, #20]
    hdma_spi2_tx.Init.MemDataAlignment = DMA_MDATAALIGN_HALFWORD;
 8002762:	2380      	movs	r3, #128	; 0x80
 8002764:	00db      	lsls	r3, r3, #3
    hdma_spi2_tx.Init.Request = DMA_REQUEST_2;
 8002766:	6066      	str	r6, [r4, #4]
    hdma_spi2_tx.Init.PeriphInc = DMA_PINC_DISABLE;
 8002768:	60e7      	str	r7, [r4, #12]
    hdma_spi2_tx.Init.MemDataAlignment = DMA_MDATAALIGN_HALFWORD;
 800276a:	61a3      	str	r3, [r4, #24]
    hdma_spi2_tx.Init.Mode = DMA_NORMAL;
 800276c:	61e7      	str	r7, [r4, #28]
    hdma_spi2_tx.Init.Priority = DMA_PRIORITY_LOW;
 800276e:	6227      	str	r7, [r4, #32]
    if (HAL_DMA_Init(&hdma_spi2_tx) != HAL_OK)
 8002770:	f000 fa6c 	bl	8002c4c <HAL_DMA_Init>
 8002774:	42b8      	cmp	r0, r7
 8002776:	d001      	beq.n	800277c <HAL_I2S_MspInit+0x9c>
    {
      Error_Handler();
 8002778:	f7ff fe14 	bl	80023a4 <Error_Handler>
    }

    __HAL_LINKDMA(hi2s,hdmatx,hdma_spi2_tx);
 800277c:	62ec      	str	r4, [r5, #44]	; 0x2c
 800277e:	62a5      	str	r5, [r4, #40]	; 0x28
  /* USER CODE BEGIN SPI2_MspInit 1 */

  /* USER CODE END SPI2_MspInit 1 */
  }

}
 8002780:	b009      	add	sp, #36	; 0x24
 8002782:	bdf0      	pop	{r4, r5, r6, r7, pc}
 8002784:	40003800 	.word	0x40003800
 8002788:	40021000 	.word	0x40021000
 800278c:	50000400 	.word	0x50000400
 8002790:	50000c00 	.word	0x50000c00
 8002794:	20000148 	.word	0x20000148
 8002798:	40020080 	.word	0x40020080

0800279c <HAL_SPI_MspInit>:
* This function configures the hardware resources used in this example
* @param hspi: SPI handle pointer
* @retval None
*/
void HAL_SPI_MspInit(SPI_HandleTypeDef* hspi)
{
 800279c:	b530      	push	{r4, r5, lr}
 800279e:	0005      	movs	r5, r0
 80027a0:	b087      	sub	sp, #28
  GPIO_InitTypeDef GPIO_InitStruct = {0};
 80027a2:	2214      	movs	r2, #20
 80027a4:	2100      	movs	r1, #0
 80027a6:	a801      	add	r0, sp, #4
 80027a8:	f002 fd1b 	bl	80051e2 <memset>
  if(hspi->Instance==SPI1)
 80027ac:	4b27      	ldr	r3, [pc, #156]	; (800284c <HAL_SPI_MspInit+0xb0>)
 80027ae:	682a      	ldr	r2, [r5, #0]
 80027b0:	429a      	cmp	r2, r3
 80027b2:	d148      	bne.n	8002846 <HAL_SPI_MspInit+0xaa>
  {
  /* USER CODE BEGIN SPI1_MspInit 0 */

  /* USER CODE END SPI1_MspInit 0 */
    /* Peripheral clock enable */
    __HAL_RCC_SPI1_CLK_ENABLE();
 80027b4:	2280      	movs	r2, #128	; 0x80
 80027b6:	4b26      	ldr	r3, [pc, #152]	; (8002850 <HAL_SPI_MspInit+0xb4>)
 80027b8:	0152      	lsls	r2, r2, #5
 80027ba:	6b59      	ldr	r1, [r3, #52]	; 0x34
    GPIO_InitStruct.Pin = SD_SPI1_SCK_Pin|SD_SPI1_MISO_Pin|SD_SPI1_MOSI_Pin;
    GPIO_InitStruct.Mode = GPIO_MODE_AF_PP;
    GPIO_InitStruct.Pull = GPIO_NOPULL;
    GPIO_InitStruct.Speed = GPIO_SPEED_FREQ_VERY_HIGH;
    GPIO_InitStruct.Alternate = GPIO_AF2_SPI1;
    HAL_GPIO_Init(GPIOE, &GPIO_InitStruct);
 80027bc:	4825      	ldr	r0, [pc, #148]	; (8002854 <HAL_SPI_MspInit+0xb8>)
    __HAL_RCC_SPI1_CLK_ENABLE();
 80027be:	430a      	orrs	r2, r1
    __HAL_RCC_GPIOE_CLK_ENABLE();
 80027c0:	2110      	movs	r1, #16
    __HAL_RCC_SPI1_CLK_ENABLE();
 80027c2:	635a      	str	r2, [r3, #52]	; 0x34
    __HAL_RCC_GPIOE_CLK_ENABLE();
 80027c4:	6ada      	ldr	r2, [r3, #44]	; 0x2c
 80027c6:	430a      	orrs	r2, r1
 80027c8:	62da      	str	r2, [r3, #44]	; 0x2c
 80027ca:	6adb      	ldr	r3, [r3, #44]	; 0x2c
    GPIO_InitStruct.Speed = GPIO_SPEED_FREQ_VERY_HIGH;
 80027cc:	2203      	movs	r2, #3
    __HAL_RCC_GPIOE_CLK_ENABLE();
 80027ce:	400b      	ands	r3, r1
 80027d0:	9300      	str	r3, [sp, #0]
 80027d2:	9b00      	ldr	r3, [sp, #0]
    GPIO_InitStruct.Pin = SD_SPI1_SCK_Pin|SD_SPI1_MISO_Pin|SD_SPI1_MOSI_Pin;
 80027d4:	23e0      	movs	r3, #224	; 0xe0
 80027d6:	021b      	lsls	r3, r3, #8
 80027d8:	9301      	str	r3, [sp, #4]
    GPIO_InitStruct.Mode = GPIO_MODE_AF_PP;
 80027da:	2302      	movs	r3, #2
    HAL_GPIO_Init(GPIOE, &GPIO_InitStruct);
 80027dc:	a901      	add	r1, sp, #4
    GPIO_InitStruct.Mode = GPIO_MODE_AF_PP;
 80027de:	9302      	str	r3, [sp, #8]
    GPIO_InitStruct.Speed = GPIO_SPEED_FREQ_VERY_HIGH;
 80027e0:	9204      	str	r2, [sp, #16]
    GPIO_InitStruct.Alternate = GPIO_AF2_SPI1;
 80027e2:	9305      	str	r3, [sp, #20]
    HAL_GPIO_Init(GPIOE, &GPIO_InitStruct);
 80027e4:	f000 fb02 	bl	8002dec <HAL_GPIO_Init>

    /* SPI1 DMA Init */
    /* SPI1_RX Init */
    hdma_spi1_rx.Instance = DMA1_Channel2;
 80027e8:	4c1b      	ldr	r4, [pc, #108]	; (8002858 <HAL_SPI_MspInit+0xbc>)
 80027ea:	4b1c      	ldr	r3, [pc, #112]	; (800285c <HAL_SPI_MspInit+0xc0>)
    hdma_spi1_rx.Init.Request = DMA_REQUEST_1;
    hdma_spi1_rx.Init.Direction = DMA_PERIPH_TO_MEMORY;
    hdma_spi1_rx.Init.PeriphInc = DMA_PINC_DISABLE;
    hdma_spi1_rx.Init.MemInc = DMA_MINC_ENABLE;
 80027ec:	2280      	movs	r2, #128	; 0x80
    hdma_spi1_rx.Instance = DMA1_Channel2;
 80027ee:	6023      	str	r3, [r4, #0]
    hdma_spi1_rx.Init.Request = DMA_REQUEST_1;
 80027f0:	2301      	movs	r3, #1
 80027f2:	6063      	str	r3, [r4, #4]
    hdma_spi1_rx.Init.Direction = DMA_PERIPH_TO_MEMORY;
 80027f4:	2300      	movs	r3, #0
    hdma_spi1_rx.Init.PeriphDataAlignment = DMA_PDATAALIGN_BYTE;
    hdma_spi1_rx.Init.MemDataAlignment = DMA_MDATAALIGN_BYTE;
    hdma_spi1_rx.Init.Mode = DMA_NORMAL;
    hdma_spi1_rx.Init.Priority = DMA_PRIORITY_LOW;
    if (HAL_DMA_Init(&hdma_spi1_rx) != HAL_OK)
 80027f6:	0020      	movs	r0, r4
    hdma_spi1_rx.Init.Direction = DMA_PERIPH_TO_MEMORY;
 80027f8:	60a3      	str	r3, [r4, #8]
    hdma_spi1_rx.Init.PeriphInc = DMA_PINC_DISABLE;
 80027fa:	60e3      	str	r3, [r4, #12]
    hdma_spi1_rx.Init.MemInc = DMA_MINC_ENABLE;
 80027fc:	6122      	str	r2, [r4, #16]
    hdma_spi1_rx.Init.PeriphDataAlignment = DMA_PDATAALIGN_BYTE;
 80027fe:	6163      	str	r3, [r4, #20]
    hdma_spi1_rx.Init.MemDataAlignment = DMA_MDATAALIGN_BYTE;
 8002800:	61a3      	str	r3, [r4, #24]
    hdma_spi1_rx.Init.Mode = DMA_NORMAL;
 8002802:	61e3      	str	r3, [r4, #28]
    hdma_spi1_rx.Init.Priority = DMA_PRIORITY_LOW;
 8002804:	6223      	str	r3, [r4, #32]
    if (HAL_DMA_Init(&hdma_spi1_rx) != HAL_OK)
 8002806:	f000 fa21 	bl	8002c4c <HAL_DMA_Init>
 800280a:	2800      	cmp	r0, #0
 800280c:	d001      	beq.n	8002812 <HAL_SPI_MspInit+0x76>
    {
      Error_Handler();
 800280e:	f7ff fdc9 	bl	80023a4 <Error_Handler>
    }

    __HAL_LINKDMA(hspi,hdmarx,hdma_spi1_rx);

    /* SPI1_TX Init */
    hdma_spi1_tx.Instance = DMA1_Channel3;
 8002812:	4b13      	ldr	r3, [pc, #76]	; (8002860 <HAL_SPI_MspInit+0xc4>)
    __HAL_LINKDMA(hspi,hdmarx,hdma_spi1_rx);
 8002814:	64ec      	str	r4, [r5, #76]	; 0x4c
 8002816:	62a5      	str	r5, [r4, #40]	; 0x28
    hdma_spi1_tx.Instance = DMA1_Channel3;
 8002818:	4c12      	ldr	r4, [pc, #72]	; (8002864 <HAL_SPI_MspInit+0xc8>)
    hdma_spi1_tx.Init.Request = DMA_REQUEST_1;
    hdma_spi1_tx.Init.Direction = DMA_MEMORY_TO_PERIPH;
    hdma_spi1_tx.Init.PeriphInc = DMA_PINC_DISABLE;
    hdma_spi1_tx.Init.MemInc = DMA_MINC_ENABLE;
 800281a:	2280      	movs	r2, #128	; 0x80
    hdma_spi1_tx.Instance = DMA1_Channel3;
 800281c:	6023      	str	r3, [r4, #0]
    hdma_spi1_tx.Init.Request = DMA_REQUEST_1;
 800281e:	2301      	movs	r3, #1
 8002820:	6063      	str	r3, [r4, #4]
    hdma_spi1_tx.Init.Direction = DMA_MEMORY_TO_PERIPH;
 8002822:	330f      	adds	r3, #15
 8002824:	60a3      	str	r3, [r4, #8]
    hdma_spi1_tx.Init.PeriphInc = DMA_PINC_DISABLE;
 8002826:	2300      	movs	r3, #0
    hdma_spi1_tx.Init.PeriphDataAlignment = DMA_PDATAALIGN_BYTE;
    hdma_spi1_tx.Init.MemDataAlignment = DMA_MDATAALIGN_BYTE;
    hdma_spi1_tx.Init.Mode = DMA_NORMAL;
    hdma_spi1_tx.Init.Priority = DMA_PRIORITY_LOW;
    if (HAL_DMA_Init(&hdma_spi1_tx) != HAL_OK)
 8002828:	0020      	movs	r0, r4
    hdma_spi1_tx.Init.PeriphInc = DMA_PINC_DISABLE;
 800282a:	60e3      	str	r3, [r4, #12]
    hdma_spi1_tx.Init.MemInc = DMA_MINC_ENABLE;
 800282c:	6122      	str	r2, [r4, #16]
    hdma_spi1_tx.Init.PeriphDataAlignment = DMA_PDATAALIGN_BYTE;
 800282e:	6163      	str	r3, [r4, #20]
    hdma_spi1_tx.Init.MemDataAlignment = DMA_MDATAALIGN_BYTE;
 8002830:	61a3      	str	r3, [r4, #24]
    hdma_spi1_tx.Init.Mode = DMA_NORMAL;
 8002832:	61e3      	str	r3, [r4, #28]
    hdma_spi1_tx.Init.Priority = DMA_PRIORITY_LOW;
 8002834:	6223      	str	r3, [r4, #32]
    if (HAL_DMA_Init(&hdma_spi1_tx) != HAL_OK)
 8002836:	f000 fa09 	bl	8002c4c <HAL_DMA_Init>
 800283a:	2800      	cmp	r0, #0
 800283c:	d001      	beq.n	8002842 <HAL_SPI_MspInit+0xa6>
    {
      Error_Handler();
 800283e:	f7ff fdb1 	bl	80023a4 <Error_Handler>
    }

    __HAL_LINKDMA(hspi,hdmatx,hdma_spi1_tx);
 8002842:	64ac      	str	r4, [r5, #72]	; 0x48
 8002844:	62a5      	str	r5, [r4, #40]	; 0x28
  /* USER CODE BEGIN SPI1_MspInit 1 */

  /* USER CODE END SPI1_MspInit 1 */
  }

}
 8002846:	b007      	add	sp, #28
 8002848:	bd30      	pop	{r4, r5, pc}
 800284a:	46c0      	nop			; (mov r8, r8)
 800284c:	40013000 	.word	0x40013000
 8002850:	40021000 	.word	0x40021000
 8002854:	50001000 	.word	0x50001000
 8002858:	200001e8 	.word	0x200001e8
 800285c:	4002001c 	.word	0x4002001c
 8002860:	40020030 	.word	0x40020030
 8002864:	20000230 	.word	0x20000230

08002868 <HAL_TIM_Base_MspInit>:
* @param htim_base: TIM_Base handle pointer
* @retval None
*/
void HAL_TIM_Base_MspInit(TIM_HandleTypeDef* htim_base)
{
  if(htim_base->Instance==TIM2)
 8002868:	2380      	movs	r3, #128	; 0x80
 800286a:	6802      	ldr	r2, [r0, #0]
{
 800286c:	b570      	push	{r4, r5, r6, lr}
  if(htim_base->Instance==TIM2)
 800286e:	05db      	lsls	r3, r3, #23
{
 8002870:	0005      	movs	r5, r0
  if(htim_base->Instance==TIM2)
 8002872:	429a      	cmp	r2, r3
 8002874:	d152      	bne.n	800291c <HAL_TIM_Base_MspInit+0xb4>
  {
  /* USER CODE BEGIN TIM2_MspInit 0 */

  /* USER CODE END TIM2_MspInit 0 */
    /* Peripheral clock enable */
    __HAL_RCC_TIM2_CLK_ENABLE();
 8002876:	2301      	movs	r3, #1
 8002878:	4a29      	ldr	r2, [pc, #164]	; (8002920 <HAL_TIM_Base_MspInit+0xb8>)

    /* TIM2 DMA Init */
    /* TIM2_CH1 Init */
    hdma_tim2_ch1.Instance = DMA1_Channel5;
 800287a:	4c2a      	ldr	r4, [pc, #168]	; (8002924 <HAL_TIM_Base_MspInit+0xbc>)
    __HAL_RCC_TIM2_CLK_ENABLE();
 800287c:	6b91      	ldr	r1, [r2, #56]	; 0x38
    hdma_tim2_ch1.Init.MemInc = DMA_MINC_ENABLE;
    hdma_tim2_ch1.Init.PeriphDataAlignment = DMA_PDATAALIGN_WORD;
    hdma_tim2_ch1.Init.MemDataAlignment = DMA_MDATAALIGN_BYTE;
    hdma_tim2_ch1.Init.Mode = DMA_NORMAL;
    hdma_tim2_ch1.Init.Priority = DMA_PRIORITY_LOW;
    if (HAL_DMA_Init(&hdma_tim2_ch1) != HAL_OK)
 800287e:	0020      	movs	r0, r4
    __HAL_RCC_TIM2_CLK_ENABLE();
 8002880:	430b      	orrs	r3, r1
 8002882:	6393      	str	r3, [r2, #56]	; 0x38
    hdma_tim2_ch1.Instance = DMA1_Channel5;
 8002884:	4b28      	ldr	r3, [pc, #160]	; (8002928 <HAL_TIM_Base_MspInit+0xc0>)
    hdma_tim2_ch1.Init.MemInc = DMA_MINC_ENABLE;
 8002886:	2280      	movs	r2, #128	; 0x80
    hdma_tim2_ch1.Instance = DMA1_Channel5;
 8002888:	6023      	str	r3, [r4, #0]
    hdma_tim2_ch1.Init.Request = DMA_REQUEST_8;
 800288a:	2308      	movs	r3, #8
 800288c:	6063      	str	r3, [r4, #4]
    hdma_tim2_ch1.Init.Direction = DMA_MEMORY_TO_PERIPH;
 800288e:	18db      	adds	r3, r3, r3
 8002890:	60a3      	str	r3, [r4, #8]
    hdma_tim2_ch1.Init.PeriphInc = DMA_PINC_DISABLE;
 8002892:	2300      	movs	r3, #0
    hdma_tim2_ch1.Init.MemInc = DMA_MINC_ENABLE;
 8002894:	6122      	str	r2, [r4, #16]
    hdma_tim2_ch1.Init.PeriphDataAlignment = DMA_PDATAALIGN_WORD;
 8002896:	3281      	adds	r2, #129	; 0x81
 8002898:	32ff      	adds	r2, #255	; 0xff
    hdma_tim2_ch1.Init.PeriphInc = DMA_PINC_DISABLE;
 800289a:	60e3      	str	r3, [r4, #12]
    hdma_tim2_ch1.Init.PeriphDataAlignment = DMA_PDATAALIGN_WORD;
 800289c:	6162      	str	r2, [r4, #20]
    hdma_tim2_ch1.Init.MemDataAlignment = DMA_MDATAALIGN_BYTE;
 800289e:	61a3      	str	r3, [r4, #24]
    hdma_tim2_ch1.Init.Mode = DMA_NORMAL;
 80028a0:	61e3      	str	r3, [r4, #28]
    hdma_tim2_ch1.Init.Priority = DMA_PRIORITY_LOW;
 80028a2:	6223      	str	r3, [r4, #32]
    if (HAL_DMA_Init(&hdma_tim2_ch1) != HAL_OK)
 80028a4:	f000 f9d2 	bl	8002c4c <HAL_DMA_Init>
 80028a8:	2800      	cmp	r0, #0
 80028aa:	d001      	beq.n	80028b0 <HAL_TIM_Base_MspInit+0x48>
    {
      Error_Handler();
 80028ac:	f7ff fd7a 	bl	80023a4 <Error_Handler>
    }

    __HAL_LINKDMA(htim_base,hdma[TIM_DMA_ID_CC1],hdma_tim2_ch1);
 80028b0:	622c      	str	r4, [r5, #32]

    /* TIM2_CH3 Init */
    hdma_tim2_ch3.Instance = DMA1_Channel1;
 80028b2:	4b1e      	ldr	r3, [pc, #120]	; (800292c <HAL_TIM_Base_MspInit+0xc4>)
    __HAL_LINKDMA(htim_base,hdma[TIM_DMA_ID_CC1],hdma_tim2_ch1);
 80028b4:	62a5      	str	r5, [r4, #40]	; 0x28
    hdma_tim2_ch3.Instance = DMA1_Channel1;
 80028b6:	4c1e      	ldr	r4, [pc, #120]	; (8002930 <HAL_TIM_Base_MspInit+0xc8>)
    hdma_tim2_ch3.Init.Request = DMA_REQUEST_8;
    hdma_tim2_ch3.Init.Direction = DMA_MEMORY_TO_PERIPH;
    hdma_tim2_ch3.Init.PeriphInc = DMA_PINC_DISABLE;
    hdma_tim2_ch3.Init.MemInc = DMA_MINC_ENABLE;
 80028b8:	2280      	movs	r2, #128	; 0x80
    hdma_tim2_ch3.Instance = DMA1_Channel1;
 80028ba:	6023      	str	r3, [r4, #0]
    hdma_tim2_ch3.Init.Request = DMA_REQUEST_8;
 80028bc:	2308      	movs	r3, #8
 80028be:	6063      	str	r3, [r4, #4]
    hdma_tim2_ch3.Init.Direction = DMA_MEMORY_TO_PERIPH;
 80028c0:	18db      	adds	r3, r3, r3
 80028c2:	60a3      	str	r3, [r4, #8]
    hdma_tim2_ch3.Init.PeriphInc = DMA_PINC_DISABLE;
 80028c4:	2300      	movs	r3, #0
    hdma_tim2_ch3.Init.MemInc = DMA_MINC_ENABLE;
 80028c6:	6122      	str	r2, [r4, #16]
    hdma_tim2_ch3.Init.PeriphDataAlignment = DMA_PDATAALIGN_WORD;
 80028c8:	3281      	adds	r2, #129	; 0x81
 80028ca:	32ff      	adds	r2, #255	; 0xff
    hdma_tim2_ch3.Init.MemDataAlignment = DMA_MDATAALIGN_BYTE;
    hdma_tim2_ch3.Init.Mode = DMA_NORMAL;
    hdma_tim2_ch3.Init.Priority = DMA_PRIORITY_LOW;
    if (HAL_DMA_Init(&hdma_tim2_ch3) != HAL_OK)
 80028cc:	0020      	movs	r0, r4
    hdma_tim2_ch3.Init.PeriphInc = DMA_PINC_DISABLE;
 80028ce:	60e3      	str	r3, [r4, #12]
    hdma_tim2_ch3.Init.PeriphDataAlignment = DMA_PDATAALIGN_WORD;
 80028d0:	6162      	str	r2, [r4, #20]
    hdma_tim2_ch3.Init.MemDataAlignment = DMA_MDATAALIGN_BYTE;
 80028d2:	61a3      	str	r3, [r4, #24]
    hdma_tim2_ch3.Init.Mode = DMA_NORMAL;
 80028d4:	61e3      	str	r3, [r4, #28]
    hdma_tim2_ch3.Init.Priority = DMA_PRIORITY_LOW;
 80028d6:	6223      	str	r3, [r4, #32]
    if (HAL_DMA_Init(&hdma_tim2_ch3) != HAL_OK)
 80028d8:	f000 f9b8 	bl	8002c4c <HAL_DMA_Init>
 80028dc:	2800      	cmp	r0, #0
 80028de:	d001      	beq.n	80028e4 <HAL_TIM_Base_MspInit+0x7c>
    {
      Error_Handler();
 80028e0:	f7ff fd60 	bl	80023a4 <Error_Handler>
    }

    __HAL_LINKDMA(htim_base,hdma[TIM_DMA_ID_CC3],hdma_tim2_ch3);

    /* TIM2_CH4 Init */
    hdma_tim2_ch4.Instance = DMA1_Channel4;
 80028e4:	4b13      	ldr	r3, [pc, #76]	; (8002934 <HAL_TIM_Base_MspInit+0xcc>)
    __HAL_LINKDMA(htim_base,hdma[TIM_DMA_ID_CC3],hdma_tim2_ch3);
 80028e6:	62ac      	str	r4, [r5, #40]	; 0x28
 80028e8:	62a5      	str	r5, [r4, #40]	; 0x28
    hdma_tim2_ch4.Instance = DMA1_Channel4;
 80028ea:	4c13      	ldr	r4, [pc, #76]	; (8002938 <HAL_TIM_Base_MspInit+0xd0>)
    hdma_tim2_ch4.Init.Request = DMA_REQUEST_8;
    hdma_tim2_ch4.Init.Direction = DMA_MEMORY_TO_PERIPH;
    hdma_tim2_ch4.Init.PeriphInc = DMA_PINC_DISABLE;
    hdma_tim2_ch4.Init.MemInc = DMA_MINC_ENABLE;
 80028ec:	2280      	movs	r2, #128	; 0x80
    hdma_tim2_ch4.Instance = DMA1_Channel4;
 80028ee:	6023      	str	r3, [r4, #0]
    hdma_tim2_ch4.Init.Request = DMA_REQUEST_8;
 80028f0:	2308      	movs	r3, #8
 80028f2:	6063      	str	r3, [r4, #4]
    hdma_tim2_ch4.Init.Direction = DMA_MEMORY_TO_PERIPH;
 80028f4:	18db      	adds	r3, r3, r3
 80028f6:	60a3      	str	r3, [r4, #8]
    hdma_tim2_ch4.Init.PeriphInc = DMA_PINC_DISABLE;
 80028f8:	2300      	movs	r3, #0
    hdma_tim2_ch4.Init.MemInc = DMA_MINC_ENABLE;
 80028fa:	6122      	str	r2, [r4, #16]
    hdma_tim2_ch4.Init.PeriphDataAlignment = DMA_PDATAALIGN_WORD;
 80028fc:	3281      	adds	r2, #129	; 0x81
 80028fe:	32ff      	adds	r2, #255	; 0xff
    hdma_tim2_ch4.Init.MemDataAlignment = DMA_MDATAALIGN_BYTE;
    hdma_tim2_ch4.Init.Mode = DMA_NORMAL;
    hdma_tim2_ch4.Init.Priority = DMA_PRIORITY_LOW;
    if (HAL_DMA_Init(&hdma_tim2_ch4) != HAL_OK)
 8002900:	0020      	movs	r0, r4
    hdma_tim2_ch4.Init.PeriphInc = DMA_PINC_DISABLE;
 8002902:	60e3      	str	r3, [r4, #12]
    hdma_tim2_ch4.Init.PeriphDataAlignment = DMA_PDATAALIGN_WORD;
 8002904:	6162      	str	r2, [r4, #20]
    hdma_tim2_ch4.Init.MemDataAlignment = DMA_MDATAALIGN_BYTE;
 8002906:	61a3      	str	r3, [r4, #24]
    hdma_tim2_ch4.Init.Mode = DMA_NORMAL;
 8002908:	61e3      	str	r3, [r4, #28]
    hdma_tim2_ch4.Init.Priority = DMA_PRIORITY_LOW;
 800290a:	6223      	str	r3, [r4, #32]
    if (HAL_DMA_Init(&hdma_tim2_ch4) != HAL_OK)
 800290c:	f000 f99e 	bl	8002c4c <HAL_DMA_Init>
 8002910:	2800      	cmp	r0, #0
 8002912:	d001      	beq.n	8002918 <HAL_TIM_Base_MspInit+0xb0>
    {
      Error_Handler();
 8002914:	f7ff fd46 	bl	80023a4 <Error_Handler>
    }

    __HAL_LINKDMA(htim_base,hdma[TIM_DMA_ID_CC4],hdma_tim2_ch4);
 8002918:	62ec      	str	r4, [r5, #44]	; 0x2c
 800291a:	62a5      	str	r5, [r4, #40]	; 0x28
  /* USER CODE BEGIN TIM2_MspInit 1 */

  /* USER CODE END TIM2_MspInit 1 */
  }

}
 800291c:	bd70      	pop	{r4, r5, r6, pc}
 800291e:	46c0      	nop			; (mov r8, r8)
 8002920:	40021000 	.word	0x40021000
 8002924:	200002b8 	.word	0x200002b8
 8002928:	40020058 	.word	0x40020058
 800292c:	40020008 	.word	0x40020008
 8002930:	20000300 	.word	0x20000300
 8002934:	40020044 	.word	0x40020044
 8002938:	20000348 	.word	0x20000348

0800293c <HAL_TIM_MspPostInit>:

void HAL_TIM_MspPostInit(TIM_HandleTypeDef* htim)
{
 800293c:	b510      	push	{r4, lr}
 800293e:	0004      	movs	r4, r0
 8002940:	b086      	sub	sp, #24
  GPIO_InitTypeDef GPIO_InitStruct = {0};
 8002942:	2214      	movs	r2, #20
 8002944:	2100      	movs	r1, #0
 8002946:	a801      	add	r0, sp, #4
 8002948:	f002 fc4b 	bl	80051e2 <memset>
  if(htim->Instance==TIM2)
 800294c:	2380      	movs	r3, #128	; 0x80
 800294e:	6822      	ldr	r2, [r4, #0]
 8002950:	05db      	lsls	r3, r3, #23
 8002952:	429a      	cmp	r2, r3
 8002954:	d111      	bne.n	800297a <HAL_TIM_MspPostInit+0x3e>
  {
  /* USER CODE BEGIN TIM2_MspPostInit 0 */

  /* USER CODE END TIM2_MspPostInit 0 */

    __HAL_RCC_GPIOE_CLK_ENABLE();
 8002956:	2110      	movs	r1, #16
 8002958:	4b09      	ldr	r3, [pc, #36]	; (8002980 <HAL_TIM_MspPostInit+0x44>)
    GPIO_InitStruct.Pin = NEOPIX_STARS_Pin|NEOPIX_ROCKET_L_Pin|NEOPIX_ROCKET_R_Pin;
    GPIO_InitStruct.Mode = GPIO_MODE_AF_PP;
    GPIO_InitStruct.Pull = GPIO_NOPULL;
    GPIO_InitStruct.Speed = GPIO_SPEED_FREQ_LOW;
    GPIO_InitStruct.Alternate = GPIO_AF0_TIM2;
    HAL_GPIO_Init(GPIOE, &GPIO_InitStruct);
 800295a:	480a      	ldr	r0, [pc, #40]	; (8002984 <HAL_TIM_MspPostInit+0x48>)
    __HAL_RCC_GPIOE_CLK_ENABLE();
 800295c:	6ada      	ldr	r2, [r3, #44]	; 0x2c
 800295e:	430a      	orrs	r2, r1
 8002960:	62da      	str	r2, [r3, #44]	; 0x2c
 8002962:	6adb      	ldr	r3, [r3, #44]	; 0x2c
 8002964:	400b      	ands	r3, r1
 8002966:	9300      	str	r3, [sp, #0]
 8002968:	9b00      	ldr	r3, [sp, #0]
    GPIO_InitStruct.Pin = NEOPIX_STARS_Pin|NEOPIX_ROCKET_L_Pin|NEOPIX_ROCKET_R_Pin;
 800296a:	23d0      	movs	r3, #208	; 0xd0
 800296c:	015b      	lsls	r3, r3, #5
 800296e:	9301      	str	r3, [sp, #4]
    GPIO_InitStruct.Mode = GPIO_MODE_AF_PP;
 8002970:	2302      	movs	r3, #2
    HAL_GPIO_Init(GPIOE, &GPIO_InitStruct);
 8002972:	a901      	add	r1, sp, #4
    GPIO_InitStruct.Mode = GPIO_MODE_AF_PP;
 8002974:	9302      	str	r3, [sp, #8]
    HAL_GPIO_Init(GPIOE, &GPIO_InitStruct);
 8002976:	f000 fa39 	bl	8002dec <HAL_GPIO_Init>
  /* USER CODE BEGIN TIM2_MspPostInit 1 */

  /* USER CODE END TIM2_MspPostInit 1 */
  }

}
 800297a:	b006      	add	sp, #24
 800297c:	bd10      	pop	{r4, pc}
 800297e:	46c0      	nop			; (mov r8, r8)
 8002980:	40021000 	.word	0x40021000
 8002984:	50001000 	.word	0x50001000

08002988 <NMI_Handler>:

  /* USER CODE END NonMaskableInt_IRQn 0 */
  /* USER CODE BEGIN NonMaskableInt_IRQn 1 */

  /* USER CODE END NonMaskableInt_IRQn 1 */
}
 8002988:	4770      	bx	lr

0800298a <HardFault_Handler>:
void HardFault_Handler(void)
{
  /* USER CODE BEGIN HardFault_IRQn 0 */

  /* USER CODE END HardFault_IRQn 0 */
  while (1)
 800298a:	e7fe      	b.n	800298a <HardFault_Handler>

0800298c <SVC_Handler>:
 800298c:	4770      	bx	lr

0800298e <PendSV_Handler>:
 800298e:	4770      	bx	lr

08002990 <SysTick_Handler>:

/**
  * @brief This function handles System tick timer.
  */
void SysTick_Handler(void)
{
 8002990:	b510      	push	{r4, lr}
  /* USER CODE BEGIN SysTick_IRQn 0 */

  /* USER CODE END SysTick_IRQn 0 */
  HAL_IncTick();
 8002992:	f000 f8e7 	bl	8002b64 <HAL_IncTick>
  /* USER CODE BEGIN SysTick_IRQn 1 */

  /* USER CODE END SysTick_IRQn 1 */
}
 8002996:	bd10      	pop	{r4, pc}

08002998 <DMA1_Channel1_IRQHandler>:

/**
  * @brief This function handles DMA1 channel 1 interrupt.
  */
void DMA1_Channel1_IRQHandler(void)
{
 8002998:	b510      	push	{r4, lr}
  /* USER CODE BEGIN DMA1_Channel1_IRQn 0 */

  /* USER CODE END DMA1_Channel1_IRQn 0 */
  HAL_DMA_IRQHandler(&hdma_tim2_ch3);
 800299a:	4802      	ldr	r0, [pc, #8]	; (80029a4 <DMA1_Channel1_IRQHandler+0xc>)
 800299c:	f000 f9da 	bl	8002d54 <HAL_DMA_IRQHandler>
  /* USER CODE BEGIN DMA1_Channel1_IRQn 1 */

  /* USER CODE END DMA1_Channel1_IRQn 1 */
}
 80029a0:	bd10      	pop	{r4, pc}
 80029a2:	46c0      	nop			; (mov r8, r8)
 80029a4:	20000300 	.word	0x20000300

080029a8 <DMA1_Channel2_3_IRQHandler>:

/**
  * @brief This function handles DMA1 channel 2 and channel 3 interrupts.
  */
void DMA1_Channel2_3_IRQHandler(void)
{
 80029a8:	b510      	push	{r4, lr}
  /* USER CODE BEGIN DMA1_Channel2_3_IRQn 0 */

  /* USER CODE END DMA1_Channel2_3_IRQn 0 */
  HAL_DMA_IRQHandler(&hdma_spi1_rx);
 80029aa:	4803      	ldr	r0, [pc, #12]	; (80029b8 <DMA1_Channel2_3_IRQHandler+0x10>)
 80029ac:	f000 f9d2 	bl	8002d54 <HAL_DMA_IRQHandler>
  HAL_DMA_IRQHandler(&hdma_spi1_tx);
 80029b0:	4802      	ldr	r0, [pc, #8]	; (80029bc <DMA1_Channel2_3_IRQHandler+0x14>)
 80029b2:	f000 f9cf 	bl	8002d54 <HAL_DMA_IRQHandler>
  /* USER CODE BEGIN DMA1_Channel2_3_IRQn 1 */

  /* USER CODE END DMA1_Channel2_3_IRQn 1 */
}
 80029b6:	bd10      	pop	{r4, pc}
 80029b8:	200001e8 	.word	0x200001e8
 80029bc:	20000230 	.word	0x20000230

080029c0 <DMA1_Channel4_5_6_7_IRQHandler>:

/**
  * @brief This function handles DMA1 channel 4, channel 5, channel 6 and channel 7 interrupts.
  */
void DMA1_Channel4_5_6_7_IRQHandler(void)
{
 80029c0:	b510      	push	{r4, lr}
  /* USER CODE BEGIN DMA1_Channel4_5_6_7_IRQn 0 */

  /* USER CODE END DMA1_Channel4_5_6_7_IRQn 0 */
  HAL_DMA_IRQHandler(&hdma_tim2_ch4);
 80029c2:	4805      	ldr	r0, [pc, #20]	; (80029d8 <DMA1_Channel4_5_6_7_IRQHandler+0x18>)
 80029c4:	f000 f9c6 	bl	8002d54 <HAL_DMA_IRQHandler>
  HAL_DMA_IRQHandler(&hdma_tim2_ch1);
 80029c8:	4804      	ldr	r0, [pc, #16]	; (80029dc <DMA1_Channel4_5_6_7_IRQHandler+0x1c>)
 80029ca:	f000 f9c3 	bl	8002d54 <HAL_DMA_IRQHandler>
  HAL_DMA_IRQHandler(&hdma_spi2_tx);
 80029ce:	4804      	ldr	r0, [pc, #16]	; (80029e0 <DMA1_Channel4_5_6_7_IRQHandler+0x20>)
 80029d0:	f000 f9c0 	bl	8002d54 <HAL_DMA_IRQHandler>
  /* USER CODE BEGIN DMA1_Channel4_5_6_7_IRQn 1 */

  /* USER CODE END DMA1_Channel4_5_6_7_IRQn 1 */
}
 80029d4:	bd10      	pop	{r4, pc}
 80029d6:	46c0      	nop			; (mov r8, r8)
 80029d8:	20000348 	.word	0x20000348
 80029dc:	200002b8 	.word	0x200002b8
 80029e0:	20000148 	.word	0x20000148

080029e4 <_getpid>:
}

int _getpid(void)
{
	return 1;
}
 80029e4:	2001      	movs	r0, #1
 80029e6:	4770      	bx	lr

080029e8 <_kill>:

int _kill(int pid, int sig)
{
 80029e8:	b510      	push	{r4, lr}
	errno = EINVAL;
 80029ea:	f002 fc5f 	bl	80052ac <__errno>
 80029ee:	2316      	movs	r3, #22
 80029f0:	6003      	str	r3, [r0, #0]
	return -1;
 80029f2:	2001      	movs	r0, #1
}
 80029f4:	4240      	negs	r0, r0
 80029f6:	bd10      	pop	{r4, pc}

080029f8 <_exit>:

void _exit (int status)
{
 80029f8:	b510      	push	{r4, lr}
	errno = EINVAL;
 80029fa:	f002 fc57 	bl	80052ac <__errno>
 80029fe:	2316      	movs	r3, #22
 8002a00:	6003      	str	r3, [r0, #0]
	_kill(status, -1);
	while (1) {}		/* Make sure we hang here */
 8002a02:	e7fe      	b.n	8002a02 <_exit+0xa>

08002a04 <_sbrk>:
void *_sbrk(ptrdiff_t incr)
{
  extern uint8_t _end; /* Symbol defined in the linker script */
  extern uint8_t _estack; /* Symbol defined in the linker script */
  extern uint32_t _Min_Stack_Size; /* Symbol defined in the linker script */
  const uint32_t stack_limit = (uint32_t)&_estack - (uint32_t)&_Min_Stack_Size;
 8002a04:	490b      	ldr	r1, [pc, #44]	; (8002a34 <_sbrk+0x30>)
 8002a06:	4a0c      	ldr	r2, [pc, #48]	; (8002a38 <_sbrk+0x34>)
{
 8002a08:	0003      	movs	r3, r0
  const uint32_t stack_limit = (uint32_t)&_estack - (uint32_t)&_Min_Stack_Size;
 8002a0a:	1a52      	subs	r2, r2, r1
  const uint8_t *max_heap = (uint8_t *)stack_limit;
  uint8_t *prev_heap_end;

  /* Initalize heap end at first call */
  if (NULL == __sbrk_heap_end)
 8002a0c:	490b      	ldr	r1, [pc, #44]	; (8002a3c <_sbrk+0x38>)
{
 8002a0e:	b510      	push	{r4, lr}
  if (NULL == __sbrk_heap_end)
 8002a10:	6808      	ldr	r0, [r1, #0]
 8002a12:	2800      	cmp	r0, #0
 8002a14:	d101      	bne.n	8002a1a <_sbrk+0x16>
  {
    __sbrk_heap_end = &_end;
 8002a16:	480a      	ldr	r0, [pc, #40]	; (8002a40 <_sbrk+0x3c>)
 8002a18:	6008      	str	r0, [r1, #0]
  }

  /* Protect heap from growing into the reserved MSP stack */
  if (__sbrk_heap_end + incr > max_heap)
 8002a1a:	6808      	ldr	r0, [r1, #0]
 8002a1c:	18c3      	adds	r3, r0, r3
 8002a1e:	4293      	cmp	r3, r2
 8002a20:	d906      	bls.n	8002a30 <_sbrk+0x2c>
  {
    errno = ENOMEM;
 8002a22:	f002 fc43 	bl	80052ac <__errno>
 8002a26:	230c      	movs	r3, #12
 8002a28:	6003      	str	r3, [r0, #0]
    return (void *)-1;
 8002a2a:	2001      	movs	r0, #1
 8002a2c:	4240      	negs	r0, r0

  prev_heap_end = __sbrk_heap_end;
  __sbrk_heap_end += incr;

  return (void *)prev_heap_end;
}
 8002a2e:	bd10      	pop	{r4, pc}
  __sbrk_heap_end += incr;
 8002a30:	600b      	str	r3, [r1, #0]
  return (void *)prev_heap_end;
 8002a32:	e7fc      	b.n	8002a2e <_sbrk+0x2a>
 8002a34:	00000400 	.word	0x00000400
 8002a38:	20005000 	.word	0x20005000
 8002a3c:	20000c8c 	.word	0x20000c8c
 8002a40:	20000e00 	.word	0x20000e00

08002a44 <SystemInit>:
  * @retval None
  */
void SystemInit (void)
{
/*!< Set MSION bit */
  RCC->CR |= (uint32_t)0x00000100U;
 8002a44:	2280      	movs	r2, #128	; 0x80
 8002a46:	4b10      	ldr	r3, [pc, #64]	; (8002a88 <SystemInit+0x44>)
 8002a48:	0052      	lsls	r2, r2, #1
 8002a4a:	6819      	ldr	r1, [r3, #0]
 8002a4c:	430a      	orrs	r2, r1
 8002a4e:	601a      	str	r2, [r3, #0]

  /*!< Reset SW[1:0], HPRE[3:0], PPRE1[2:0], PPRE2[2:0], MCOSEL[2:0] and MCOPRE[2:0] bits */
  RCC->CFGR &= (uint32_t) 0x88FF400CU;
 8002a50:	68da      	ldr	r2, [r3, #12]
 8002a52:	490e      	ldr	r1, [pc, #56]	; (8002a8c <SystemInit+0x48>)
 8002a54:	400a      	ands	r2, r1
 8002a56:	60da      	str	r2, [r3, #12]

  /*!< Reset HSION, HSIDIVEN, HSEON, CSSON and PLLON bits */
  RCC->CR &= (uint32_t)0xFEF6FFF6U;
 8002a58:	681a      	ldr	r2, [r3, #0]
 8002a5a:	490d      	ldr	r1, [pc, #52]	; (8002a90 <SystemInit+0x4c>)
 8002a5c:	400a      	ands	r2, r1

  /*!< Reset HSI48ON  bit */
  RCC->CRRCR &= (uint32_t)0xFFFFFFFEU;
 8002a5e:	2101      	movs	r1, #1
  RCC->CR &= (uint32_t)0xFEF6FFF6U;
 8002a60:	601a      	str	r2, [r3, #0]
  RCC->CRRCR &= (uint32_t)0xFFFFFFFEU;
 8002a62:	689a      	ldr	r2, [r3, #8]
 8002a64:	438a      	bics	r2, r1
 8002a66:	609a      	str	r2, [r3, #8]

  /*!< Reset HSEBYP bit */
  RCC->CR &= (uint32_t)0xFFFBFFFFU;
 8002a68:	681a      	ldr	r2, [r3, #0]
 8002a6a:	490a      	ldr	r1, [pc, #40]	; (8002a94 <SystemInit+0x50>)
 8002a6c:	400a      	ands	r2, r1
 8002a6e:	601a      	str	r2, [r3, #0]

  /*!< Reset PLLSRC, PLLMUL[3:0] and PLLDIV[1:0] bits */
  RCC->CFGR &= (uint32_t)0xFF02FFFFU;
 8002a70:	68da      	ldr	r2, [r3, #12]
 8002a72:	4909      	ldr	r1, [pc, #36]	; (8002a98 <SystemInit+0x54>)
 8002a74:	400a      	ands	r2, r1
 8002a76:	60da      	str	r2, [r3, #12]

  /*!< Disable all interrupts */
  RCC->CIER = 0x00000000U;
 8002a78:	2200      	movs	r2, #0
 8002a7a:	611a      	str	r2, [r3, #16]

  /* Configure the Vector Table location add offset address ------------------*/
#ifdef VECT_TAB_SRAM
  SCB->VTOR = SRAM_BASE | VECT_TAB_OFFSET; /* Vector Table Relocation in Internal SRAM */
#else
  SCB->VTOR = FLASH_BASE | VECT_TAB_OFFSET; /* Vector Table Relocation in Internal FLASH */
 8002a7c:	2280      	movs	r2, #128	; 0x80
 8002a7e:	4b07      	ldr	r3, [pc, #28]	; (8002a9c <SystemInit+0x58>)
 8002a80:	0512      	lsls	r2, r2, #20
 8002a82:	609a      	str	r2, [r3, #8]
#endif
}
 8002a84:	4770      	bx	lr
 8002a86:	46c0      	nop			; (mov r8, r8)
 8002a88:	40021000 	.word	0x40021000
 8002a8c:	88ff400c 	.word	0x88ff400c
 8002a90:	fef6fff6 	.word	0xfef6fff6
 8002a94:	fffbffff 	.word	0xfffbffff
 8002a98:	ff02ffff 	.word	0xff02ffff
 8002a9c:	e000ed00 	.word	0xe000ed00

08002aa0 <Reset_Handler>:

    .section  .text.Reset_Handler
  .weak  Reset_Handler
  .type  Reset_Handler, %function
Reset_Handler:  
   ldr   r0, =_estack
 8002aa0:	480d      	ldr	r0, [pc, #52]	; (8002ad8 <LoopForever+0x2>)
   mov   sp, r0          /* set stack pointer */
 8002aa2:	4685      	mov	sp, r0

/* Copy the data segment initializers from flash to SRAM */
  movs  r1, #0
 8002aa4:	2100      	movs	r1, #0
  b  LoopCopyDataInit
 8002aa6:	e003      	b.n	8002ab0 <LoopCopyDataInit>

08002aa8 <CopyDataInit>:

CopyDataInit:
  ldr  r3, =_sidata
 8002aa8:	4b0c      	ldr	r3, [pc, #48]	; (8002adc <LoopForever+0x6>)
  ldr  r3, [r3, r1]
 8002aaa:	585b      	ldr	r3, [r3, r1]
  str  r3, [r0, r1]
 8002aac:	5043      	str	r3, [r0, r1]
  adds  r1, r1, #4
 8002aae:	3104      	adds	r1, #4

08002ab0 <LoopCopyDataInit>:

LoopCopyDataInit:
  ldr  r0, =_sdata
 8002ab0:	480b      	ldr	r0, [pc, #44]	; (8002ae0 <LoopForever+0xa>)
  ldr  r3, =_edata
 8002ab2:	4b0c      	ldr	r3, [pc, #48]	; (8002ae4 <LoopForever+0xe>)
  adds  r2, r0, r1
 8002ab4:	1842      	adds	r2, r0, r1
  cmp  r2, r3
 8002ab6:	429a      	cmp	r2, r3
  bcc  CopyDataInit
 8002ab8:	d3f6      	bcc.n	8002aa8 <CopyDataInit>
  ldr  r2, =_sbss
 8002aba:	4a0b      	ldr	r2, [pc, #44]	; (8002ae8 <LoopForever+0x12>)
  b  LoopFillZerobss
 8002abc:	e002      	b.n	8002ac4 <LoopFillZerobss>

08002abe <FillZerobss>:
/* Zero fill the bss segment. */
FillZerobss:
  movs  r3, #0
 8002abe:	2300      	movs	r3, #0
  str  r3, [r2]
 8002ac0:	6013      	str	r3, [r2, #0]
  adds r2, r2, #4
 8002ac2:	3204      	adds	r2, #4

08002ac4 <LoopFillZerobss>:


LoopFillZerobss:
  ldr  r3, = _ebss
 8002ac4:	4b09      	ldr	r3, [pc, #36]	; (8002aec <LoopForever+0x16>)
  cmp  r2, r3
 8002ac6:	429a      	cmp	r2, r3
  bcc  FillZerobss
 8002ac8:	d3f9      	bcc.n	8002abe <FillZerobss>

/* Call the clock system intitialization function.*/
  bl  SystemInit
 8002aca:	f7ff ffbb 	bl	8002a44 <SystemInit>
/* Call static constructors */
    bl __libc_init_array
 8002ace:	f002 fbf3 	bl	80052b8 <__libc_init_array>
/* Call the application's entry point.*/
  bl  main
 8002ad2:	f7ff f861 	bl	8001b98 <main>

08002ad6 <LoopForever>:

LoopForever:
    b LoopForever
 8002ad6:	e7fe      	b.n	8002ad6 <LoopForever>
   ldr   r0, =_estack
 8002ad8:	20005000 	.word	0x20005000
  ldr  r3, =_sidata
 8002adc:	08005460 	.word	0x08005460
  ldr  r0, =_sdata
 8002ae0:	20000000 	.word	0x20000000
  ldr  r3, =_edata
 8002ae4:	200000f0 	.word	0x200000f0
  ldr  r2, =_sbss
 8002ae8:	200000f0 	.word	0x200000f0
  ldr  r3, = _ebss
 8002aec:	20000dfc 	.word	0x20000dfc

08002af0 <ADC1_COMP_IRQHandler>:
 * @retval : None
*/
    .section  .text.Default_Handler,"ax",%progbits
Default_Handler:
Infinite_Loop:
  b  Infinite_Loop
 8002af0:	e7fe      	b.n	8002af0 <ADC1_COMP_IRQHandler>
	...

08002af4 <HAL_InitTick>:
  *       implementation  in user file.
  * @param TickPriority Tick interrupt priority.
  * @retval HAL status
  */
__weak HAL_StatusTypeDef HAL_InitTick(uint32_t TickPriority)
{
 8002af4:	b570      	push	{r4, r5, r6, lr}
 8002af6:	0005      	movs	r5, r0
  /* Configure the SysTick to have interrupt in 1ms time basis*/
  if (HAL_SYSTICK_Config(SystemCoreClock / (1000U / uwTickFreq)) > 0U)
 8002af8:	20fa      	movs	r0, #250	; 0xfa
 8002afa:	4b0d      	ldr	r3, [pc, #52]	; (8002b30 <HAL_InitTick+0x3c>)
 8002afc:	0080      	lsls	r0, r0, #2
 8002afe:	7819      	ldrb	r1, [r3, #0]
 8002b00:	f7fd fb02 	bl	8000108 <__udivsi3>
 8002b04:	4c0b      	ldr	r4, [pc, #44]	; (8002b34 <HAL_InitTick+0x40>)
 8002b06:	0001      	movs	r1, r0
 8002b08:	6820      	ldr	r0, [r4, #0]
 8002b0a:	f7fd fafd 	bl	8000108 <__udivsi3>
 8002b0e:	f000 f883 	bl	8002c18 <HAL_SYSTICK_Config>
 8002b12:	0004      	movs	r4, r0
  {
    return HAL_ERROR;
 8002b14:	2001      	movs	r0, #1
  if (HAL_SYSTICK_Config(SystemCoreClock / (1000U / uwTickFreq)) > 0U)
 8002b16:	2c00      	cmp	r4, #0
 8002b18:	d109      	bne.n	8002b2e <HAL_InitTick+0x3a>
  }

  /* Configure the SysTick IRQ priority */
  if (TickPriority < (1UL << __NVIC_PRIO_BITS))
 8002b1a:	2d03      	cmp	r5, #3
 8002b1c:	d807      	bhi.n	8002b2e <HAL_InitTick+0x3a>
  {
    HAL_NVIC_SetPriority(SysTick_IRQn, TickPriority, 0U);
 8002b1e:	3802      	subs	r0, #2
 8002b20:	0022      	movs	r2, r4
 8002b22:	0029      	movs	r1, r5
 8002b24:	f000 f842 	bl	8002bac <HAL_NVIC_SetPriority>
    uwTickPrio = TickPriority;
 8002b28:	0020      	movs	r0, r4
 8002b2a:	4b03      	ldr	r3, [pc, #12]	; (8002b38 <HAL_InitTick+0x44>)
 8002b2c:	601d      	str	r5, [r3, #0]
    return HAL_ERROR;
  }

  /* Return function status */
  return HAL_OK;
}
 8002b2e:	bd70      	pop	{r4, r5, r6, pc}
 8002b30:	20000098 	.word	0x20000098
 8002b34:	20000094 	.word	0x20000094
 8002b38:	2000009c 	.word	0x2000009c

08002b3c <HAL_Init>:
  __HAL_FLASH_PREREAD_BUFFER_ENABLE();
 8002b3c:	2340      	movs	r3, #64	; 0x40
 8002b3e:	4a08      	ldr	r2, [pc, #32]	; (8002b60 <HAL_Init+0x24>)
{
 8002b40:	b510      	push	{r4, lr}
  __HAL_FLASH_PREREAD_BUFFER_ENABLE();
 8002b42:	6811      	ldr	r1, [r2, #0]
  if (HAL_InitTick(TICK_INT_PRIORITY) != HAL_OK)
 8002b44:	2000      	movs	r0, #0
  __HAL_FLASH_PREREAD_BUFFER_ENABLE();
 8002b46:	430b      	orrs	r3, r1
 8002b48:	6013      	str	r3, [r2, #0]
  if (HAL_InitTick(TICK_INT_PRIORITY) != HAL_OK)
 8002b4a:	f7ff ffd3 	bl	8002af4 <HAL_InitTick>
 8002b4e:	1e04      	subs	r4, r0, #0
 8002b50:	d103      	bne.n	8002b5a <HAL_Init+0x1e>
    HAL_MspInit();
 8002b52:	f7ff fdb7 	bl	80026c4 <HAL_MspInit>
}
 8002b56:	0020      	movs	r0, r4
 8002b58:	bd10      	pop	{r4, pc}
    status = HAL_ERROR;
 8002b5a:	2401      	movs	r4, #1
 8002b5c:	e7fb      	b.n	8002b56 <HAL_Init+0x1a>
 8002b5e:	46c0      	nop			; (mov r8, r8)
 8002b60:	40022000 	.word	0x40022000

08002b64 <HAL_IncTick>:
  *      implementations in user file.
  * @retval None
  */
__weak void HAL_IncTick(void)
{
  uwTick += uwTickFreq;
 8002b64:	4a03      	ldr	r2, [pc, #12]	; (8002b74 <HAL_IncTick+0x10>)
 8002b66:	4b04      	ldr	r3, [pc, #16]	; (8002b78 <HAL_IncTick+0x14>)
 8002b68:	6811      	ldr	r1, [r2, #0]
 8002b6a:	781b      	ldrb	r3, [r3, #0]
 8002b6c:	185b      	adds	r3, r3, r1
 8002b6e:	6013      	str	r3, [r2, #0]
}
 8002b70:	4770      	bx	lr
 8002b72:	46c0      	nop			; (mov r8, r8)
 8002b74:	20000c90 	.word	0x20000c90
 8002b78:	20000098 	.word	0x20000098

08002b7c <HAL_GetTick>:
  *       implementations in user file.
  * @retval tick value
  */
__weak uint32_t HAL_GetTick(void)
{
  return uwTick;
 8002b7c:	4b01      	ldr	r3, [pc, #4]	; (8002b84 <HAL_GetTick+0x8>)
 8002b7e:	6818      	ldr	r0, [r3, #0]
}
 8002b80:	4770      	bx	lr
 8002b82:	46c0      	nop			; (mov r8, r8)
 8002b84:	20000c90 	.word	0x20000c90

08002b88 <HAL_Delay>:
  *       implementations in user file.
  * @param Delay specifies the delay time length, in milliseconds.
  * @retval None
  */
__weak void HAL_Delay(uint32_t Delay)
{
 8002b88:	b570      	push	{r4, r5, r6, lr}
 8002b8a:	0004      	movs	r4, r0
  uint32_t tickstart = HAL_GetTick();
 8002b8c:	f7ff fff6 	bl	8002b7c <HAL_GetTick>
 8002b90:	0005      	movs	r5, r0
  uint32_t wait = Delay;

  /* Add a freq to guarantee minimum wait */
  if (wait < HAL_MAX_DELAY)
 8002b92:	1c63      	adds	r3, r4, #1
 8002b94:	d002      	beq.n	8002b9c <HAL_Delay+0x14>
  {
    wait += (uint32_t)(uwTickFreq);
 8002b96:	4b04      	ldr	r3, [pc, #16]	; (8002ba8 <HAL_Delay+0x20>)
 8002b98:	781b      	ldrb	r3, [r3, #0]
 8002b9a:	18e4      	adds	r4, r4, r3
  }

  while((HAL_GetTick() - tickstart) < wait)
 8002b9c:	f7ff ffee 	bl	8002b7c <HAL_GetTick>
 8002ba0:	1b40      	subs	r0, r0, r5
 8002ba2:	42a0      	cmp	r0, r4
 8002ba4:	d3fa      	bcc.n	8002b9c <HAL_Delay+0x14>
  {
  }
}
 8002ba6:	bd70      	pop	{r4, r5, r6, pc}
 8002ba8:	20000098 	.word	0x20000098

08002bac <HAL_NVIC_SetPriority>:
  *         with stm32l0xx devices, this parameter is a dummy value and it is ignored, because 
  *         no subpriority supported in Cortex M0+ based products.   
  * @retval None
  */
void HAL_NVIC_SetPriority(IRQn_Type IRQn, uint32_t PreemptPriority, uint32_t SubPriority)
{ 
 8002bac:	b530      	push	{r4, r5, lr}
 */
__STATIC_INLINE void __NVIC_SetPriority(IRQn_Type IRQn, uint32_t priority)
{
  if ((int32_t)(IRQn) >= 0)
  {
    NVIC->IP[_IP_IDX(IRQn)]  = ((uint32_t)(NVIC->IP[_IP_IDX(IRQn)]  & ~(0xFFUL << _BIT_SHIFT(IRQn))) |
 8002bae:	25ff      	movs	r5, #255	; 0xff
 8002bb0:	2403      	movs	r4, #3
 8002bb2:	002a      	movs	r2, r5
 8002bb4:	4004      	ands	r4, r0
 8002bb6:	00e4      	lsls	r4, r4, #3
 8002bb8:	40a2      	lsls	r2, r4
       (((priority << (8U - __NVIC_PRIO_BITS)) & (uint32_t)0xFFUL) << _BIT_SHIFT(IRQn)));
 8002bba:	0189      	lsls	r1, r1, #6
 8002bbc:	4029      	ands	r1, r5
    NVIC->IP[_IP_IDX(IRQn)]  = ((uint32_t)(NVIC->IP[_IP_IDX(IRQn)]  & ~(0xFFUL << _BIT_SHIFT(IRQn))) |
 8002bbe:	43d2      	mvns	r2, r2
       (((priority << (8U - __NVIC_PRIO_BITS)) & (uint32_t)0xFFUL) << _BIT_SHIFT(IRQn)));
 8002bc0:	40a1      	lsls	r1, r4
    NVIC->IP[_IP_IDX(IRQn)]  = ((uint32_t)(NVIC->IP[_IP_IDX(IRQn)]  & ~(0xFFUL << _BIT_SHIFT(IRQn))) |
 8002bc2:	b2c3      	uxtb	r3, r0
  if ((int32_t)(IRQn) >= 0)
 8002bc4:	2800      	cmp	r0, #0
 8002bc6:	db0a      	blt.n	8002bde <HAL_NVIC_SetPriority+0x32>
    NVIC->IP[_IP_IDX(IRQn)]  = ((uint32_t)(NVIC->IP[_IP_IDX(IRQn)]  & ~(0xFFUL << _BIT_SHIFT(IRQn))) |
 8002bc8:	24c0      	movs	r4, #192	; 0xc0
 8002bca:	4b0b      	ldr	r3, [pc, #44]	; (8002bf8 <HAL_NVIC_SetPriority+0x4c>)
 8002bcc:	0880      	lsrs	r0, r0, #2
 8002bce:	0080      	lsls	r0, r0, #2
 8002bd0:	18c0      	adds	r0, r0, r3
 8002bd2:	00a4      	lsls	r4, r4, #2
 8002bd4:	5903      	ldr	r3, [r0, r4]
 8002bd6:	4013      	ands	r3, r2
 8002bd8:	430b      	orrs	r3, r1
 8002bda:	5103      	str	r3, [r0, r4]
    /* Check the parameters */
  assert_param(IS_NVIC_PREEMPTION_PRIORITY(PreemptPriority));
  NVIC_SetPriority(IRQn,PreemptPriority);
}
 8002bdc:	bd30      	pop	{r4, r5, pc}
  }
  else
  {
    SCB->SHP[_SHP_IDX(IRQn)] = ((uint32_t)(SCB->SHP[_SHP_IDX(IRQn)] & ~(0xFFUL << _BIT_SHIFT(IRQn))) |
 8002bde:	200f      	movs	r0, #15
 8002be0:	4003      	ands	r3, r0
 8002be2:	3b08      	subs	r3, #8
 8002be4:	4805      	ldr	r0, [pc, #20]	; (8002bfc <HAL_NVIC_SetPriority+0x50>)
 8002be6:	089b      	lsrs	r3, r3, #2
 8002be8:	009b      	lsls	r3, r3, #2
 8002bea:	181b      	adds	r3, r3, r0
 8002bec:	69d8      	ldr	r0, [r3, #28]
 8002bee:	4002      	ands	r2, r0
 8002bf0:	430a      	orrs	r2, r1
 8002bf2:	61da      	str	r2, [r3, #28]
 8002bf4:	e7f2      	b.n	8002bdc <HAL_NVIC_SetPriority+0x30>
 8002bf6:	46c0      	nop			; (mov r8, r8)
 8002bf8:	e000e100 	.word	0xe000e100
 8002bfc:	e000ed00 	.word	0xe000ed00

08002c00 <HAL_NVIC_EnableIRQ>:
  if ((int32_t)(IRQn) >= 0)
 8002c00:	2800      	cmp	r0, #0
 8002c02:	db05      	blt.n	8002c10 <HAL_NVIC_EnableIRQ+0x10>
    NVIC->ISER[0U] = (uint32_t)(1UL << (((uint32_t)IRQn) & 0x1FUL));
 8002c04:	231f      	movs	r3, #31
 8002c06:	4018      	ands	r0, r3
 8002c08:	3b1e      	subs	r3, #30
 8002c0a:	4083      	lsls	r3, r0
 8002c0c:	4a01      	ldr	r2, [pc, #4]	; (8002c14 <HAL_NVIC_EnableIRQ+0x14>)
 8002c0e:	6013      	str	r3, [r2, #0]
  /* Check the parameters */
  assert_param(IS_NVIC_DEVICE_IRQ(IRQn));
  
  /* Enable interrupt */
  NVIC_EnableIRQ(IRQn);
}
 8002c10:	4770      	bx	lr
 8002c12:	46c0      	nop			; (mov r8, r8)
 8002c14:	e000e100 	.word	0xe000e100

08002c18 <HAL_SYSTICK_Config>:
           function <b>SysTick_Config</b> is not included. In this case, the file <b><i>device</i>.h</b>
           must contain a vendor-specific implementation of this function.
 */
__STATIC_INLINE uint32_t SysTick_Config(uint32_t ticks)
{
  if ((ticks - 1UL) > SysTick_LOAD_RELOAD_Msk)
 8002c18:	2280      	movs	r2, #128	; 0x80
 8002c1a:	1e43      	subs	r3, r0, #1
 8002c1c:	0452      	lsls	r2, r2, #17
  {
    return (1UL);                                                   /* Reload value impossible */
 8002c1e:	2001      	movs	r0, #1
  if ((ticks - 1UL) > SysTick_LOAD_RELOAD_Msk)
 8002c20:	4293      	cmp	r3, r2
 8002c22:	d20d      	bcs.n	8002c40 <HAL_SYSTICK_Config+0x28>
    SCB->SHP[_SHP_IDX(IRQn)] = ((uint32_t)(SCB->SHP[_SHP_IDX(IRQn)] & ~(0xFFUL << _BIT_SHIFT(IRQn))) |
 8002c24:	21c0      	movs	r1, #192	; 0xc0
  }

  SysTick->LOAD  = (uint32_t)(ticks - 1UL);                         /* set reload register */
 8002c26:	4a07      	ldr	r2, [pc, #28]	; (8002c44 <HAL_SYSTICK_Config+0x2c>)
    SCB->SHP[_SHP_IDX(IRQn)] = ((uint32_t)(SCB->SHP[_SHP_IDX(IRQn)] & ~(0xFFUL << _BIT_SHIFT(IRQn))) |
 8002c28:	4807      	ldr	r0, [pc, #28]	; (8002c48 <HAL_SYSTICK_Config+0x30>)
  SysTick->LOAD  = (uint32_t)(ticks - 1UL);                         /* set reload register */
 8002c2a:	6053      	str	r3, [r2, #4]
    SCB->SHP[_SHP_IDX(IRQn)] = ((uint32_t)(SCB->SHP[_SHP_IDX(IRQn)] & ~(0xFFUL << _BIT_SHIFT(IRQn))) |
 8002c2c:	6a03      	ldr	r3, [r0, #32]
 8002c2e:	0609      	lsls	r1, r1, #24
 8002c30:	021b      	lsls	r3, r3, #8
 8002c32:	0a1b      	lsrs	r3, r3, #8
 8002c34:	430b      	orrs	r3, r1
 8002c36:	6203      	str	r3, [r0, #32]
  NVIC_SetPriority (SysTick_IRQn, (1UL << __NVIC_PRIO_BITS) - 1UL); /* set Priority for Systick Interrupt */
  SysTick->VAL   = 0UL;                                             /* Load the SysTick Counter Value */
 8002c38:	2000      	movs	r0, #0
  SysTick->CTRL  = SysTick_CTRL_CLKSOURCE_Msk |
 8002c3a:	2307      	movs	r3, #7
  SysTick->VAL   = 0UL;                                             /* Load the SysTick Counter Value */
 8002c3c:	6090      	str	r0, [r2, #8]
  SysTick->CTRL  = SysTick_CTRL_CLKSOURCE_Msk |
 8002c3e:	6013      	str	r3, [r2, #0]
  *                  - 1  Function failed.
  */
uint32_t HAL_SYSTICK_Config(uint32_t TicksNumb)
{
   return SysTick_Config(TicksNumb);
}
 8002c40:	4770      	bx	lr
 8002c42:	46c0      	nop			; (mov r8, r8)
 8002c44:	e000e010 	.word	0xe000e010
 8002c48:	e000ed00 	.word	0xe000ed00

08002c4c <HAL_DMA_Init>:
  * @param  hdma Pointer to a DMA_HandleTypeDef structure that contains
  *               the configuration information for the specified DMA Channel.
  * @retval HAL status
  */
HAL_StatusTypeDef HAL_DMA_Init(DMA_HandleTypeDef *hdma)
{
 8002c4c:	b5f8      	push	{r3, r4, r5, r6, r7, lr}
 8002c4e:	0004      	movs	r4, r0
  uint32_t tmp;

  /* Check the DMA handle allocation */
  if(hdma == NULL)
  {
    return HAL_ERROR;
 8002c50:	2001      	movs	r0, #1
  if(hdma == NULL)
 8002c52:	2c00      	cmp	r4, #0
 8002c54:	d035      	beq.n	8002cc2 <HAL_DMA_Init+0x76>
  assert_param(IS_DMA_MODE(hdma->Init.Mode));
  assert_param(IS_DMA_PRIORITY(hdma->Init.Priority));

  /* Compute the channel index */
  /* Only one DMA: DMA1 */
  hdma->ChannelIndex = (((uint32_t)hdma->Instance - (uint32_t)DMA1_Channel1) / ((uint32_t)DMA1_Channel2 - (uint32_t)DMA1_Channel1)) << 2;
 8002c56:	6825      	ldr	r5, [r4, #0]
 8002c58:	4b1a      	ldr	r3, [pc, #104]	; (8002cc4 <HAL_DMA_Init+0x78>)
 8002c5a:	2114      	movs	r1, #20
 8002c5c:	18e8      	adds	r0, r5, r3
 8002c5e:	f7fd fa53 	bl	8000108 <__udivsi3>
  hdma->DmaBaseAddress = DMA1;
 8002c62:	4b19      	ldr	r3, [pc, #100]	; (8002cc8 <HAL_DMA_Init+0x7c>)
  hdma->ChannelIndex = (((uint32_t)hdma->Instance - (uint32_t)DMA1_Channel1) / ((uint32_t)DMA1_Channel2 - (uint32_t)DMA1_Channel1)) << 2;
 8002c64:	0080      	lsls	r0, r0, #2
  hdma->DmaBaseAddress = DMA1;
 8002c66:	6423      	str	r3, [r4, #64]	; 0x40

  /* Change DMA peripheral state */
  hdma->State = HAL_DMA_STATE_BUSY;
 8002c68:	2302      	movs	r3, #2
 8002c6a:	1da2      	adds	r2, r4, #6
  hdma->ChannelIndex = (((uint32_t)hdma->Instance - (uint32_t)DMA1_Channel1) / ((uint32_t)DMA1_Channel2 - (uint32_t)DMA1_Channel1)) << 2;
 8002c6c:	6460      	str	r0, [r4, #68]	; 0x44
  hdma->State = HAL_DMA_STATE_BUSY;
 8002c6e:	77d3      	strb	r3, [r2, #31]

  /* Get the CR register value */
  tmp = hdma->Instance->CCR;
 8002c70:	682e      	ldr	r6, [r5, #0]

  /* Clear PL, MSIZE, PSIZE, MINC, PINC, CIRC, DIR and MEM2MEM bits */
  tmp &= ((uint32_t)~(DMA_CCR_PL    | DMA_CCR_MSIZE  | DMA_CCR_PSIZE  |
 8002c72:	4b16      	ldr	r3, [pc, #88]	; (8002ccc <HAL_DMA_Init+0x80>)
                      DMA_CCR_MINC  | DMA_CCR_PINC   | DMA_CCR_CIRC   |
                      DMA_CCR_DIR   | DMA_CCR_MEM2MEM));

  /* Prepare the DMA Channel configuration */
  tmp |=  hdma->Init.Direction        |
 8002c74:	68a1      	ldr	r1, [r4, #8]
  tmp &= ((uint32_t)~(DMA_CCR_PL    | DMA_CCR_MSIZE  | DMA_CCR_PSIZE  |
 8002c76:	401e      	ands	r6, r3
  tmp |=  hdma->Init.Direction        |
 8002c78:	68e3      	ldr	r3, [r4, #12]
          hdma->Init.PeriphInc           | hdma->Init.MemInc           |
 8002c7a:	6927      	ldr	r7, [r4, #16]
  tmp |=  hdma->Init.Direction        |
 8002c7c:	430b      	orrs	r3, r1
          hdma->Init.PeriphInc           | hdma->Init.MemInc           |
 8002c7e:	433b      	orrs	r3, r7
 8002c80:	6967      	ldr	r7, [r4, #20]
 8002c82:	433b      	orrs	r3, r7
          hdma->Init.PeriphDataAlignment | hdma->Init.MemDataAlignment |
 8002c84:	69a7      	ldr	r7, [r4, #24]
 8002c86:	433b      	orrs	r3, r7
 8002c88:	69e7      	ldr	r7, [r4, #28]
 8002c8a:	433b      	orrs	r3, r7
          hdma->Init.Mode                | hdma->Init.Priority;
 8002c8c:	6a27      	ldr	r7, [r4, #32]
 8002c8e:	433b      	orrs	r3, r7
  tmp |=  hdma->Init.Direction        |
 8002c90:	4333      	orrs	r3, r6

  /* Write to DMA Channel CR register */
  hdma->Instance->CCR = tmp;
 8002c92:	602b      	str	r3, [r5, #0]

  /* Set request selection */
  if(hdma->Init.Direction != DMA_MEMORY_TO_MEMORY)
 8002c94:	2380      	movs	r3, #128	; 0x80
 8002c96:	01db      	lsls	r3, r3, #7
 8002c98:	4299      	cmp	r1, r3
 8002c9a:	d00c      	beq.n	8002cb6 <HAL_DMA_Init+0x6a>
  {
    /* Write to DMA channel selection register */
    /* Reset request selection for DMA1 Channelx */
    DMA1_CSELR->CSELR &= ~(DMA_CSELR_C1S << (hdma->ChannelIndex & 0x1cU));
 8002c9c:	251c      	movs	r5, #28
 8002c9e:	4028      	ands	r0, r5
 8002ca0:	3d0d      	subs	r5, #13
 8002ca2:	4085      	lsls	r5, r0
 8002ca4:	490a      	ldr	r1, [pc, #40]	; (8002cd0 <HAL_DMA_Init+0x84>)
 8002ca6:	680b      	ldr	r3, [r1, #0]
 8002ca8:	43ab      	bics	r3, r5
 8002caa:	600b      	str	r3, [r1, #0]

    /* Configure request selection for DMA1 Channelx */
    DMA1_CSELR->CSELR |= (uint32_t) (hdma->Init.Request << (hdma->ChannelIndex & 0x1cU));
 8002cac:	6863      	ldr	r3, [r4, #4]
 8002cae:	680d      	ldr	r5, [r1, #0]
 8002cb0:	4083      	lsls	r3, r0
 8002cb2:	432b      	orrs	r3, r5
 8002cb4:	600b      	str	r3, [r1, #0]
  }

  /* Initialise the error code */
  hdma->ErrorCode = HAL_DMA_ERROR_NONE;
 8002cb6:	2000      	movs	r0, #0

  /* Initialize the DMA state*/
  hdma->State  = HAL_DMA_STATE_READY;
 8002cb8:	2301      	movs	r3, #1
  hdma->ErrorCode = HAL_DMA_ERROR_NONE;
 8002cba:	63e0      	str	r0, [r4, #60]	; 0x3c

  /* Allocate lock resource and initialize it */
  hdma->Lock = HAL_UNLOCKED;
 8002cbc:	3405      	adds	r4, #5
  hdma->State  = HAL_DMA_STATE_READY;
 8002cbe:	77d3      	strb	r3, [r2, #31]
  hdma->Lock = HAL_UNLOCKED;
 8002cc0:	77e0      	strb	r0, [r4, #31]

  return HAL_OK;
}
 8002cc2:	bdf8      	pop	{r3, r4, r5, r6, r7, pc}
 8002cc4:	bffdfff8 	.word	0xbffdfff8
 8002cc8:	40020000 	.word	0x40020000
 8002ccc:	ffff800f 	.word	0xffff800f
 8002cd0:	400200a8 	.word	0x400200a8

08002cd4 <HAL_DMA_Start_IT>:
  * @param  DstAddress The destination memory Buffer address
  * @param  DataLength The length of data to be transferred from source to destination
  * @retval HAL status
  */
HAL_StatusTypeDef HAL_DMA_Start_IT(DMA_HandleTypeDef *hdma, uint32_t SrcAddress, uint32_t DstAddress, uint32_t DataLength)
{
 8002cd4:	b5f7      	push	{r0, r1, r2, r4, r5, r6, r7, lr}

  /* Check the parameters */
  assert_param(IS_DMA_BUFFER_SIZE(DataLength));

  /* Process locked */
  __HAL_LOCK(hdma);
 8002cd6:	1d45      	adds	r5, r0, #5
{
 8002cd8:	9301      	str	r3, [sp, #4]
  __HAL_LOCK(hdma);
 8002cda:	7feb      	ldrb	r3, [r5, #31]
{
 8002cdc:	0004      	movs	r4, r0
  __HAL_LOCK(hdma);
 8002cde:	2002      	movs	r0, #2
 8002ce0:	2b01      	cmp	r3, #1
 8002ce2:	d029      	beq.n	8002d38 <HAL_DMA_Start_IT+0x64>
 8002ce4:	2301      	movs	r3, #1

  if(HAL_DMA_STATE_READY == hdma->State)
 8002ce6:	1da7      	adds	r7, r4, #6
  __HAL_LOCK(hdma);
 8002ce8:	77eb      	strb	r3, [r5, #31]
  if(HAL_DMA_STATE_READY == hdma->State)
 8002cea:	7ffb      	ldrb	r3, [r7, #31]
 8002cec:	2600      	movs	r6, #0
 8002cee:	469c      	mov	ip, r3
 8002cf0:	4660      	mov	r0, ip
 8002cf2:	b2db      	uxtb	r3, r3
 8002cf4:	2801      	cmp	r0, #1
 8002cf6:	d12a      	bne.n	8002d4e <HAL_DMA_Start_IT+0x7a>
  {
    /* Change DMA peripheral state */
    hdma->State = HAL_DMA_STATE_BUSY;
 8002cf8:	3001      	adds	r0, #1
 8002cfa:	77f8      	strb	r0, [r7, #31]
  * @retval HAL status
  */
static void DMA_SetConfig(DMA_HandleTypeDef *hdma, uint32_t SrcAddress, uint32_t DstAddress, uint32_t DataLength)
{
  /* Clear all flags */
  hdma->DmaBaseAddress->IFCR = (DMA_ISR_GIF1 << (hdma->ChannelIndex & 0x1cU));
 8002cfc:	271c      	movs	r7, #28
    __HAL_DMA_DISABLE(hdma);
 8002cfe:	6820      	ldr	r0, [r4, #0]
    hdma->ErrorCode = HAL_DMA_ERROR_NONE;
 8002d00:	63e6      	str	r6, [r4, #60]	; 0x3c
    __HAL_DMA_DISABLE(hdma);
 8002d02:	6805      	ldr	r5, [r0, #0]
  hdma->DmaBaseAddress->IFCR = (DMA_ISR_GIF1 << (hdma->ChannelIndex & 0x1cU));
 8002d04:	6c26      	ldr	r6, [r4, #64]	; 0x40
    __HAL_DMA_DISABLE(hdma);
 8002d06:	439d      	bics	r5, r3
 8002d08:	6005      	str	r5, [r0, #0]
  hdma->DmaBaseAddress->IFCR = (DMA_ISR_GIF1 << (hdma->ChannelIndex & 0x1cU));
 8002d0a:	6c65      	ldr	r5, [r4, #68]	; 0x44
 8002d0c:	403d      	ands	r5, r7
 8002d0e:	40ab      	lsls	r3, r5
 8002d10:	6073      	str	r3, [r6, #4]

  /* Configure DMA Channel data length */
  hdma->Instance->CNDTR = DataLength;
 8002d12:	9b01      	ldr	r3, [sp, #4]
 8002d14:	6043      	str	r3, [r0, #4]

  /* Memory to Peripheral */
  if((hdma->Init.Direction) == DMA_MEMORY_TO_PERIPH)
 8002d16:	68a3      	ldr	r3, [r4, #8]
 8002d18:	2b10      	cmp	r3, #16
 8002d1a:	d10e      	bne.n	8002d3a <HAL_DMA_Start_IT+0x66>
  {
    /* Configure DMA Channel destination address */
    hdma->Instance->CPAR = DstAddress;
 8002d1c:	6082      	str	r2, [r0, #8]

    /* Configure DMA Channel source address */
    hdma->Instance->CMAR = SrcAddress;
 8002d1e:	60c1      	str	r1, [r0, #12]
    if(NULL != hdma->XferHalfCpltCallback )
 8002d20:	6b23      	ldr	r3, [r4, #48]	; 0x30
 8002d22:	2b00      	cmp	r3, #0
 8002d24:	d00c      	beq.n	8002d40 <HAL_DMA_Start_IT+0x6c>
      __HAL_DMA_ENABLE_IT(hdma, (DMA_IT_TC | DMA_IT_HT | DMA_IT_TE));
 8002d26:	230e      	movs	r3, #14
 8002d28:	6802      	ldr	r2, [r0, #0]
      __HAL_DMA_ENABLE_IT(hdma, (DMA_IT_TC | DMA_IT_TE));
 8002d2a:	4313      	orrs	r3, r2
 8002d2c:	6003      	str	r3, [r0, #0]
    __HAL_DMA_ENABLE(hdma);
 8002d2e:	2301      	movs	r3, #1
 8002d30:	6802      	ldr	r2, [r0, #0]
 8002d32:	4313      	orrs	r3, r2
 8002d34:	6003      	str	r3, [r0, #0]
  HAL_StatusTypeDef status = HAL_OK;
 8002d36:	2000      	movs	r0, #0
}
 8002d38:	bdfe      	pop	{r1, r2, r3, r4, r5, r6, r7, pc}
  }
  /* Peripheral to Memory */
  else
  {
    /* Configure DMA Channel source address */
    hdma->Instance->CPAR = SrcAddress;
 8002d3a:	6081      	str	r1, [r0, #8]

    /* Configure DMA Channel destination address */
    hdma->Instance->CMAR = DstAddress;
 8002d3c:	60c2      	str	r2, [r0, #12]
 8002d3e:	e7ef      	b.n	8002d20 <HAL_DMA_Start_IT+0x4c>
      __HAL_DMA_DISABLE_IT(hdma, DMA_IT_HT);
 8002d40:	2204      	movs	r2, #4
 8002d42:	6803      	ldr	r3, [r0, #0]
 8002d44:	4393      	bics	r3, r2
 8002d46:	6003      	str	r3, [r0, #0]
      __HAL_DMA_ENABLE_IT(hdma, (DMA_IT_TC | DMA_IT_TE));
 8002d48:	6802      	ldr	r2, [r0, #0]
 8002d4a:	230a      	movs	r3, #10
 8002d4c:	e7ed      	b.n	8002d2a <HAL_DMA_Start_IT+0x56>
    status = HAL_BUSY;
 8002d4e:	2002      	movs	r0, #2
    __HAL_UNLOCK(hdma);
 8002d50:	77ee      	strb	r6, [r5, #31]
    status = HAL_BUSY;
 8002d52:	e7f1      	b.n	8002d38 <HAL_DMA_Start_IT+0x64>

08002d54 <HAL_DMA_IRQHandler>:
{
 8002d54:	b5f8      	push	{r3, r4, r5, r6, r7, lr}
  if ((0U != (flag_it & (DMA_FLAG_HT1 << (hdma->ChannelIndex & 0x1cU)))) && (0U != (source_it & DMA_IT_HT)))
 8002d56:	261c      	movs	r6, #28
 8002d58:	2704      	movs	r7, #4
 8002d5a:	6c42      	ldr	r2, [r0, #68]	; 0x44
  uint32_t flag_it = hdma->DmaBaseAddress->ISR;
 8002d5c:	6c01      	ldr	r1, [r0, #64]	; 0x40
  if ((0U != (flag_it & (DMA_FLAG_HT1 << (hdma->ChannelIndex & 0x1cU)))) && (0U != (source_it & DMA_IT_HT)))
 8002d5e:	4032      	ands	r2, r6
 8002d60:	003e      	movs	r6, r7
 8002d62:	4096      	lsls	r6, r2
  uint32_t flag_it = hdma->DmaBaseAddress->ISR;
 8002d64:	680d      	ldr	r5, [r1, #0]
  uint32_t source_it = hdma->Instance->CCR;
 8002d66:	6803      	ldr	r3, [r0, #0]
 8002d68:	681c      	ldr	r4, [r3, #0]
  if ((0U != (flag_it & (DMA_FLAG_HT1 << (hdma->ChannelIndex & 0x1cU)))) && (0U != (source_it & DMA_IT_HT)))
 8002d6a:	4235      	tst	r5, r6
 8002d6c:	d00d      	beq.n	8002d8a <HAL_DMA_IRQHandler+0x36>
 8002d6e:	423c      	tst	r4, r7
 8002d70:	d00b      	beq.n	8002d8a <HAL_DMA_IRQHandler+0x36>
      if((hdma->Instance->CCR & DMA_CCR_CIRC) == 0U)
 8002d72:	681a      	ldr	r2, [r3, #0]
 8002d74:	0692      	lsls	r2, r2, #26
 8002d76:	d402      	bmi.n	8002d7e <HAL_DMA_IRQHandler+0x2a>
        __HAL_DMA_DISABLE_IT(hdma, DMA_IT_HT);
 8002d78:	681a      	ldr	r2, [r3, #0]
 8002d7a:	43ba      	bics	r2, r7
 8002d7c:	601a      	str	r2, [r3, #0]
     if(hdma->XferHalfCpltCallback != NULL)
 8002d7e:	6b03      	ldr	r3, [r0, #48]	; 0x30
      hdma->DmaBaseAddress->IFCR = DMA_ISR_HTIF1 << (hdma->ChannelIndex & 0x1cU);
 8002d80:	604e      	str	r6, [r1, #4]
     if(hdma->XferHalfCpltCallback != NULL)
 8002d82:	2b00      	cmp	r3, #0
 8002d84:	d019      	beq.n	8002dba <HAL_DMA_IRQHandler+0x66>
      hdma->XferErrorCallback(hdma);
 8002d86:	4798      	blx	r3
  return;
 8002d88:	e017      	b.n	8002dba <HAL_DMA_IRQHandler+0x66>
  else if ((0U != (flag_it & (DMA_FLAG_TC1 << (hdma->ChannelIndex & 0x1cU)))) && (0U != (source_it & DMA_IT_TC)))
 8002d8a:	2702      	movs	r7, #2
 8002d8c:	003e      	movs	r6, r7
 8002d8e:	4096      	lsls	r6, r2
 8002d90:	4235      	tst	r5, r6
 8002d92:	d013      	beq.n	8002dbc <HAL_DMA_IRQHandler+0x68>
 8002d94:	423c      	tst	r4, r7
 8002d96:	d011      	beq.n	8002dbc <HAL_DMA_IRQHandler+0x68>
    if((hdma->Instance->CCR & DMA_CCR_CIRC) == 0U)
 8002d98:	681a      	ldr	r2, [r3, #0]
 8002d9a:	0692      	lsls	r2, r2, #26
 8002d9c:	d406      	bmi.n	8002dac <HAL_DMA_IRQHandler+0x58>
      __HAL_DMA_DISABLE_IT(hdma, DMA_IT_TE | DMA_IT_TC);
 8002d9e:	240a      	movs	r4, #10
 8002da0:	681a      	ldr	r2, [r3, #0]
 8002da2:	43a2      	bics	r2, r4
 8002da4:	601a      	str	r2, [r3, #0]
      hdma->State = HAL_DMA_STATE_READY;
 8002da6:	2201      	movs	r2, #1
 8002da8:	1d83      	adds	r3, r0, #6
 8002daa:	77da      	strb	r2, [r3, #31]
    __HAL_UNLOCK(hdma);
 8002dac:	2200      	movs	r2, #0
 8002dae:	1d43      	adds	r3, r0, #5
    hdma->DmaBaseAddress->IFCR = (DMA_ISR_TCIF1 << (hdma->ChannelIndex & 0x1cU));
 8002db0:	604e      	str	r6, [r1, #4]
    __HAL_UNLOCK(hdma);
 8002db2:	77da      	strb	r2, [r3, #31]
    if(hdma->XferCpltCallback != NULL)
 8002db4:	6ac3      	ldr	r3, [r0, #44]	; 0x2c
    if (hdma->XferErrorCallback != NULL)
 8002db6:	4293      	cmp	r3, r2
 8002db8:	d1e5      	bne.n	8002d86 <HAL_DMA_IRQHandler+0x32>
}
 8002dba:	bdf8      	pop	{r3, r4, r5, r6, r7, pc}
  else if ((0U != (flag_it & (DMA_FLAG_TE1 << (hdma->ChannelIndex & 0x1cU)))) && (0U != (source_it & DMA_IT_TE)))
 8002dbc:	2608      	movs	r6, #8
 8002dbe:	0037      	movs	r7, r6
 8002dc0:	4097      	lsls	r7, r2
 8002dc2:	423d      	tst	r5, r7
 8002dc4:	d0f9      	beq.n	8002dba <HAL_DMA_IRQHandler+0x66>
 8002dc6:	4234      	tst	r4, r6
 8002dc8:	d0f7      	beq.n	8002dba <HAL_DMA_IRQHandler+0x66>
    __HAL_DMA_DISABLE_IT(hdma, (DMA_IT_TC | DMA_IT_HT | DMA_IT_TE));
 8002dca:	250e      	movs	r5, #14
 8002dcc:	681c      	ldr	r4, [r3, #0]
 8002dce:	43ac      	bics	r4, r5
 8002dd0:	601c      	str	r4, [r3, #0]
    hdma->DmaBaseAddress->IFCR = (DMA_ISR_GIF1 << (hdma->ChannelIndex & 0x1cU));
 8002dd2:	2301      	movs	r3, #1
 8002dd4:	001c      	movs	r4, r3
 8002dd6:	4094      	lsls	r4, r2
    hdma->State = HAL_DMA_STATE_READY;
 8002dd8:	1d82      	adds	r2, r0, #6
    hdma->DmaBaseAddress->IFCR = (DMA_ISR_GIF1 << (hdma->ChannelIndex & 0x1cU));
 8002dda:	604c      	str	r4, [r1, #4]
    hdma->ErrorCode = HAL_DMA_ERROR_TE;
 8002ddc:	63c3      	str	r3, [r0, #60]	; 0x3c
    hdma->State = HAL_DMA_STATE_READY;
 8002dde:	77d3      	strb	r3, [r2, #31]
    __HAL_UNLOCK(hdma);
 8002de0:	2200      	movs	r2, #0
 8002de2:	1d43      	adds	r3, r0, #5
 8002de4:	77da      	strb	r2, [r3, #31]
    if (hdma->XferErrorCallback != NULL)
 8002de6:	6b43      	ldr	r3, [r0, #52]	; 0x34
 8002de8:	e7e5      	b.n	8002db6 <HAL_DMA_IRQHandler+0x62>
	...

08002dec <HAL_GPIO_Init>:
        /* Enable SYSCFG Clock */
        __HAL_RCC_SYSCFG_CLK_ENABLE();

        temp = SYSCFG->EXTICR[position >> 2U];
        CLEAR_BIT(temp, (0x0FUL) << (4U * (position & 0x03U)));
        SET_BIT(temp, (GPIO_GET_INDEX(GPIOx)) << (4 * (position & 0x03U)));
 8002dec:	4a5c      	ldr	r2, [pc, #368]	; (8002f60 <HAL_GPIO_Init+0x174>)
{
 8002dee:	b5f0      	push	{r4, r5, r6, r7, lr}
        SET_BIT(temp, (GPIO_GET_INDEX(GPIOx)) << (4 * (position & 0x03U)));
 8002df0:	1882      	adds	r2, r0, r2
 8002df2:	1e54      	subs	r4, r2, #1
 8002df4:	41a2      	sbcs	r2, r4
  uint32_t position = 0x00U;
 8002df6:	2300      	movs	r3, #0
{
 8002df8:	b087      	sub	sp, #28
        SET_BIT(temp, (GPIO_GET_INDEX(GPIOx)) << (4 * (position & 0x03U)));
 8002dfa:	3205      	adds	r2, #5
 8002dfc:	9205      	str	r2, [sp, #20]
  while (((GPIO_Init->Pin) >> position) != 0)
 8002dfe:	680a      	ldr	r2, [r1, #0]
 8002e00:	0014      	movs	r4, r2
 8002e02:	40dc      	lsrs	r4, r3
 8002e04:	d101      	bne.n	8002e0a <HAL_GPIO_Init+0x1e>
        EXTI->FTSR = temp;
      }
    }
    position++;
  }
}
 8002e06:	b007      	add	sp, #28
 8002e08:	bdf0      	pop	{r4, r5, r6, r7, pc}
    iocurrent = (GPIO_Init->Pin) & (1U << position);
 8002e0a:	2401      	movs	r4, #1
 8002e0c:	0025      	movs	r5, r4
 8002e0e:	46a4      	mov	ip, r4
 8002e10:	409d      	lsls	r5, r3
 8002e12:	0014      	movs	r4, r2
 8002e14:	402c      	ands	r4, r5
 8002e16:	9402      	str	r4, [sp, #8]
    if (iocurrent)
 8002e18:	422a      	tst	r2, r5
 8002e1a:	d100      	bne.n	8002e1e <HAL_GPIO_Init+0x32>
 8002e1c:	e09e      	b.n	8002f5c <HAL_GPIO_Init+0x170>
      if (((GPIO_Init->Mode & GPIO_MODE) == MODE_OUTPUT) ||
 8002e1e:	2403      	movs	r4, #3
 8002e20:	684a      	ldr	r2, [r1, #4]
 8002e22:	005f      	lsls	r7, r3, #1
 8002e24:	9201      	str	r2, [sp, #4]
 8002e26:	4022      	ands	r2, r4
        temp &= ~(GPIO_OSPEEDER_OSPEED0 << (position * 2U));
 8002e28:	40bc      	lsls	r4, r7
 8002e2a:	43e4      	mvns	r4, r4
 8002e2c:	9403      	str	r4, [sp, #12]
      if (((GPIO_Init->Mode & GPIO_MODE) == MODE_OUTPUT) ||
 8002e2e:	1e54      	subs	r4, r2, #1
 8002e30:	4564      	cmp	r4, ip
 8002e32:	d82f      	bhi.n	8002e94 <HAL_GPIO_Init+0xa8>
        temp = GPIOx->OSPEEDR;
 8002e34:	6886      	ldr	r6, [r0, #8]
        temp &= ~(GPIO_OSPEEDER_OSPEED0 << (position * 2U));
 8002e36:	9c03      	ldr	r4, [sp, #12]
 8002e38:	4026      	ands	r6, r4
        temp |= (GPIO_Init->Speed << (position * 2U));
 8002e3a:	68cc      	ldr	r4, [r1, #12]
 8002e3c:	40bc      	lsls	r4, r7
 8002e3e:	4334      	orrs	r4, r6
        temp |= (((GPIO_Init->Mode & OUTPUT_TYPE) >> OUTPUT_TYPE_Pos) << position);
 8002e40:	4666      	mov	r6, ip
        GPIOx->OSPEEDR = temp;
 8002e42:	6084      	str	r4, [r0, #8]
        temp = GPIOx->OTYPER;
 8002e44:	6844      	ldr	r4, [r0, #4]
        temp &= ~(GPIO_OTYPER_OT_0 << position) ;
 8002e46:	43ac      	bics	r4, r5
 8002e48:	0025      	movs	r5, r4
        temp |= (((GPIO_Init->Mode & OUTPUT_TYPE) >> OUTPUT_TYPE_Pos) << position);
 8002e4a:	9c01      	ldr	r4, [sp, #4]
 8002e4c:	0924      	lsrs	r4, r4, #4
 8002e4e:	4034      	ands	r4, r6
 8002e50:	409c      	lsls	r4, r3
 8002e52:	432c      	orrs	r4, r5
        GPIOx->OTYPER = temp;
 8002e54:	6044      	str	r4, [r0, #4]
        temp = GPIOx->PUPDR;
 8002e56:	68c5      	ldr	r5, [r0, #12]
        temp &= ~(GPIO_PUPDR_PUPD0 << (position * 2U));
 8002e58:	9c03      	ldr	r4, [sp, #12]
 8002e5a:	4025      	ands	r5, r4
        temp |= ((GPIO_Init->Pull) << (position * 2U));
 8002e5c:	688c      	ldr	r4, [r1, #8]
 8002e5e:	40bc      	lsls	r4, r7
 8002e60:	432c      	orrs	r4, r5
        GPIOx->PUPDR = temp;
 8002e62:	60c4      	str	r4, [r0, #12]
      if ((GPIO_Init->Mode & GPIO_MODE) == MODE_AF)
 8002e64:	2a02      	cmp	r2, #2
 8002e66:	d117      	bne.n	8002e98 <HAL_GPIO_Init+0xac>
        temp &= ~(0xFUL << ((uint32_t)(position & 0x07UL) * 4U));
 8002e68:	2507      	movs	r5, #7
 8002e6a:	260f      	movs	r6, #15
 8002e6c:	401d      	ands	r5, r3
 8002e6e:	00ad      	lsls	r5, r5, #2
 8002e70:	40ae      	lsls	r6, r5
 8002e72:	46b4      	mov	ip, r6
        temp = GPIOx->AFR[position >> 3U];
 8002e74:	08dc      	lsrs	r4, r3, #3
 8002e76:	00a4      	lsls	r4, r4, #2
 8002e78:	1904      	adds	r4, r0, r4
 8002e7a:	9404      	str	r4, [sp, #16]
 8002e7c:	6a24      	ldr	r4, [r4, #32]
        temp &= ~(0xFUL << ((uint32_t)(position & 0x07UL) * 4U));
 8002e7e:	0026      	movs	r6, r4
 8002e80:	4664      	mov	r4, ip
 8002e82:	43a6      	bics	r6, r4
 8002e84:	46b4      	mov	ip, r6
        temp |= ((uint32_t)(GPIO_Init->Alternate) << (((uint32_t)position & (uint32_t)0x07U) * 4U));
 8002e86:	690e      	ldr	r6, [r1, #16]
 8002e88:	4664      	mov	r4, ip
 8002e8a:	40ae      	lsls	r6, r5
 8002e8c:	4326      	orrs	r6, r4
        GPIOx->AFR[position >> 3U] = temp;
 8002e8e:	9c04      	ldr	r4, [sp, #16]
 8002e90:	6226      	str	r6, [r4, #32]
 8002e92:	e001      	b.n	8002e98 <HAL_GPIO_Init+0xac>
      if ((GPIO_Init->Mode & GPIO_MODE) != MODE_ANALOG)
 8002e94:	2a03      	cmp	r2, #3
 8002e96:	d1de      	bne.n	8002e56 <HAL_GPIO_Init+0x6a>
      temp |= ((GPIO_Init->Mode & GPIO_MODE) << (position * 2U));
 8002e98:	40ba      	lsls	r2, r7
      temp = GPIOx->MODER;
 8002e9a:	6804      	ldr	r4, [r0, #0]
      temp &= ~(GPIO_MODER_MODE0 << (position * 2U));
 8002e9c:	9d03      	ldr	r5, [sp, #12]
 8002e9e:	4025      	ands	r5, r4
      temp |= ((GPIO_Init->Mode & GPIO_MODE) << (position * 2U));
 8002ea0:	432a      	orrs	r2, r5
      GPIOx->MODER = temp;
 8002ea2:	6002      	str	r2, [r0, #0]
      if ((GPIO_Init->Mode & EXTI_MODE) != 0x00U)
 8002ea4:	22c0      	movs	r2, #192	; 0xc0
 8002ea6:	9c01      	ldr	r4, [sp, #4]
 8002ea8:	0292      	lsls	r2, r2, #10
 8002eaa:	4214      	tst	r4, r2
 8002eac:	d056      	beq.n	8002f5c <HAL_GPIO_Init+0x170>
        __HAL_RCC_SYSCFG_CLK_ENABLE();
 8002eae:	2701      	movs	r7, #1
 8002eb0:	4c2c      	ldr	r4, [pc, #176]	; (8002f64 <HAL_GPIO_Init+0x178>)
        CLEAR_BIT(temp, (0x0FUL) << (4U * (position & 0x03U)));
 8002eb2:	001d      	movs	r5, r3
        __HAL_RCC_SYSCFG_CLK_ENABLE();
 8002eb4:	6b62      	ldr	r2, [r4, #52]	; 0x34
 8002eb6:	433a      	orrs	r2, r7
 8002eb8:	6362      	str	r2, [r4, #52]	; 0x34
        temp = SYSCFG->EXTICR[position >> 2U];
 8002eba:	4a2b      	ldr	r2, [pc, #172]	; (8002f68 <HAL_GPIO_Init+0x17c>)
 8002ebc:	089c      	lsrs	r4, r3, #2
 8002ebe:	00a4      	lsls	r4, r4, #2
 8002ec0:	18a4      	adds	r4, r4, r2
 8002ec2:	68a2      	ldr	r2, [r4, #8]
 8002ec4:	4694      	mov	ip, r2
        CLEAR_BIT(temp, (0x0FUL) << (4U * (position & 0x03U)));
 8002ec6:	2203      	movs	r2, #3
 8002ec8:	4015      	ands	r5, r2
 8002eca:	00ad      	lsls	r5, r5, #2
 8002ecc:	320c      	adds	r2, #12
 8002ece:	40aa      	lsls	r2, r5
 8002ed0:	4666      	mov	r6, ip
 8002ed2:	4396      	bics	r6, r2
        SET_BIT(temp, (GPIO_GET_INDEX(GPIOx)) << (4 * (position & 0x03U)));
 8002ed4:	22a0      	movs	r2, #160	; 0xa0
 8002ed6:	05d2      	lsls	r2, r2, #23
 8002ed8:	4694      	mov	ip, r2
        CLEAR_BIT(temp, (0x0FUL) << (4U * (position & 0x03U)));
 8002eda:	9603      	str	r6, [sp, #12]
        SET_BIT(temp, (GPIO_GET_INDEX(GPIOx)) << (4 * (position & 0x03U)));
 8002edc:	2200      	movs	r2, #0
 8002ede:	4560      	cmp	r0, ip
 8002ee0:	d011      	beq.n	8002f06 <HAL_GPIO_Init+0x11a>
 8002ee2:	4a22      	ldr	r2, [pc, #136]	; (8002f6c <HAL_GPIO_Init+0x180>)
 8002ee4:	4694      	mov	ip, r2
 8002ee6:	003a      	movs	r2, r7
 8002ee8:	4560      	cmp	r0, ip
 8002eea:	d00c      	beq.n	8002f06 <HAL_GPIO_Init+0x11a>
 8002eec:	4f20      	ldr	r7, [pc, #128]	; (8002f70 <HAL_GPIO_Init+0x184>)
 8002eee:	1892      	adds	r2, r2, r2
 8002ef0:	42b8      	cmp	r0, r7
 8002ef2:	d008      	beq.n	8002f06 <HAL_GPIO_Init+0x11a>
 8002ef4:	4f1f      	ldr	r7, [pc, #124]	; (8002f74 <HAL_GPIO_Init+0x188>)
 8002ef6:	3201      	adds	r2, #1
 8002ef8:	42b8      	cmp	r0, r7
 8002efa:	d004      	beq.n	8002f06 <HAL_GPIO_Init+0x11a>
 8002efc:	4e1e      	ldr	r6, [pc, #120]	; (8002f78 <HAL_GPIO_Init+0x18c>)
 8002efe:	3201      	adds	r2, #1
 8002f00:	42b0      	cmp	r0, r6
 8002f02:	d000      	beq.n	8002f06 <HAL_GPIO_Init+0x11a>
 8002f04:	9a05      	ldr	r2, [sp, #20]
 8002f06:	40aa      	lsls	r2, r5
 8002f08:	9d03      	ldr	r5, [sp, #12]
        if ((GPIO_Init->Mode & EXTI_IT) != 0x00U)
 8002f0a:	9f01      	ldr	r7, [sp, #4]
        SET_BIT(temp, (GPIO_GET_INDEX(GPIOx)) << (4 * (position & 0x03U)));
 8002f0c:	432a      	orrs	r2, r5
        SYSCFG->EXTICR[position >> 2U] = temp;
 8002f0e:	60a2      	str	r2, [r4, #8]
        temp = EXTI->IMR;
 8002f10:	4a1a      	ldr	r2, [pc, #104]	; (8002f7c <HAL_GPIO_Init+0x190>)
        temp &= ~((uint32_t)iocurrent);
 8002f12:	9c02      	ldr	r4, [sp, #8]
        temp = EXTI->IMR;
 8002f14:	6816      	ldr	r6, [r2, #0]
          temp |= iocurrent;
 8002f16:	9d02      	ldr	r5, [sp, #8]
        temp &= ~((uint32_t)iocurrent);
 8002f18:	43e4      	mvns	r4, r4
          temp |= iocurrent;
 8002f1a:	4335      	orrs	r5, r6
        if ((GPIO_Init->Mode & EXTI_IT) != 0x00U)
 8002f1c:	03ff      	lsls	r7, r7, #15
 8002f1e:	d401      	bmi.n	8002f24 <HAL_GPIO_Init+0x138>
        temp &= ~((uint32_t)iocurrent);
 8002f20:	0035      	movs	r5, r6
 8002f22:	4025      	ands	r5, r4
        EXTI->IMR = temp;
 8002f24:	6015      	str	r5, [r2, #0]
        temp = EXTI->EMR;
 8002f26:	6856      	ldr	r6, [r2, #4]
          temp |= iocurrent;
 8002f28:	9d02      	ldr	r5, [sp, #8]
        if ((GPIO_Init->Mode & EXTI_EVT) != 0x00U)
 8002f2a:	9f01      	ldr	r7, [sp, #4]
          temp |= iocurrent;
 8002f2c:	4335      	orrs	r5, r6
        if ((GPIO_Init->Mode & EXTI_EVT) != 0x00U)
 8002f2e:	03bf      	lsls	r7, r7, #14
 8002f30:	d401      	bmi.n	8002f36 <HAL_GPIO_Init+0x14a>
        temp &= ~((uint32_t)iocurrent);
 8002f32:	0035      	movs	r5, r6
 8002f34:	4025      	ands	r5, r4
        EXTI->EMR = temp;
 8002f36:	6055      	str	r5, [r2, #4]
        temp = EXTI->RTSR;
 8002f38:	6896      	ldr	r6, [r2, #8]
          temp |= iocurrent;
 8002f3a:	9d02      	ldr	r5, [sp, #8]
        if ((GPIO_Init->Mode & TRIGGER_RISING) != 0x00U)
 8002f3c:	9f01      	ldr	r7, [sp, #4]
          temp |= iocurrent;
 8002f3e:	4335      	orrs	r5, r6
        if ((GPIO_Init->Mode & TRIGGER_RISING) != 0x00U)
 8002f40:	02ff      	lsls	r7, r7, #11
 8002f42:	d401      	bmi.n	8002f48 <HAL_GPIO_Init+0x15c>
        temp &= ~((uint32_t)iocurrent);
 8002f44:	0035      	movs	r5, r6
 8002f46:	4025      	ands	r5, r4
        EXTI->RTSR = temp;
 8002f48:	6095      	str	r5, [r2, #8]
        temp = EXTI->FTSR;
 8002f4a:	68d5      	ldr	r5, [r2, #12]
          temp |= iocurrent;
 8002f4c:	9e02      	ldr	r6, [sp, #8]
        if ((GPIO_Init->Mode & TRIGGER_FALLING) != 0x00U)
 8002f4e:	9f01      	ldr	r7, [sp, #4]
          temp |= iocurrent;
 8002f50:	432e      	orrs	r6, r5
        if ((GPIO_Init->Mode & TRIGGER_FALLING) != 0x00U)
 8002f52:	02bf      	lsls	r7, r7, #10
 8002f54:	d401      	bmi.n	8002f5a <HAL_GPIO_Init+0x16e>
        temp &= ~((uint32_t)iocurrent);
 8002f56:	4025      	ands	r5, r4
 8002f58:	002e      	movs	r6, r5
        EXTI->FTSR = temp;
 8002f5a:	60d6      	str	r6, [r2, #12]
    position++;
 8002f5c:	3301      	adds	r3, #1
 8002f5e:	e74e      	b.n	8002dfe <HAL_GPIO_Init+0x12>
 8002f60:	afffe400 	.word	0xafffe400
 8002f64:	40021000 	.word	0x40021000
 8002f68:	40010000 	.word	0x40010000
 8002f6c:	50000400 	.word	0x50000400
 8002f70:	50000800 	.word	0x50000800
 8002f74:	50000c00 	.word	0x50000c00
 8002f78:	50001000 	.word	0x50001000
 8002f7c:	40010400 	.word	0x40010400

08002f80 <HAL_GPIO_ReadPin>:
  GPIO_PinState bitstatus;

  /* Check the parameters */
  assert_param(IS_GPIO_PIN_AVAILABLE(GPIOx, GPIO_Pin));

  if ((GPIOx->IDR & GPIO_Pin) != (uint32_t)GPIO_PIN_RESET)
 8002f80:	6900      	ldr	r0, [r0, #16]
 8002f82:	4008      	ands	r0, r1
 8002f84:	1e43      	subs	r3, r0, #1
 8002f86:	4198      	sbcs	r0, r3
  }
  else
  {
    bitstatus = GPIO_PIN_RESET;
  }
  return bitstatus;
 8002f88:	b2c0      	uxtb	r0, r0
}
 8002f8a:	4770      	bx	lr

08002f8c <HAL_GPIO_WritePin>:
{
  /* Check the parameters */
  assert_param(IS_GPIO_PIN_AVAILABLE(GPIOx, GPIO_Pin));
  assert_param(IS_GPIO_PIN_ACTION(PinState));

  if (PinState != GPIO_PIN_RESET)
 8002f8c:	2a00      	cmp	r2, #0
 8002f8e:	d001      	beq.n	8002f94 <HAL_GPIO_WritePin+0x8>
  {
    GPIOx->BSRR = GPIO_Pin;
 8002f90:	6181      	str	r1, [r0, #24]
  }
  else
  {
    GPIOx->BRR = GPIO_Pin ;
  }
}
 8002f92:	4770      	bx	lr
    GPIOx->BRR = GPIO_Pin ;
 8002f94:	6281      	str	r1, [r0, #40]	; 0x28
}
 8002f96:	e7fc      	b.n	8002f92 <HAL_GPIO_WritePin+0x6>

08002f98 <HAL_I2S_Init>:
  * @param  hi2s pointer to a I2S_HandleTypeDef structure that contains
  *         the configuration information for I2S module
  * @retval HAL status
  */
HAL_StatusTypeDef HAL_I2S_Init(I2S_HandleTypeDef *hi2s)
{
 8002f98:	b5f8      	push	{r3, r4, r5, r6, r7, lr}
 8002f9a:	0004      	movs	r4, r0
  uint32_t i2sclk;

  /* Check the I2S handle allocation */
  if (hi2s == NULL)
  {
    return HAL_ERROR;
 8002f9c:	2001      	movs	r0, #1
  if (hi2s == NULL)
 8002f9e:	2c00      	cmp	r4, #0
 8002fa0:	d045      	beq.n	800302e <HAL_I2S_Init+0x96>
  assert_param(IS_I2S_DATA_FORMAT(hi2s->Init.DataFormat));
  assert_param(IS_I2S_MCLK_OUTPUT(hi2s->Init.MCLKOutput));
  assert_param(IS_I2S_AUDIO_FREQ(hi2s->Init.AudioFreq));
  assert_param(IS_I2S_CPOL(hi2s->Init.CPOL));

  if (hi2s->State == HAL_I2S_STATE_RESET)
 8002fa2:	0026      	movs	r6, r4
 8002fa4:	3635      	adds	r6, #53	; 0x35
 8002fa6:	7833      	ldrb	r3, [r6, #0]
 8002fa8:	b2da      	uxtb	r2, r3
 8002faa:	2b00      	cmp	r3, #0
 8002fac:	d105      	bne.n	8002fba <HAL_I2S_Init+0x22>
  {
    /* Allocate lock resource and initialize it */
    hi2s->Lock = HAL_UNLOCKED;
 8002fae:	0023      	movs	r3, r4
 8002fb0:	3334      	adds	r3, #52	; 0x34

    /* Init the low level hardware : GPIO, CLOCK, NVIC... */
    hi2s->MspInitCallback(hi2s);
#else
    /* Init the low level hardware : GPIO, CLOCK, CORTEX...etc */
    HAL_I2S_MspInit(hi2s);
 8002fb2:	0020      	movs	r0, r4
    hi2s->Lock = HAL_UNLOCKED;
 8002fb4:	701a      	strb	r2, [r3, #0]
    HAL_I2S_MspInit(hi2s);
 8002fb6:	f7ff fb93 	bl	80026e0 <HAL_I2S_MspInit>
#endif /* USE_HAL_I2S_REGISTER_CALLBACKS */
  }

  hi2s->State = HAL_I2S_STATE_BUSY;
 8002fba:	2102      	movs	r1, #2
 8002fbc:	7031      	strb	r1, [r6, #0]

  /*----------------------- SPIx I2SCFGR & I2SPR Configuration ----------------*/
  /* Clear I2SMOD, I2SE, I2SCFG, PCMSYNC, I2SSTD, CKPOL, DATLEN and CHLEN bits */
  CLEAR_BIT(hi2s->Instance->I2SCFGR, (SPI_I2SCFGR_CHLEN | SPI_I2SCFGR_DATLEN | SPI_I2SCFGR_CKPOL | \
 8002fbe:	6823      	ldr	r3, [r4, #0]
 8002fc0:	4830      	ldr	r0, [pc, #192]	; (8003084 <HAL_I2S_Init+0xec>)
 8002fc2:	69da      	ldr	r2, [r3, #28]
 8002fc4:	4002      	ands	r2, r0
 8002fc6:	61da      	str	r2, [r3, #28]
                                      SPI_I2SCFGR_I2SSTD | SPI_I2SCFGR_PCMSYNC | SPI_I2SCFGR_I2SCFG | \
                                      SPI_I2SCFGR_I2SE | SPI_I2SCFGR_I2SMOD));
  hi2s->Instance->I2SPR = 0x0002U;
 8002fc8:	6219      	str	r1, [r3, #32]

  /*----------------------- I2SPR: I2SDIV and ODD Calculation -----------------*/
  /* If the requested audio frequency is not the default, compute the prescaler */
  if (hi2s->Init.AudioFreq != I2S_AUDIOFREQ_DEFAULT)
 8002fca:	6963      	ldr	r3, [r4, #20]
  {
    /* Check the frame length (For the Prescaler computing) ********************/
    if (hi2s->Init.DataFormat == I2S_DATAFORMAT_16B)
 8002fcc:	68e2      	ldr	r2, [r4, #12]
  if (hi2s->Init.AudioFreq != I2S_AUDIOFREQ_DEFAULT)
 8002fce:	428b      	cmp	r3, r1
 8002fd0:	d035      	beq.n	800303e <HAL_I2S_Init+0xa6>
    {
      /* Packet length is 16 bits */
      packetlength = 16U;
 8002fd2:	2510      	movs	r5, #16
    if (hi2s->Init.DataFormat == I2S_DATAFORMAT_16B)
 8002fd4:	2a00      	cmp	r2, #0
 8002fd6:	d000      	beq.n	8002fda <HAL_I2S_Init+0x42>
    }
    else
    {
      /* Packet length is 32 bits */
      packetlength = 32U;
 8002fd8:	196d      	adds	r5, r5, r5
    }

    /* I2S standard */
    if (hi2s->Init.Standard <= I2S_STANDARD_LSB)
 8002fda:	68a3      	ldr	r3, [r4, #8]
 8002fdc:	2b20      	cmp	r3, #32
 8002fde:	d800      	bhi.n	8002fe2 <HAL_I2S_Init+0x4a>
    {
      /* In I2S standard packet length is multiplied by 2 */
      packetlength = packetlength * 2U;
 8002fe0:	006d      	lsls	r5, r5, #1
    }

    /* Get the source clock value: based on System Clock value */
    i2sclk = HAL_RCC_GetSysClockFreq();
 8002fe2:	f000 f851 	bl	8003088 <HAL_RCC_GetSysClockFreq>

    /* Compute the Real divider depending on the MCLK output state, with a floating point */
    if (hi2s->Init.MCLKOutput == I2S_MCLKOUTPUT_ENABLE)
 8002fe6:	2380      	movs	r3, #128	; 0x80
 8002fe8:	6922      	ldr	r2, [r4, #16]
 8002fea:	009b      	lsls	r3, r3, #2
 8002fec:	429a      	cmp	r2, r3
 8002fee:	d11f      	bne.n	8003030 <HAL_I2S_Init+0x98>
    {
      /* MCLK output is enabled */
      if (hi2s->Init.DataFormat != I2S_DATAFORMAT_16B)
 8002ff0:	68e3      	ldr	r3, [r4, #12]
      {
        tmp = (uint32_t)(((((i2sclk / (packetlength * 4U)) * 10U) / hi2s->Init.AudioFreq)) + 5U);
 8002ff2:	6967      	ldr	r7, [r4, #20]
 8002ff4:	00a9      	lsls	r1, r5, #2
      if (hi2s->Init.DataFormat != I2S_DATAFORMAT_16B)
 8002ff6:	2b00      	cmp	r3, #0
 8002ff8:	d100      	bne.n	8002ffc <HAL_I2S_Init+0x64>
      }
      else
      {
        tmp = (uint32_t)(((((i2sclk / (packetlength * 8U)) * 10U) / hi2s->Init.AudioFreq)) + 5U);
 8002ffa:	00e9      	lsls	r1, r5, #3
 8002ffc:	f7fd f884 	bl	8000108 <__udivsi3>
 8003000:	230a      	movs	r3, #10
 8003002:	0039      	movs	r1, r7
 8003004:	4358      	muls	r0, r3
      }
    }
    else
    {
      /* MCLK output is disabled */
      tmp = (uint32_t)(((((i2sclk / packetlength) * 10U) / hi2s->Init.AudioFreq)) + 5U);
 8003006:	f7fd f87f 	bl	8000108 <__udivsi3>
    }

    /* Remove the flatting point */
    tmp = tmp / 10U;
 800300a:	210a      	movs	r1, #10
      tmp = (uint32_t)(((((i2sclk / packetlength) * 10U) / hi2s->Init.AudioFreq)) + 5U);
 800300c:	3005      	adds	r0, #5
    tmp = tmp / 10U;
 800300e:	f7fd f87b 	bl	8000108 <__udivsi3>
 8003012:	0003      	movs	r3, r0

    /* Check the parity of the divider */
    i2sodd = (uint32_t)(tmp & (uint32_t)1U);
 8003014:	2001      	movs	r0, #1
 8003016:	0019      	movs	r1, r3

    /* Compute the i2sdiv prescaler */
    i2sdiv = (uint32_t)((tmp - i2sodd) / 2U);
 8003018:	4383      	bics	r3, r0
 800301a:	40c3      	lsrs	r3, r0
    i2sodd = (uint32_t)(tmp & (uint32_t)1U);
 800301c:	4001      	ands	r1, r0
    i2sdiv = 2U;
    i2sodd = 0U;
  }

  /* Test if the divider is 1 or 0 or greater than 0xFF */
  if ((i2sdiv < 2U) || (i2sdiv > 0xFFU))
 800301e:	1e9a      	subs	r2, r3, #2
    i2sodd = (uint32_t)(i2sodd << 8U);
 8003020:	0209      	lsls	r1, r1, #8
  if ((i2sdiv < 2U) || (i2sdiv > 0xFFU))
 8003022:	2afd      	cmp	r2, #253	; 0xfd
 8003024:	d90c      	bls.n	8003040 <HAL_I2S_Init+0xa8>
  {
    /* Set the error code and execute error callback*/
    SET_BIT(hi2s->ErrorCode, HAL_I2S_ERROR_PRESCALER);
 8003026:	2310      	movs	r3, #16
 8003028:	6ba2      	ldr	r2, [r4, #56]	; 0x38
 800302a:	4313      	orrs	r3, r2
 800302c:	63a3      	str	r3, [r4, #56]	; 0x38

  hi2s->ErrorCode = HAL_I2S_ERROR_NONE;
  hi2s->State     = HAL_I2S_STATE_READY;

  return HAL_OK;
}
 800302e:	bdf8      	pop	{r3, r4, r5, r6, r7, pc}
      tmp = (uint32_t)(((((i2sclk / packetlength) * 10U) / hi2s->Init.AudioFreq)) + 5U);
 8003030:	0029      	movs	r1, r5
 8003032:	f7fd f869 	bl	8000108 <__udivsi3>
 8003036:	230a      	movs	r3, #10
 8003038:	6961      	ldr	r1, [r4, #20]
 800303a:	4358      	muls	r0, r3
 800303c:	e7e3      	b.n	8003006 <HAL_I2S_Init+0x6e>
    i2sodd = 0U;
 800303e:	2100      	movs	r1, #0
  hi2s->Instance->I2SPR = (uint32_t)((uint32_t)i2sdiv | (uint32_t)(i2sodd | (uint32_t)hi2s->Init.MCLKOutput));
 8003040:	430b      	orrs	r3, r1
 8003042:	6921      	ldr	r1, [r4, #16]
 8003044:	6822      	ldr	r2, [r4, #0]
 8003046:	430b      	orrs	r3, r1
 8003048:	6213      	str	r3, [r2, #32]
  MODIFY_REG(hi2s->Instance->I2SCFGR, (SPI_I2SCFGR_CHLEN | SPI_I2SCFGR_DATLEN | \
 800304a:	68a1      	ldr	r1, [r4, #8]
 800304c:	69d0      	ldr	r0, [r2, #28]
 800304e:	6863      	ldr	r3, [r4, #4]
 8003050:	4d0c      	ldr	r5, [pc, #48]	; (8003084 <HAL_I2S_Init+0xec>)
 8003052:	430b      	orrs	r3, r1
 8003054:	4028      	ands	r0, r5
 8003056:	4303      	orrs	r3, r0
 8003058:	68e0      	ldr	r0, [r4, #12]
 800305a:	4303      	orrs	r3, r0
 800305c:	69a0      	ldr	r0, [r4, #24]
 800305e:	4303      	orrs	r3, r0
 8003060:	2080      	movs	r0, #128	; 0x80
 8003062:	0100      	lsls	r0, r0, #4
 8003064:	4303      	orrs	r3, r0
 8003066:	61d3      	str	r3, [r2, #28]
  if ((hi2s->Init.Standard == I2S_STANDARD_PCM_SHORT) || ((hi2s->Init.Standard == I2S_STANDARD_PCM_LONG)))
 8003068:	2380      	movs	r3, #128	; 0x80
 800306a:	4399      	bics	r1, r3
 800306c:	2930      	cmp	r1, #48	; 0x30
 800306e:	d104      	bne.n	800307a <HAL_I2S_Init+0xe2>
    SET_BIT(hi2s->Instance->I2SCFGR, SPI_I2SCFGR_ASTRTEN);
 8003070:	2380      	movs	r3, #128	; 0x80
 8003072:	69d1      	ldr	r1, [r2, #28]
 8003074:	015b      	lsls	r3, r3, #5
 8003076:	430b      	orrs	r3, r1
 8003078:	61d3      	str	r3, [r2, #28]
  hi2s->ErrorCode = HAL_I2S_ERROR_NONE;
 800307a:	2000      	movs	r0, #0
  hi2s->State     = HAL_I2S_STATE_READY;
 800307c:	2301      	movs	r3, #1
  hi2s->ErrorCode = HAL_I2S_ERROR_NONE;
 800307e:	63a0      	str	r0, [r4, #56]	; 0x38
  hi2s->State     = HAL_I2S_STATE_READY;
 8003080:	7033      	strb	r3, [r6, #0]
  return HAL_OK;
 8003082:	e7d4      	b.n	800302e <HAL_I2S_Init+0x96>
 8003084:	fffff040 	.word	0xfffff040

08003088 <HAL_RCC_GetSysClockFreq>:
  uint32_t sysclockfreq;

  tmpreg = RCC->CFGR;

  /* Get SYSCLK source -------------------------------------------------------*/
  switch (tmpreg & RCC_CFGR_SWS)
 8003088:	220c      	movs	r2, #12
  tmpreg = RCC->CFGR;
 800308a:	4b1d      	ldr	r3, [pc, #116]	; (8003100 <HAL_RCC_GetSysClockFreq+0x78>)
{
 800308c:	b570      	push	{r4, r5, r6, lr}
  tmpreg = RCC->CFGR;
 800308e:	68dc      	ldr	r4, [r3, #12]
  switch (tmpreg & RCC_CFGR_SWS)
 8003090:	4022      	ands	r2, r4
 8003092:	2a08      	cmp	r2, #8
 8003094:	d031      	beq.n	80030fa <HAL_RCC_GetSysClockFreq+0x72>
 8003096:	2a0c      	cmp	r2, #12
 8003098:	d009      	beq.n	80030ae <HAL_RCC_GetSysClockFreq+0x26>
 800309a:	2a04      	cmp	r2, #4
 800309c:	d125      	bne.n	80030ea <HAL_RCC_GetSysClockFreq+0x62>
  {
    case RCC_SYSCLKSOURCE_STATUS_HSI:  /* HSI used as system clock source */
    {
      if ((RCC->CR & RCC_CR_HSIDIVF) != 0U)
 800309e:	6818      	ldr	r0, [r3, #0]
      {
        sysclockfreq =  (HSI_VALUE >> 2);
      }
      else
      {
        sysclockfreq =  HSI_VALUE;
 80030a0:	4b18      	ldr	r3, [pc, #96]	; (8003104 <HAL_RCC_GetSysClockFreq+0x7c>)
      if ((RCC->CR & RCC_CR_HSIDIVF) != 0U)
 80030a2:	06c0      	lsls	r0, r0, #27
        sysclockfreq =  HSI_VALUE;
 80030a4:	17c0      	asrs	r0, r0, #31
 80030a6:	4018      	ands	r0, r3
 80030a8:	4b17      	ldr	r3, [pc, #92]	; (8003108 <HAL_RCC_GetSysClockFreq+0x80>)
 80030aa:	18c0      	adds	r0, r0, r3
      sysclockfreq = (32768U * (1UL << (msiclkrange + 1U)));
      break;
    }
  }
  return sysclockfreq;
}
 80030ac:	bd70      	pop	{r4, r5, r6, pc}
      pllm = PLLMulTable[(uint32_t)(tmpreg & RCC_CFGR_PLLMUL) >> RCC_CFGR_PLLMUL_Pos];
 80030ae:	02a2      	lsls	r2, r4, #10
 80030b0:	4816      	ldr	r0, [pc, #88]	; (800310c <HAL_RCC_GetSysClockFreq+0x84>)
 80030b2:	0f12      	lsrs	r2, r2, #28
        pllvco = (uint32_t)(((uint64_t)HSE_VALUE * (uint64_t)pllm) / (uint64_t)plld);
 80030b4:	5c80      	ldrb	r0, [r0, r2]
      if (__HAL_RCC_GET_PLL_OSCSOURCE() != RCC_PLLSOURCE_HSI)
 80030b6:	2280      	movs	r2, #128	; 0x80
      plld = ((uint32_t)(tmpreg & RCC_CFGR_PLLDIV) >> RCC_CFGR_PLLDIV_Pos) + 1U;
 80030b8:	0224      	lsls	r4, r4, #8
      if (__HAL_RCC_GET_PLL_OSCSOURCE() != RCC_PLLSOURCE_HSI)
 80030ba:	68d9      	ldr	r1, [r3, #12]
      plld = ((uint32_t)(tmpreg & RCC_CFGR_PLLDIV) >> RCC_CFGR_PLLDIV_Pos) + 1U;
 80030bc:	0fa4      	lsrs	r4, r4, #30
      if (__HAL_RCC_GET_PLL_OSCSOURCE() != RCC_PLLSOURCE_HSI)
 80030be:	0252      	lsls	r2, r2, #9
      plld = ((uint32_t)(tmpreg & RCC_CFGR_PLLDIV) >> RCC_CFGR_PLLDIV_Pos) + 1U;
 80030c0:	3401      	adds	r4, #1
      if (__HAL_RCC_GET_PLL_OSCSOURCE() != RCC_PLLSOURCE_HSI)
 80030c2:	4211      	tst	r1, r2
 80030c4:	d009      	beq.n	80030da <HAL_RCC_GetSysClockFreq+0x52>
        pllvco = (uint32_t)(((uint64_t)HSE_VALUE * (uint64_t)pllm) / (uint64_t)plld);
 80030c6:	4a12      	ldr	r2, [pc, #72]	; (8003110 <HAL_RCC_GetSysClockFreq+0x88>)
 80030c8:	2300      	movs	r3, #0
 80030ca:	2100      	movs	r1, #0
 80030cc:	f7fd f8c8 	bl	8000260 <__aeabi_lmul>
 80030d0:	0022      	movs	r2, r4
 80030d2:	2300      	movs	r3, #0
 80030d4:	f7fd f8a4 	bl	8000220 <__aeabi_uldivmod>
 80030d8:	e7e8      	b.n	80030ac <HAL_RCC_GetSysClockFreq+0x24>
        if ((RCC->CR & RCC_CR_HSIDIVF) != 0U)
 80030da:	681a      	ldr	r2, [r3, #0]
 80030dc:	2310      	movs	r3, #16
 80030de:	421a      	tst	r2, r3
 80030e0:	d001      	beq.n	80030e6 <HAL_RCC_GetSysClockFreq+0x5e>
          pllvco = (uint32_t)((((uint64_t)(HSI_VALUE >> 2)) * (uint64_t)pllm) / (uint64_t)plld);
 80030e2:	4a0c      	ldr	r2, [pc, #48]	; (8003114 <HAL_RCC_GetSysClockFreq+0x8c>)
 80030e4:	e7f0      	b.n	80030c8 <HAL_RCC_GetSysClockFreq+0x40>
         pllvco = (uint32_t)(((uint64_t)HSI_VALUE * (uint64_t)pllm) / (uint64_t)plld);
 80030e6:	4a08      	ldr	r2, [pc, #32]	; (8003108 <HAL_RCC_GetSysClockFreq+0x80>)
 80030e8:	e7ee      	b.n	80030c8 <HAL_RCC_GetSysClockFreq+0x40>
      sysclockfreq = (32768U * (1UL << (msiclkrange + 1U)));
 80030ea:	2080      	movs	r0, #128	; 0x80
      msiclkrange = (RCC->ICSCR & RCC_ICSCR_MSIRANGE ) >> RCC_ICSCR_MSIRANGE_Pos;
 80030ec:	685b      	ldr	r3, [r3, #4]
      sysclockfreq = (32768U * (1UL << (msiclkrange + 1U)));
 80030ee:	0200      	lsls	r0, r0, #8
      msiclkrange = (RCC->ICSCR & RCC_ICSCR_MSIRANGE ) >> RCC_ICSCR_MSIRANGE_Pos;
 80030f0:	041b      	lsls	r3, r3, #16
 80030f2:	0f5b      	lsrs	r3, r3, #29
      sysclockfreq = (32768U * (1UL << (msiclkrange + 1U)));
 80030f4:	3301      	adds	r3, #1
 80030f6:	4098      	lsls	r0, r3
      break;
 80030f8:	e7d8      	b.n	80030ac <HAL_RCC_GetSysClockFreq+0x24>
  switch (tmpreg & RCC_CFGR_SWS)
 80030fa:	4805      	ldr	r0, [pc, #20]	; (8003110 <HAL_RCC_GetSysClockFreq+0x88>)
 80030fc:	e7d6      	b.n	80030ac <HAL_RCC_GetSysClockFreq+0x24>
 80030fe:	46c0      	nop			; (mov r8, r8)
 8003100:	40021000 	.word	0x40021000
 8003104:	ff48e500 	.word	0xff48e500
 8003108:	00f42400 	.word	0x00f42400
 800310c:	0800543d 	.word	0x0800543d
 8003110:	007a1200 	.word	0x007a1200
 8003114:	003d0900 	.word	0x003d0900

08003118 <HAL_RCC_OscConfig>:
{
 8003118:	b5f0      	push	{r4, r5, r6, r7, lr}
 800311a:	0005      	movs	r5, r0
 800311c:	b085      	sub	sp, #20
  if(RCC_OscInitStruct == NULL)
 800311e:	2800      	cmp	r0, #0
 8003120:	d059      	beq.n	80031d6 <HAL_RCC_OscConfig+0xbe>
  sysclk_source = __HAL_RCC_GET_SYSCLK_SOURCE();
 8003122:	230c      	movs	r3, #12
 8003124:	4cb8      	ldr	r4, [pc, #736]	; (8003408 <HAL_RCC_OscConfig+0x2f0>)
  if(((RCC_OscInitStruct->OscillatorType) & RCC_OSCILLATORTYPE_HSE) == RCC_OSCILLATORTYPE_HSE)
 8003126:	6802      	ldr	r2, [r0, #0]
  sysclk_source = __HAL_RCC_GET_SYSCLK_SOURCE();
 8003128:	68e6      	ldr	r6, [r4, #12]
  pll_config = __HAL_RCC_GET_PLL_OSCSOURCE();
 800312a:	68e7      	ldr	r7, [r4, #12]
  sysclk_source = __HAL_RCC_GET_SYSCLK_SOURCE();
 800312c:	401e      	ands	r6, r3
  pll_config = __HAL_RCC_GET_PLL_OSCSOURCE();
 800312e:	2380      	movs	r3, #128	; 0x80
 8003130:	025b      	lsls	r3, r3, #9
 8003132:	0019      	movs	r1, r3
 8003134:	401f      	ands	r7, r3
  if(((RCC_OscInitStruct->OscillatorType) & RCC_OSCILLATORTYPE_HSE) == RCC_OSCILLATORTYPE_HSE)
 8003136:	07d2      	lsls	r2, r2, #31
 8003138:	d441      	bmi.n	80031be <HAL_RCC_OscConfig+0xa6>
  if(((RCC_OscInitStruct->OscillatorType) & RCC_OSCILLATORTYPE_HSI) == RCC_OSCILLATORTYPE_HSI)
 800313a:	682b      	ldr	r3, [r5, #0]
 800313c:	079b      	lsls	r3, r3, #30
 800313e:	d500      	bpl.n	8003142 <HAL_RCC_OscConfig+0x2a>
 8003140:	e08a      	b.n	8003258 <HAL_RCC_OscConfig+0x140>
  if(((RCC_OscInitStruct->OscillatorType) & RCC_OSCILLATORTYPE_MSI) == RCC_OSCILLATORTYPE_MSI)
 8003142:	682b      	ldr	r3, [r5, #0]
 8003144:	06db      	lsls	r3, r3, #27
 8003146:	d528      	bpl.n	800319a <HAL_RCC_OscConfig+0x82>
    if(sysclk_source == RCC_CFGR_SWS_MSI)
 8003148:	2e00      	cmp	r6, #0
 800314a:	d000      	beq.n	800314e <HAL_RCC_OscConfig+0x36>
 800314c:	e0e3      	b.n	8003316 <HAL_RCC_OscConfig+0x1fe>
      if((__HAL_RCC_GET_FLAG(RCC_FLAG_MSIRDY) != 0U) && (RCC_OscInitStruct->MSIState == RCC_MSI_OFF))
 800314e:	6823      	ldr	r3, [r4, #0]
 8003150:	059b      	lsls	r3, r3, #22
 8003152:	d502      	bpl.n	800315a <HAL_RCC_OscConfig+0x42>
 8003154:	69eb      	ldr	r3, [r5, #28]
 8003156:	2b00      	cmp	r3, #0
 8003158:	d03d      	beq.n	80031d6 <HAL_RCC_OscConfig+0xbe>
        SystemCoreClock =  (32768U * (1UL << ((RCC_OscInitStruct->MSIClockRange >> RCC_ICSCR_MSIRANGE_Pos) + 1U)))
 800315a:	2780      	movs	r7, #128	; 0x80
        __HAL_RCC_MSI_RANGE_CONFIG(RCC_OscInitStruct->MSIClockRange);
 800315c:	6862      	ldr	r2, [r4, #4]
 800315e:	49ab      	ldr	r1, [pc, #684]	; (800340c <HAL_RCC_OscConfig+0x2f4>)
 8003160:	6a6b      	ldr	r3, [r5, #36]	; 0x24
 8003162:	400a      	ands	r2, r1
 8003164:	431a      	orrs	r2, r3
        SystemCoreClock =  (32768U * (1UL << ((RCC_OscInitStruct->MSIClockRange >> RCC_ICSCR_MSIRANGE_Pos) + 1U)))
 8003166:	0b5b      	lsrs	r3, r3, #13
 8003168:	3301      	adds	r3, #1
 800316a:	023f      	lsls	r7, r7, #8
 800316c:	409f      	lsls	r7, r3
        __HAL_RCC_MSI_RANGE_CONFIG(RCC_OscInitStruct->MSIClockRange);
 800316e:	6062      	str	r2, [r4, #4]
        __HAL_RCC_MSI_CALIBRATIONVALUE_ADJUST(RCC_OscInitStruct->MSICalibrationValue);
 8003170:	6861      	ldr	r1, [r4, #4]
 8003172:	6a2a      	ldr	r2, [r5, #32]
 8003174:	0209      	lsls	r1, r1, #8
 8003176:	0a09      	lsrs	r1, r1, #8
 8003178:	0612      	lsls	r2, r2, #24
 800317a:	430a      	orrs	r2, r1
 800317c:	6062      	str	r2, [r4, #4]
                           >> AHBPrescTable[((RCC->CFGR & RCC_CFGR_HPRE) >> RCC_CFGR_HPRE_Pos)];
 800317e:	68e1      	ldr	r1, [r4, #12]
 8003180:	48a3      	ldr	r0, [pc, #652]	; (8003410 <HAL_RCC_OscConfig+0x2f8>)
 8003182:	060b      	lsls	r3, r1, #24
 8003184:	0f1b      	lsrs	r3, r3, #28
 8003186:	5cc3      	ldrb	r3, [r0, r3]
        SystemCoreClock =  (32768U * (1UL << ((RCC_OscInitStruct->MSIClockRange >> RCC_ICSCR_MSIRANGE_Pos) + 1U)))
 8003188:	4aa2      	ldr	r2, [pc, #648]	; (8003414 <HAL_RCC_OscConfig+0x2fc>)
                           >> AHBPrescTable[((RCC->CFGR & RCC_CFGR_HPRE) >> RCC_CFGR_HPRE_Pos)];
 800318a:	40df      	lsrs	r7, r3
        status = HAL_InitTick (uwTickPrio);
 800318c:	4ba2      	ldr	r3, [pc, #648]	; (8003418 <HAL_RCC_OscConfig+0x300>)
        SystemCoreClock =  (32768U * (1UL << ((RCC_OscInitStruct->MSIClockRange >> RCC_ICSCR_MSIRANGE_Pos) + 1U)))
 800318e:	6017      	str	r7, [r2, #0]
        status = HAL_InitTick (uwTickPrio);
 8003190:	6818      	ldr	r0, [r3, #0]
 8003192:	f7ff fcaf 	bl	8002af4 <HAL_InitTick>
        if(status != HAL_OK)
 8003196:	2800      	cmp	r0, #0
 8003198:	d134      	bne.n	8003204 <HAL_RCC_OscConfig+0xec>
  if(((RCC_OscInitStruct->OscillatorType) & RCC_OSCILLATORTYPE_LSI) == RCC_OSCILLATORTYPE_LSI)
 800319a:	682b      	ldr	r3, [r5, #0]
 800319c:	071b      	lsls	r3, r3, #28
 800319e:	d500      	bpl.n	80031a2 <HAL_RCC_OscConfig+0x8a>
 80031a0:	e0f0      	b.n	8003384 <HAL_RCC_OscConfig+0x26c>
  if(((RCC_OscInitStruct->OscillatorType) & RCC_OSCILLATORTYPE_LSE) == RCC_OSCILLATORTYPE_LSE)
 80031a2:	682b      	ldr	r3, [r5, #0]
 80031a4:	075b      	lsls	r3, r3, #29
 80031a6:	d500      	bpl.n	80031aa <HAL_RCC_OscConfig+0x92>
 80031a8:	e112      	b.n	80033d0 <HAL_RCC_OscConfig+0x2b8>
  if(((RCC_OscInitStruct->OscillatorType) & RCC_OSCILLATORTYPE_HSI48) == RCC_OSCILLATORTYPE_HSI48)
 80031aa:	682b      	ldr	r3, [r5, #0]
 80031ac:	069b      	lsls	r3, r3, #26
 80031ae:	d500      	bpl.n	80031b2 <HAL_RCC_OscConfig+0x9a>
 80031b0:	e197      	b.n	80034e2 <HAL_RCC_OscConfig+0x3ca>
  if ((RCC_OscInitStruct->PLL.PLLState) != RCC_PLL_NONE)
 80031b2:	6aab      	ldr	r3, [r5, #40]	; 0x28
 80031b4:	2b00      	cmp	r3, #0
 80031b6:	d000      	beq.n	80031ba <HAL_RCC_OscConfig+0xa2>
 80031b8:	e1c6      	b.n	8003548 <HAL_RCC_OscConfig+0x430>
  return HAL_OK;
 80031ba:	2000      	movs	r0, #0
 80031bc:	e022      	b.n	8003204 <HAL_RCC_OscConfig+0xec>
    if((sysclk_source == RCC_SYSCLKSOURCE_STATUS_HSE)
 80031be:	2e08      	cmp	r6, #8
 80031c0:	d003      	beq.n	80031ca <HAL_RCC_OscConfig+0xb2>
       || ((sysclk_source == RCC_SYSCLKSOURCE_STATUS_PLLCLK) && (pll_config == RCC_PLLSOURCE_HSE)))
 80031c2:	2e0c      	cmp	r6, #12
 80031c4:	d109      	bne.n	80031da <HAL_RCC_OscConfig+0xc2>
 80031c6:	2f00      	cmp	r7, #0
 80031c8:	d007      	beq.n	80031da <HAL_RCC_OscConfig+0xc2>
      if((__HAL_RCC_GET_FLAG(RCC_FLAG_HSERDY) != 0U) && (RCC_OscInitStruct->HSEState == RCC_HSE_OFF))
 80031ca:	6823      	ldr	r3, [r4, #0]
 80031cc:	039b      	lsls	r3, r3, #14
 80031ce:	d5b4      	bpl.n	800313a <HAL_RCC_OscConfig+0x22>
 80031d0:	686b      	ldr	r3, [r5, #4]
 80031d2:	2b00      	cmp	r3, #0
 80031d4:	d1b1      	bne.n	800313a <HAL_RCC_OscConfig+0x22>
          return HAL_ERROR;
 80031d6:	2001      	movs	r0, #1
 80031d8:	e014      	b.n	8003204 <HAL_RCC_OscConfig+0xec>
      __HAL_RCC_HSE_CONFIG(RCC_OscInitStruct->HSEState);
 80031da:	686a      	ldr	r2, [r5, #4]
 80031dc:	428a      	cmp	r2, r1
 80031de:	d113      	bne.n	8003208 <HAL_RCC_OscConfig+0xf0>
 80031e0:	6822      	ldr	r2, [r4, #0]
 80031e2:	4313      	orrs	r3, r2
 80031e4:	6023      	str	r3, [r4, #0]
        tickstart = HAL_GetTick();
 80031e6:	f7ff fcc9 	bl	8002b7c <HAL_GetTick>
 80031ea:	9000      	str	r0, [sp, #0]
        while(__HAL_RCC_GET_FLAG(RCC_FLAG_HSERDY) == 0U)
 80031ec:	2280      	movs	r2, #128	; 0x80
 80031ee:	6823      	ldr	r3, [r4, #0]
 80031f0:	0292      	lsls	r2, r2, #10
 80031f2:	4213      	tst	r3, r2
 80031f4:	d1a1      	bne.n	800313a <HAL_RCC_OscConfig+0x22>
          if((HAL_GetTick() - tickstart ) > HSE_TIMEOUT_VALUE)
 80031f6:	f7ff fcc1 	bl	8002b7c <HAL_GetTick>
 80031fa:	9b00      	ldr	r3, [sp, #0]
 80031fc:	1ac0      	subs	r0, r0, r3
 80031fe:	2864      	cmp	r0, #100	; 0x64
 8003200:	d9f4      	bls.n	80031ec <HAL_RCC_OscConfig+0xd4>
            return HAL_TIMEOUT;
 8003202:	2003      	movs	r0, #3
}
 8003204:	b005      	add	sp, #20
 8003206:	bdf0      	pop	{r4, r5, r6, r7, pc}
      __HAL_RCC_HSE_CONFIG(RCC_OscInitStruct->HSEState);
 8003208:	21a0      	movs	r1, #160	; 0xa0
 800320a:	02c9      	lsls	r1, r1, #11
 800320c:	428a      	cmp	r2, r1
 800320e:	d105      	bne.n	800321c <HAL_RCC_OscConfig+0x104>
 8003210:	2280      	movs	r2, #128	; 0x80
 8003212:	6821      	ldr	r1, [r4, #0]
 8003214:	02d2      	lsls	r2, r2, #11
 8003216:	430a      	orrs	r2, r1
 8003218:	6022      	str	r2, [r4, #0]
 800321a:	e7e1      	b.n	80031e0 <HAL_RCC_OscConfig+0xc8>
 800321c:	6821      	ldr	r1, [r4, #0]
 800321e:	487f      	ldr	r0, [pc, #508]	; (800341c <HAL_RCC_OscConfig+0x304>)
 8003220:	4001      	ands	r1, r0
 8003222:	6021      	str	r1, [r4, #0]
 8003224:	6821      	ldr	r1, [r4, #0]
 8003226:	400b      	ands	r3, r1
 8003228:	9303      	str	r3, [sp, #12]
 800322a:	9b03      	ldr	r3, [sp, #12]
 800322c:	497c      	ldr	r1, [pc, #496]	; (8003420 <HAL_RCC_OscConfig+0x308>)
 800322e:	6823      	ldr	r3, [r4, #0]
 8003230:	400b      	ands	r3, r1
 8003232:	6023      	str	r3, [r4, #0]
      if(RCC_OscInitStruct->HSEState != RCC_HSE_OFF)
 8003234:	2a00      	cmp	r2, #0
 8003236:	d1d6      	bne.n	80031e6 <HAL_RCC_OscConfig+0xce>
        tickstart = HAL_GetTick();
 8003238:	f7ff fca0 	bl	8002b7c <HAL_GetTick>
 800323c:	9000      	str	r0, [sp, #0]
        while(__HAL_RCC_GET_FLAG(RCC_FLAG_HSERDY) != 0U)
 800323e:	2280      	movs	r2, #128	; 0x80
 8003240:	6823      	ldr	r3, [r4, #0]
 8003242:	0292      	lsls	r2, r2, #10
 8003244:	4213      	tst	r3, r2
 8003246:	d100      	bne.n	800324a <HAL_RCC_OscConfig+0x132>
 8003248:	e777      	b.n	800313a <HAL_RCC_OscConfig+0x22>
           if((HAL_GetTick() - tickstart ) > HSE_TIMEOUT_VALUE)
 800324a:	f7ff fc97 	bl	8002b7c <HAL_GetTick>
 800324e:	9b00      	ldr	r3, [sp, #0]
 8003250:	1ac0      	subs	r0, r0, r3
 8003252:	2864      	cmp	r0, #100	; 0x64
 8003254:	d9f3      	bls.n	800323e <HAL_RCC_OscConfig+0x126>
 8003256:	e7d4      	b.n	8003202 <HAL_RCC_OscConfig+0xea>
    if((hsi_state & RCC_HSI_OUTEN) != 0U)
 8003258:	2220      	movs	r2, #32
    hsi_state = RCC_OscInitStruct->HSIState;
 800325a:	68eb      	ldr	r3, [r5, #12]
    if((hsi_state & RCC_HSI_OUTEN) != 0U)
 800325c:	4213      	tst	r3, r2
 800325e:	d003      	beq.n	8003268 <HAL_RCC_OscConfig+0x150>
      SET_BIT(RCC->CR, RCC_CR_HSIOUTEN);
 8003260:	6821      	ldr	r1, [r4, #0]
      hsi_state &= ~RCC_CR_HSIOUTEN;
 8003262:	4393      	bics	r3, r2
      SET_BIT(RCC->CR, RCC_CR_HSIOUTEN);
 8003264:	4311      	orrs	r1, r2
 8003266:	6021      	str	r1, [r4, #0]
    if((sysclk_source == RCC_SYSCLKSOURCE_STATUS_HSI)
 8003268:	2e04      	cmp	r6, #4
 800326a:	d003      	beq.n	8003274 <HAL_RCC_OscConfig+0x15c>
       || ((sysclk_source == RCC_SYSCLKSOURCE_STATUS_PLLCLK) && (pll_config == RCC_PLLSOURCE_HSI)))
 800326c:	2e0c      	cmp	r6, #12
 800326e:	d124      	bne.n	80032ba <HAL_RCC_OscConfig+0x1a2>
 8003270:	2f00      	cmp	r7, #0
 8003272:	d122      	bne.n	80032ba <HAL_RCC_OscConfig+0x1a2>
      if((__HAL_RCC_GET_FLAG(RCC_FLAG_HSIRDY) != 0U) && (hsi_state == RCC_HSI_OFF))
 8003274:	6822      	ldr	r2, [r4, #0]
 8003276:	0752      	lsls	r2, r2, #29
 8003278:	d501      	bpl.n	800327e <HAL_RCC_OscConfig+0x166>
 800327a:	2b00      	cmp	r3, #0
 800327c:	d0ab      	beq.n	80031d6 <HAL_RCC_OscConfig+0xbe>
        __HAL_RCC_HSI_CALIBRATIONVALUE_ADJUST(RCC_OscInitStruct->HSICalibrationValue);
 800327e:	6861      	ldr	r1, [r4, #4]
 8003280:	692a      	ldr	r2, [r5, #16]
 8003282:	4868      	ldr	r0, [pc, #416]	; (8003424 <HAL_RCC_OscConfig+0x30c>)
 8003284:	0212      	lsls	r2, r2, #8
 8003286:	4001      	ands	r1, r0
 8003288:	430a      	orrs	r2, r1
        __HAL_RCC_HSI_CONFIG(hsi_state);
 800328a:	2109      	movs	r1, #9
        __HAL_RCC_HSI_CALIBRATIONVALUE_ADJUST(RCC_OscInitStruct->HSICalibrationValue);
 800328c:	6062      	str	r2, [r4, #4]
        __HAL_RCC_HSI_CONFIG(hsi_state);
 800328e:	6822      	ldr	r2, [r4, #0]
 8003290:	438a      	bics	r2, r1
 8003292:	4313      	orrs	r3, r2
 8003294:	6023      	str	r3, [r4, #0]
      SystemCoreClock = HAL_RCC_GetSysClockFreq() >> AHBPrescTable[(RCC->CFGR & RCC_CFGR_HPRE)>> RCC_CFGR_HPRE_Pos];
 8003296:	f7ff fef7 	bl	8003088 <HAL_RCC_GetSysClockFreq>
 800329a:	68e3      	ldr	r3, [r4, #12]
 800329c:	4a5c      	ldr	r2, [pc, #368]	; (8003410 <HAL_RCC_OscConfig+0x2f8>)
 800329e:	061b      	lsls	r3, r3, #24
 80032a0:	0f1b      	lsrs	r3, r3, #28
 80032a2:	5cd3      	ldrb	r3, [r2, r3]
 80032a4:	495b      	ldr	r1, [pc, #364]	; (8003414 <HAL_RCC_OscConfig+0x2fc>)
 80032a6:	40d8      	lsrs	r0, r3
      status = HAL_InitTick (uwTickPrio);
 80032a8:	4b5b      	ldr	r3, [pc, #364]	; (8003418 <HAL_RCC_OscConfig+0x300>)
      SystemCoreClock = HAL_RCC_GetSysClockFreq() >> AHBPrescTable[(RCC->CFGR & RCC_CFGR_HPRE)>> RCC_CFGR_HPRE_Pos];
 80032aa:	6008      	str	r0, [r1, #0]
      status = HAL_InitTick (uwTickPrio);
 80032ac:	6818      	ldr	r0, [r3, #0]
 80032ae:	f7ff fc21 	bl	8002af4 <HAL_InitTick>
      if(status != HAL_OK)
 80032b2:	2800      	cmp	r0, #0
 80032b4:	d100      	bne.n	80032b8 <HAL_RCC_OscConfig+0x1a0>
 80032b6:	e744      	b.n	8003142 <HAL_RCC_OscConfig+0x2a>
 80032b8:	e7a4      	b.n	8003204 <HAL_RCC_OscConfig+0xec>
      if(hsi_state != RCC_HSI_OFF)
 80032ba:	2b00      	cmp	r3, #0
 80032bc:	d019      	beq.n	80032f2 <HAL_RCC_OscConfig+0x1da>
        __HAL_RCC_HSI_CONFIG(hsi_state);
 80032be:	2109      	movs	r1, #9
 80032c0:	6822      	ldr	r2, [r4, #0]
 80032c2:	438a      	bics	r2, r1
 80032c4:	4313      	orrs	r3, r2
 80032c6:	6023      	str	r3, [r4, #0]
        tickstart = HAL_GetTick();
 80032c8:	f7ff fc58 	bl	8002b7c <HAL_GetTick>
 80032cc:	0007      	movs	r7, r0
        while(__HAL_RCC_GET_FLAG(RCC_FLAG_HSIRDY) == 0U)
 80032ce:	2204      	movs	r2, #4
 80032d0:	6823      	ldr	r3, [r4, #0]
 80032d2:	4213      	tst	r3, r2
 80032d4:	d007      	beq.n	80032e6 <HAL_RCC_OscConfig+0x1ce>
        __HAL_RCC_HSI_CALIBRATIONVALUE_ADJUST(RCC_OscInitStruct->HSICalibrationValue);
 80032d6:	6862      	ldr	r2, [r4, #4]
 80032d8:	692b      	ldr	r3, [r5, #16]
 80032da:	4952      	ldr	r1, [pc, #328]	; (8003424 <HAL_RCC_OscConfig+0x30c>)
 80032dc:	021b      	lsls	r3, r3, #8
 80032de:	400a      	ands	r2, r1
 80032e0:	4313      	orrs	r3, r2
 80032e2:	6063      	str	r3, [r4, #4]
 80032e4:	e72d      	b.n	8003142 <HAL_RCC_OscConfig+0x2a>
          if((HAL_GetTick() - tickstart ) > HSI_TIMEOUT_VALUE)
 80032e6:	f7ff fc49 	bl	8002b7c <HAL_GetTick>
 80032ea:	1bc0      	subs	r0, r0, r7
 80032ec:	2802      	cmp	r0, #2
 80032ee:	d9ee      	bls.n	80032ce <HAL_RCC_OscConfig+0x1b6>
 80032f0:	e787      	b.n	8003202 <HAL_RCC_OscConfig+0xea>
        __HAL_RCC_HSI_DISABLE();
 80032f2:	2201      	movs	r2, #1
 80032f4:	6823      	ldr	r3, [r4, #0]
 80032f6:	4393      	bics	r3, r2
 80032f8:	6023      	str	r3, [r4, #0]
        tickstart = HAL_GetTick();
 80032fa:	f7ff fc3f 	bl	8002b7c <HAL_GetTick>
 80032fe:	0007      	movs	r7, r0
        while(__HAL_RCC_GET_FLAG(RCC_FLAG_HSIRDY) != 0U)
 8003300:	2204      	movs	r2, #4
 8003302:	6823      	ldr	r3, [r4, #0]
 8003304:	4213      	tst	r3, r2
 8003306:	d100      	bne.n	800330a <HAL_RCC_OscConfig+0x1f2>
 8003308:	e71b      	b.n	8003142 <HAL_RCC_OscConfig+0x2a>
          if((HAL_GetTick() - tickstart ) > HSI_TIMEOUT_VALUE)
 800330a:	f7ff fc37 	bl	8002b7c <HAL_GetTick>
 800330e:	1bc0      	subs	r0, r0, r7
 8003310:	2802      	cmp	r0, #2
 8003312:	d9f5      	bls.n	8003300 <HAL_RCC_OscConfig+0x1e8>
 8003314:	e775      	b.n	8003202 <HAL_RCC_OscConfig+0xea>
      if(RCC_OscInitStruct->MSIState != RCC_MSI_OFF)
 8003316:	69eb      	ldr	r3, [r5, #28]
 8003318:	2b00      	cmp	r3, #0
 800331a:	d020      	beq.n	800335e <HAL_RCC_OscConfig+0x246>
        __HAL_RCC_MSI_ENABLE();
 800331c:	2380      	movs	r3, #128	; 0x80
 800331e:	6822      	ldr	r2, [r4, #0]
 8003320:	005b      	lsls	r3, r3, #1
 8003322:	4313      	orrs	r3, r2
 8003324:	6023      	str	r3, [r4, #0]
        tickstart = HAL_GetTick();
 8003326:	f7ff fc29 	bl	8002b7c <HAL_GetTick>
 800332a:	0007      	movs	r7, r0
        while(__HAL_RCC_GET_FLAG(RCC_FLAG_MSIRDY) == 0U)
 800332c:	2280      	movs	r2, #128	; 0x80
 800332e:	6823      	ldr	r3, [r4, #0]
 8003330:	0092      	lsls	r2, r2, #2
 8003332:	4213      	tst	r3, r2
 8003334:	d00d      	beq.n	8003352 <HAL_RCC_OscConfig+0x23a>
        __HAL_RCC_MSI_RANGE_CONFIG(RCC_OscInitStruct->MSIClockRange);
 8003336:	6863      	ldr	r3, [r4, #4]
 8003338:	4a34      	ldr	r2, [pc, #208]	; (800340c <HAL_RCC_OscConfig+0x2f4>)
 800333a:	4013      	ands	r3, r2
 800333c:	6a6a      	ldr	r2, [r5, #36]	; 0x24
 800333e:	4313      	orrs	r3, r2
 8003340:	6063      	str	r3, [r4, #4]
        __HAL_RCC_MSI_CALIBRATIONVALUE_ADJUST(RCC_OscInitStruct->MSICalibrationValue);
 8003342:	6862      	ldr	r2, [r4, #4]
 8003344:	6a2b      	ldr	r3, [r5, #32]
 8003346:	0212      	lsls	r2, r2, #8
 8003348:	061b      	lsls	r3, r3, #24
 800334a:	0a12      	lsrs	r2, r2, #8
 800334c:	4313      	orrs	r3, r2
 800334e:	6063      	str	r3, [r4, #4]
 8003350:	e723      	b.n	800319a <HAL_RCC_OscConfig+0x82>
          if((HAL_GetTick() - tickstart) > MSI_TIMEOUT_VALUE)
 8003352:	f7ff fc13 	bl	8002b7c <HAL_GetTick>
 8003356:	1bc0      	subs	r0, r0, r7
 8003358:	2802      	cmp	r0, #2
 800335a:	d9e7      	bls.n	800332c <HAL_RCC_OscConfig+0x214>
 800335c:	e751      	b.n	8003202 <HAL_RCC_OscConfig+0xea>
        __HAL_RCC_MSI_DISABLE();
 800335e:	6823      	ldr	r3, [r4, #0]
 8003360:	4a31      	ldr	r2, [pc, #196]	; (8003428 <HAL_RCC_OscConfig+0x310>)
 8003362:	4013      	ands	r3, r2
 8003364:	6023      	str	r3, [r4, #0]
        tickstart = HAL_GetTick();
 8003366:	f7ff fc09 	bl	8002b7c <HAL_GetTick>
 800336a:	0007      	movs	r7, r0
        while(__HAL_RCC_GET_FLAG(RCC_FLAG_MSIRDY) != 0U)
 800336c:	2280      	movs	r2, #128	; 0x80
 800336e:	6823      	ldr	r3, [r4, #0]
 8003370:	0092      	lsls	r2, r2, #2
 8003372:	4213      	tst	r3, r2
 8003374:	d100      	bne.n	8003378 <HAL_RCC_OscConfig+0x260>
 8003376:	e710      	b.n	800319a <HAL_RCC_OscConfig+0x82>
          if((HAL_GetTick() - tickstart) > MSI_TIMEOUT_VALUE)
 8003378:	f7ff fc00 	bl	8002b7c <HAL_GetTick>
 800337c:	1bc0      	subs	r0, r0, r7
 800337e:	2802      	cmp	r0, #2
 8003380:	d9f4      	bls.n	800336c <HAL_RCC_OscConfig+0x254>
 8003382:	e73e      	b.n	8003202 <HAL_RCC_OscConfig+0xea>
    if(RCC_OscInitStruct->LSIState != RCC_LSI_OFF)
 8003384:	696a      	ldr	r2, [r5, #20]
 8003386:	2301      	movs	r3, #1
 8003388:	2a00      	cmp	r2, #0
 800338a:	d010      	beq.n	80033ae <HAL_RCC_OscConfig+0x296>
      __HAL_RCC_LSI_ENABLE();
 800338c:	6d22      	ldr	r2, [r4, #80]	; 0x50
 800338e:	4313      	orrs	r3, r2
 8003390:	6523      	str	r3, [r4, #80]	; 0x50
      tickstart = HAL_GetTick();
 8003392:	f7ff fbf3 	bl	8002b7c <HAL_GetTick>
 8003396:	0007      	movs	r7, r0
      while(__HAL_RCC_GET_FLAG(RCC_FLAG_LSIRDY) == 0U)
 8003398:	2202      	movs	r2, #2
 800339a:	6d23      	ldr	r3, [r4, #80]	; 0x50
 800339c:	4213      	tst	r3, r2
 800339e:	d000      	beq.n	80033a2 <HAL_RCC_OscConfig+0x28a>
 80033a0:	e6ff      	b.n	80031a2 <HAL_RCC_OscConfig+0x8a>
        if((HAL_GetTick() - tickstart ) > LSI_TIMEOUT_VALUE)
 80033a2:	f7ff fbeb 	bl	8002b7c <HAL_GetTick>
 80033a6:	1bc0      	subs	r0, r0, r7
 80033a8:	2802      	cmp	r0, #2
 80033aa:	d9f5      	bls.n	8003398 <HAL_RCC_OscConfig+0x280>
 80033ac:	e729      	b.n	8003202 <HAL_RCC_OscConfig+0xea>
      __HAL_RCC_LSI_DISABLE();
 80033ae:	6d22      	ldr	r2, [r4, #80]	; 0x50
 80033b0:	439a      	bics	r2, r3
 80033b2:	6522      	str	r2, [r4, #80]	; 0x50
      tickstart = HAL_GetTick();
 80033b4:	f7ff fbe2 	bl	8002b7c <HAL_GetTick>
 80033b8:	0007      	movs	r7, r0
      while(__HAL_RCC_GET_FLAG(RCC_FLAG_LSIRDY) != 0U)
 80033ba:	2202      	movs	r2, #2
 80033bc:	6d23      	ldr	r3, [r4, #80]	; 0x50
 80033be:	4213      	tst	r3, r2
 80033c0:	d100      	bne.n	80033c4 <HAL_RCC_OscConfig+0x2ac>
 80033c2:	e6ee      	b.n	80031a2 <HAL_RCC_OscConfig+0x8a>
        if((HAL_GetTick() - tickstart ) > LSI_TIMEOUT_VALUE)
 80033c4:	f7ff fbda 	bl	8002b7c <HAL_GetTick>
 80033c8:	1bc0      	subs	r0, r0, r7
 80033ca:	2802      	cmp	r0, #2
 80033cc:	d9f5      	bls.n	80033ba <HAL_RCC_OscConfig+0x2a2>
 80033ce:	e718      	b.n	8003202 <HAL_RCC_OscConfig+0xea>
    if(__HAL_RCC_PWR_IS_CLK_DISABLED())
 80033d0:	2380      	movs	r3, #128	; 0x80
    FlagStatus       pwrclkchanged = RESET;
 80033d2:	2100      	movs	r1, #0
    if(__HAL_RCC_PWR_IS_CLK_DISABLED())
 80033d4:	6ba2      	ldr	r2, [r4, #56]	; 0x38
 80033d6:	055b      	lsls	r3, r3, #21
    FlagStatus       pwrclkchanged = RESET;
 80033d8:	9100      	str	r1, [sp, #0]
    if(__HAL_RCC_PWR_IS_CLK_DISABLED())
 80033da:	421a      	tst	r2, r3
 80033dc:	d104      	bne.n	80033e8 <HAL_RCC_OscConfig+0x2d0>
      __HAL_RCC_PWR_CLK_ENABLE();
 80033de:	6ba2      	ldr	r2, [r4, #56]	; 0x38
 80033e0:	4313      	orrs	r3, r2
 80033e2:	63a3      	str	r3, [r4, #56]	; 0x38
      pwrclkchanged = SET;
 80033e4:	2301      	movs	r3, #1
 80033e6:	9300      	str	r3, [sp, #0]
    if(HAL_IS_BIT_CLR(PWR->CR, PWR_CR_DBP))
 80033e8:	2280      	movs	r2, #128	; 0x80
 80033ea:	4f10      	ldr	r7, [pc, #64]	; (800342c <HAL_RCC_OscConfig+0x314>)
 80033ec:	0052      	lsls	r2, r2, #1
 80033ee:	683b      	ldr	r3, [r7, #0]
 80033f0:	4213      	tst	r3, r2
 80033f2:	d01d      	beq.n	8003430 <HAL_RCC_OscConfig+0x318>
    __HAL_RCC_LSE_CONFIG(RCC_OscInitStruct->LSEState);
 80033f4:	2280      	movs	r2, #128	; 0x80
 80033f6:	68ab      	ldr	r3, [r5, #8]
 80033f8:	0052      	lsls	r2, r2, #1
 80033fa:	4293      	cmp	r3, r2
 80033fc:	d12c      	bne.n	8003458 <HAL_RCC_OscConfig+0x340>
 80033fe:	6d22      	ldr	r2, [r4, #80]	; 0x50
 8003400:	4313      	orrs	r3, r2
 8003402:	6523      	str	r3, [r4, #80]	; 0x50
 8003404:	e04d      	b.n	80034a2 <HAL_RCC_OscConfig+0x38a>
 8003406:	46c0      	nop			; (mov r8, r8)
 8003408:	40021000 	.word	0x40021000
 800340c:	ffff1fff 	.word	0xffff1fff
 8003410:	0800542d 	.word	0x0800542d
 8003414:	20000094 	.word	0x20000094
 8003418:	2000009c 	.word	0x2000009c
 800341c:	fffeffff 	.word	0xfffeffff
 8003420:	fffbffff 	.word	0xfffbffff
 8003424:	ffffe0ff 	.word	0xffffe0ff
 8003428:	fffffeff 	.word	0xfffffeff
 800342c:	40007000 	.word	0x40007000
      SET_BIT(PWR->CR, PWR_CR_DBP);
 8003430:	2280      	movs	r2, #128	; 0x80
 8003432:	683b      	ldr	r3, [r7, #0]
 8003434:	0052      	lsls	r2, r2, #1
 8003436:	4313      	orrs	r3, r2
 8003438:	603b      	str	r3, [r7, #0]
      tickstart = HAL_GetTick();
 800343a:	f7ff fb9f 	bl	8002b7c <HAL_GetTick>
 800343e:	9001      	str	r0, [sp, #4]
      while(HAL_IS_BIT_CLR(PWR->CR, PWR_CR_DBP))
 8003440:	2280      	movs	r2, #128	; 0x80
 8003442:	683b      	ldr	r3, [r7, #0]
 8003444:	0052      	lsls	r2, r2, #1
 8003446:	4213      	tst	r3, r2
 8003448:	d1d4      	bne.n	80033f4 <HAL_RCC_OscConfig+0x2dc>
        if((HAL_GetTick() - tickstart) > RCC_DBP_TIMEOUT_VALUE)
 800344a:	f7ff fb97 	bl	8002b7c <HAL_GetTick>
 800344e:	9b01      	ldr	r3, [sp, #4]
 8003450:	1ac0      	subs	r0, r0, r3
 8003452:	2864      	cmp	r0, #100	; 0x64
 8003454:	d9f4      	bls.n	8003440 <HAL_RCC_OscConfig+0x328>
 8003456:	e6d4      	b.n	8003202 <HAL_RCC_OscConfig+0xea>
    __HAL_RCC_LSE_CONFIG(RCC_OscInitStruct->LSEState);
 8003458:	2b00      	cmp	r3, #0
 800345a:	d116      	bne.n	800348a <HAL_RCC_OscConfig+0x372>
 800345c:	6d23      	ldr	r3, [r4, #80]	; 0x50
 800345e:	4a6b      	ldr	r2, [pc, #428]	; (800360c <HAL_RCC_OscConfig+0x4f4>)
 8003460:	4013      	ands	r3, r2
 8003462:	6523      	str	r3, [r4, #80]	; 0x50
 8003464:	6d23      	ldr	r3, [r4, #80]	; 0x50
 8003466:	4a6a      	ldr	r2, [pc, #424]	; (8003610 <HAL_RCC_OscConfig+0x4f8>)
 8003468:	4013      	ands	r3, r2
 800346a:	6523      	str	r3, [r4, #80]	; 0x50
      tickstart = HAL_GetTick();
 800346c:	f7ff fb86 	bl	8002b7c <HAL_GetTick>
 8003470:	0007      	movs	r7, r0
      while(__HAL_RCC_GET_FLAG(RCC_FLAG_LSERDY) != 0U)
 8003472:	2280      	movs	r2, #128	; 0x80
 8003474:	6d23      	ldr	r3, [r4, #80]	; 0x50
 8003476:	0092      	lsls	r2, r2, #2
 8003478:	4213      	tst	r3, r2
 800347a:	d01a      	beq.n	80034b2 <HAL_RCC_OscConfig+0x39a>
        if((HAL_GetTick() - tickstart ) > RCC_LSE_TIMEOUT_VALUE)
 800347c:	f7ff fb7e 	bl	8002b7c <HAL_GetTick>
 8003480:	4b64      	ldr	r3, [pc, #400]	; (8003614 <HAL_RCC_OscConfig+0x4fc>)
 8003482:	1bc0      	subs	r0, r0, r7
 8003484:	4298      	cmp	r0, r3
 8003486:	d9f4      	bls.n	8003472 <HAL_RCC_OscConfig+0x35a>
 8003488:	e6bb      	b.n	8003202 <HAL_RCC_OscConfig+0xea>
    __HAL_RCC_LSE_CONFIG(RCC_OscInitStruct->LSEState);
 800348a:	21a0      	movs	r1, #160	; 0xa0
 800348c:	00c9      	lsls	r1, r1, #3
 800348e:	428b      	cmp	r3, r1
 8003490:	d118      	bne.n	80034c4 <HAL_RCC_OscConfig+0x3ac>
 8003492:	2380      	movs	r3, #128	; 0x80
 8003494:	6d21      	ldr	r1, [r4, #80]	; 0x50
 8003496:	00db      	lsls	r3, r3, #3
 8003498:	430b      	orrs	r3, r1
 800349a:	6523      	str	r3, [r4, #80]	; 0x50
 800349c:	6d23      	ldr	r3, [r4, #80]	; 0x50
 800349e:	431a      	orrs	r2, r3
 80034a0:	6522      	str	r2, [r4, #80]	; 0x50
      tickstart = HAL_GetTick();
 80034a2:	f7ff fb6b 	bl	8002b7c <HAL_GetTick>
 80034a6:	0007      	movs	r7, r0
      while(__HAL_RCC_GET_FLAG(RCC_FLAG_LSERDY) == 0U)
 80034a8:	2280      	movs	r2, #128	; 0x80
 80034aa:	6d23      	ldr	r3, [r4, #80]	; 0x50
 80034ac:	0092      	lsls	r2, r2, #2
 80034ae:	4213      	tst	r3, r2
 80034b0:	d010      	beq.n	80034d4 <HAL_RCC_OscConfig+0x3bc>
    if(pwrclkchanged == SET)
 80034b2:	9b00      	ldr	r3, [sp, #0]
 80034b4:	2b01      	cmp	r3, #1
 80034b6:	d000      	beq.n	80034ba <HAL_RCC_OscConfig+0x3a2>
 80034b8:	e677      	b.n	80031aa <HAL_RCC_OscConfig+0x92>
      __HAL_RCC_PWR_CLK_DISABLE();
 80034ba:	6ba3      	ldr	r3, [r4, #56]	; 0x38
 80034bc:	4a56      	ldr	r2, [pc, #344]	; (8003618 <HAL_RCC_OscConfig+0x500>)
 80034be:	4013      	ands	r3, r2
 80034c0:	63a3      	str	r3, [r4, #56]	; 0x38
 80034c2:	e672      	b.n	80031aa <HAL_RCC_OscConfig+0x92>
    __HAL_RCC_LSE_CONFIG(RCC_OscInitStruct->LSEState);
 80034c4:	6d23      	ldr	r3, [r4, #80]	; 0x50
 80034c6:	4a51      	ldr	r2, [pc, #324]	; (800360c <HAL_RCC_OscConfig+0x4f4>)
 80034c8:	4013      	ands	r3, r2
 80034ca:	6523      	str	r3, [r4, #80]	; 0x50
 80034cc:	6d23      	ldr	r3, [r4, #80]	; 0x50
 80034ce:	4a50      	ldr	r2, [pc, #320]	; (8003610 <HAL_RCC_OscConfig+0x4f8>)
 80034d0:	4013      	ands	r3, r2
 80034d2:	e796      	b.n	8003402 <HAL_RCC_OscConfig+0x2ea>
        if((HAL_GetTick() - tickstart ) > RCC_LSE_TIMEOUT_VALUE)
 80034d4:	f7ff fb52 	bl	8002b7c <HAL_GetTick>
 80034d8:	4b4e      	ldr	r3, [pc, #312]	; (8003614 <HAL_RCC_OscConfig+0x4fc>)
 80034da:	1bc0      	subs	r0, r0, r7
 80034dc:	4298      	cmp	r0, r3
 80034de:	d9e3      	bls.n	80034a8 <HAL_RCC_OscConfig+0x390>
 80034e0:	e68f      	b.n	8003202 <HAL_RCC_OscConfig+0xea>
      if(RCC_OscInitStruct->HSI48State != RCC_HSI48_OFF)
 80034e2:	69aa      	ldr	r2, [r5, #24]
 80034e4:	2101      	movs	r1, #1
 80034e6:	4b4d      	ldr	r3, [pc, #308]	; (800361c <HAL_RCC_OscConfig+0x504>)
 80034e8:	2a00      	cmp	r2, #0
 80034ea:	d018      	beq.n	800351e <HAL_RCC_OscConfig+0x406>
        __HAL_RCC_HSI48_ENABLE();
 80034ec:	68a2      	ldr	r2, [r4, #8]
 80034ee:	430a      	orrs	r2, r1
 80034f0:	60a2      	str	r2, [r4, #8]
 80034f2:	6b62      	ldr	r2, [r4, #52]	; 0x34
 80034f4:	430a      	orrs	r2, r1
 80034f6:	6362      	str	r2, [r4, #52]	; 0x34
 80034f8:	2280      	movs	r2, #128	; 0x80
 80034fa:	6a19      	ldr	r1, [r3, #32]
 80034fc:	0192      	lsls	r2, r2, #6
 80034fe:	430a      	orrs	r2, r1
 8003500:	621a      	str	r2, [r3, #32]
        tickstart = HAL_GetTick();
 8003502:	f7ff fb3b 	bl	8002b7c <HAL_GetTick>
 8003506:	0007      	movs	r7, r0
        while(__HAL_RCC_GET_FLAG(RCC_FLAG_HSI48RDY) == 0U)
 8003508:	2202      	movs	r2, #2
 800350a:	68a3      	ldr	r3, [r4, #8]
 800350c:	4213      	tst	r3, r2
 800350e:	d000      	beq.n	8003512 <HAL_RCC_OscConfig+0x3fa>
 8003510:	e64f      	b.n	80031b2 <HAL_RCC_OscConfig+0x9a>
          if((HAL_GetTick() - tickstart) > HSI48_TIMEOUT_VALUE)
 8003512:	f7ff fb33 	bl	8002b7c <HAL_GetTick>
 8003516:	1bc0      	subs	r0, r0, r7
 8003518:	2802      	cmp	r0, #2
 800351a:	d9f5      	bls.n	8003508 <HAL_RCC_OscConfig+0x3f0>
 800351c:	e671      	b.n	8003202 <HAL_RCC_OscConfig+0xea>
        __HAL_RCC_HSI48_DISABLE();
 800351e:	68a2      	ldr	r2, [r4, #8]
 8003520:	438a      	bics	r2, r1
 8003522:	60a2      	str	r2, [r4, #8]
 8003524:	6a1a      	ldr	r2, [r3, #32]
 8003526:	493e      	ldr	r1, [pc, #248]	; (8003620 <HAL_RCC_OscConfig+0x508>)
 8003528:	400a      	ands	r2, r1
 800352a:	621a      	str	r2, [r3, #32]
        tickstart = HAL_GetTick();
 800352c:	f7ff fb26 	bl	8002b7c <HAL_GetTick>
 8003530:	0007      	movs	r7, r0
        while(__HAL_RCC_GET_FLAG(RCC_FLAG_HSI48RDY) != 0U)
 8003532:	2202      	movs	r2, #2
 8003534:	68a3      	ldr	r3, [r4, #8]
 8003536:	4213      	tst	r3, r2
 8003538:	d100      	bne.n	800353c <HAL_RCC_OscConfig+0x424>
 800353a:	e63a      	b.n	80031b2 <HAL_RCC_OscConfig+0x9a>
          if((HAL_GetTick() - tickstart) > HSI48_TIMEOUT_VALUE)
 800353c:	f7ff fb1e 	bl	8002b7c <HAL_GetTick>
 8003540:	1bc0      	subs	r0, r0, r7
 8003542:	2802      	cmp	r0, #2
 8003544:	d9f5      	bls.n	8003532 <HAL_RCC_OscConfig+0x41a>
 8003546:	e65c      	b.n	8003202 <HAL_RCC_OscConfig+0xea>
    if(sysclk_source != RCC_SYSCLKSOURCE_STATUS_PLLCLK)
 8003548:	2e0c      	cmp	r6, #12
 800354a:	d043      	beq.n	80035d4 <HAL_RCC_OscConfig+0x4bc>
      if((RCC_OscInitStruct->PLL.PLLState) == RCC_PLL_ON)
 800354c:	4a35      	ldr	r2, [pc, #212]	; (8003624 <HAL_RCC_OscConfig+0x50c>)
 800354e:	2b02      	cmp	r3, #2
 8003550:	d12e      	bne.n	80035b0 <HAL_RCC_OscConfig+0x498>
        __HAL_RCC_PLL_DISABLE();
 8003552:	6823      	ldr	r3, [r4, #0]
        while(__HAL_RCC_GET_FLAG(RCC_FLAG_PLLRDY)  != 0U)
 8003554:	2780      	movs	r7, #128	; 0x80
        __HAL_RCC_PLL_DISABLE();
 8003556:	4013      	ands	r3, r2
 8003558:	6023      	str	r3, [r4, #0]
        tickstart = HAL_GetTick();
 800355a:	f7ff fb0f 	bl	8002b7c <HAL_GetTick>
 800355e:	0006      	movs	r6, r0
        while(__HAL_RCC_GET_FLAG(RCC_FLAG_PLLRDY)  != 0U)
 8003560:	04bf      	lsls	r7, r7, #18
 8003562:	6823      	ldr	r3, [r4, #0]
 8003564:	423b      	tst	r3, r7
 8003566:	d11d      	bne.n	80035a4 <HAL_RCC_OscConfig+0x48c>
        __HAL_RCC_PLL_CONFIG(RCC_OscInitStruct->PLL.PLLSource,
 8003568:	6b29      	ldr	r1, [r5, #48]	; 0x30
 800356a:	6aeb      	ldr	r3, [r5, #44]	; 0x2c
 800356c:	68e2      	ldr	r2, [r4, #12]
 800356e:	430b      	orrs	r3, r1
 8003570:	492d      	ldr	r1, [pc, #180]	; (8003628 <HAL_RCC_OscConfig+0x510>)
        while(__HAL_RCC_GET_FLAG(RCC_FLAG_PLLRDY)  == 0U)
 8003572:	2680      	movs	r6, #128	; 0x80
        __HAL_RCC_PLL_CONFIG(RCC_OscInitStruct->PLL.PLLSource,
 8003574:	400a      	ands	r2, r1
 8003576:	4313      	orrs	r3, r2
 8003578:	6b6a      	ldr	r2, [r5, #52]	; 0x34
        while(__HAL_RCC_GET_FLAG(RCC_FLAG_PLLRDY)  == 0U)
 800357a:	04b6      	lsls	r6, r6, #18
        __HAL_RCC_PLL_CONFIG(RCC_OscInitStruct->PLL.PLLSource,
 800357c:	4313      	orrs	r3, r2
 800357e:	60e3      	str	r3, [r4, #12]
        __HAL_RCC_PLL_ENABLE();
 8003580:	2380      	movs	r3, #128	; 0x80
 8003582:	6822      	ldr	r2, [r4, #0]
 8003584:	045b      	lsls	r3, r3, #17
 8003586:	4313      	orrs	r3, r2
 8003588:	6023      	str	r3, [r4, #0]
        tickstart = HAL_GetTick();
 800358a:	f7ff faf7 	bl	8002b7c <HAL_GetTick>
 800358e:	0005      	movs	r5, r0
        while(__HAL_RCC_GET_FLAG(RCC_FLAG_PLLRDY)  == 0U)
 8003590:	6823      	ldr	r3, [r4, #0]
 8003592:	4233      	tst	r3, r6
 8003594:	d000      	beq.n	8003598 <HAL_RCC_OscConfig+0x480>
 8003596:	e610      	b.n	80031ba <HAL_RCC_OscConfig+0xa2>
          if((HAL_GetTick() - tickstart ) > PLL_TIMEOUT_VALUE)
 8003598:	f7ff faf0 	bl	8002b7c <HAL_GetTick>
 800359c:	1b40      	subs	r0, r0, r5
 800359e:	2802      	cmp	r0, #2
 80035a0:	d9f6      	bls.n	8003590 <HAL_RCC_OscConfig+0x478>
 80035a2:	e62e      	b.n	8003202 <HAL_RCC_OscConfig+0xea>
          if((HAL_GetTick() - tickstart ) > PLL_TIMEOUT_VALUE)
 80035a4:	f7ff faea 	bl	8002b7c <HAL_GetTick>
 80035a8:	1b80      	subs	r0, r0, r6
 80035aa:	2802      	cmp	r0, #2
 80035ac:	d9d9      	bls.n	8003562 <HAL_RCC_OscConfig+0x44a>
 80035ae:	e628      	b.n	8003202 <HAL_RCC_OscConfig+0xea>
        __HAL_RCC_PLL_DISABLE();
 80035b0:	6823      	ldr	r3, [r4, #0]
        while(__HAL_RCC_GET_FLAG(RCC_FLAG_PLLRDY)  != 0U)
 80035b2:	2680      	movs	r6, #128	; 0x80
        __HAL_RCC_PLL_DISABLE();
 80035b4:	4013      	ands	r3, r2
 80035b6:	6023      	str	r3, [r4, #0]
        tickstart = HAL_GetTick();
 80035b8:	f7ff fae0 	bl	8002b7c <HAL_GetTick>
 80035bc:	0005      	movs	r5, r0
        while(__HAL_RCC_GET_FLAG(RCC_FLAG_PLLRDY)  != 0U)
 80035be:	04b6      	lsls	r6, r6, #18
 80035c0:	6823      	ldr	r3, [r4, #0]
 80035c2:	4233      	tst	r3, r6
 80035c4:	d100      	bne.n	80035c8 <HAL_RCC_OscConfig+0x4b0>
 80035c6:	e5f8      	b.n	80031ba <HAL_RCC_OscConfig+0xa2>
          if((HAL_GetTick() - tickstart ) > PLL_TIMEOUT_VALUE)
 80035c8:	f7ff fad8 	bl	8002b7c <HAL_GetTick>
 80035cc:	1b40      	subs	r0, r0, r5
 80035ce:	2802      	cmp	r0, #2
 80035d0:	d9f6      	bls.n	80035c0 <HAL_RCC_OscConfig+0x4a8>
 80035d2:	e616      	b.n	8003202 <HAL_RCC_OscConfig+0xea>
        return HAL_ERROR;
 80035d4:	0018      	movs	r0, r3
      if((RCC_OscInitStruct->PLL.PLLState) == RCC_PLL_OFF)
 80035d6:	2b01      	cmp	r3, #1
 80035d8:	d100      	bne.n	80035dc <HAL_RCC_OscConfig+0x4c4>
 80035da:	e613      	b.n	8003204 <HAL_RCC_OscConfig+0xec>
        if((READ_BIT(pll_config, RCC_CFGR_PLLSRC) != RCC_OscInitStruct->PLL.PLLSource) ||
 80035dc:	2280      	movs	r2, #128	; 0x80
        pll_config = RCC->CFGR;
 80035de:	68e3      	ldr	r3, [r4, #12]
        if((READ_BIT(pll_config, RCC_CFGR_PLLSRC) != RCC_OscInitStruct->PLL.PLLSource) ||
 80035e0:	6ae9      	ldr	r1, [r5, #44]	; 0x2c
 80035e2:	0252      	lsls	r2, r2, #9
 80035e4:	401a      	ands	r2, r3
 80035e6:	428a      	cmp	r2, r1
 80035e8:	d000      	beq.n	80035ec <HAL_RCC_OscConfig+0x4d4>
 80035ea:	e5f4      	b.n	80031d6 <HAL_RCC_OscConfig+0xbe>
           (READ_BIT(pll_config, RCC_CFGR_PLLMUL) != RCC_OscInitStruct->PLL.PLLMUL) ||
 80035ec:	22f0      	movs	r2, #240	; 0xf0
        if((READ_BIT(pll_config, RCC_CFGR_PLLSRC) != RCC_OscInitStruct->PLL.PLLSource) ||
 80035ee:	6b29      	ldr	r1, [r5, #48]	; 0x30
           (READ_BIT(pll_config, RCC_CFGR_PLLMUL) != RCC_OscInitStruct->PLL.PLLMUL) ||
 80035f0:	0392      	lsls	r2, r2, #14
 80035f2:	401a      	ands	r2, r3
        if((READ_BIT(pll_config, RCC_CFGR_PLLSRC) != RCC_OscInitStruct->PLL.PLLSource) ||
 80035f4:	428a      	cmp	r2, r1
 80035f6:	d000      	beq.n	80035fa <HAL_RCC_OscConfig+0x4e2>
 80035f8:	e5ed      	b.n	80031d6 <HAL_RCC_OscConfig+0xbe>
           (READ_BIT(pll_config, RCC_CFGR_PLLDIV) != RCC_OscInitStruct->PLL.PLLDIV))
 80035fa:	22c0      	movs	r2, #192	; 0xc0
 80035fc:	0412      	lsls	r2, r2, #16
 80035fe:	4013      	ands	r3, r2
           (READ_BIT(pll_config, RCC_CFGR_PLLMUL) != RCC_OscInitStruct->PLL.PLLMUL) ||
 8003600:	6b6a      	ldr	r2, [r5, #52]	; 0x34
 8003602:	4293      	cmp	r3, r2
 8003604:	d100      	bne.n	8003608 <HAL_RCC_OscConfig+0x4f0>
 8003606:	e5d8      	b.n	80031ba <HAL_RCC_OscConfig+0xa2>
 8003608:	e5e5      	b.n	80031d6 <HAL_RCC_OscConfig+0xbe>
 800360a:	46c0      	nop			; (mov r8, r8)
 800360c:	fffffeff 	.word	0xfffffeff
 8003610:	fffffbff 	.word	0xfffffbff
 8003614:	00001388 	.word	0x00001388
 8003618:	efffffff 	.word	0xefffffff
 800361c:	40010000 	.word	0x40010000
 8003620:	ffffdfff 	.word	0xffffdfff
 8003624:	feffffff 	.word	0xfeffffff
 8003628:	ff02ffff 	.word	0xff02ffff

0800362c <HAL_RCC_ClockConfig>:
{
 800362c:	b5f7      	push	{r0, r1, r2, r4, r5, r6, r7, lr}
 800362e:	1e04      	subs	r4, r0, #0
 8003630:	9101      	str	r1, [sp, #4]
  if(RCC_ClkInitStruct == NULL)
 8003632:	d101      	bne.n	8003638 <HAL_RCC_ClockConfig+0xc>
    return HAL_ERROR;
 8003634:	2001      	movs	r0, #1
}
 8003636:	bdfe      	pop	{r1, r2, r3, r4, r5, r6, r7, pc}
  if(FLatency > __HAL_FLASH_GET_LATENCY())
 8003638:	2501      	movs	r5, #1
 800363a:	4e5b      	ldr	r6, [pc, #364]	; (80037a8 <HAL_RCC_ClockConfig+0x17c>)
 800363c:	9a01      	ldr	r2, [sp, #4]
 800363e:	6833      	ldr	r3, [r6, #0]
 8003640:	402b      	ands	r3, r5
 8003642:	4293      	cmp	r3, r2
 8003644:	d331      	bcc.n	80036aa <HAL_RCC_ClockConfig+0x7e>
  if(((RCC_ClkInitStruct->ClockType) & RCC_CLOCKTYPE_HCLK) == RCC_CLOCKTYPE_HCLK)
 8003646:	6822      	ldr	r2, [r4, #0]
 8003648:	0793      	lsls	r3, r2, #30
 800364a:	d443      	bmi.n	80036d4 <HAL_RCC_ClockConfig+0xa8>
  if(((RCC_ClkInitStruct->ClockType) & RCC_CLOCKTYPE_SYSCLK) == RCC_CLOCKTYPE_SYSCLK)
 800364c:	07d2      	lsls	r2, r2, #31
 800364e:	d449      	bmi.n	80036e4 <HAL_RCC_ClockConfig+0xb8>
  if(FLatency < __HAL_FLASH_GET_LATENCY())
 8003650:	2501      	movs	r5, #1
 8003652:	6833      	ldr	r3, [r6, #0]
 8003654:	9a01      	ldr	r2, [sp, #4]
 8003656:	402b      	ands	r3, r5
 8003658:	4293      	cmp	r3, r2
 800365a:	d909      	bls.n	8003670 <HAL_RCC_ClockConfig+0x44>
    __HAL_FLASH_SET_LATENCY(FLatency);
 800365c:	6833      	ldr	r3, [r6, #0]
 800365e:	43ab      	bics	r3, r5
 8003660:	6033      	str	r3, [r6, #0]
    tickstart = HAL_GetTick();
 8003662:	f7ff fa8b 	bl	8002b7c <HAL_GetTick>
 8003666:	0007      	movs	r7, r0
    while (__HAL_FLASH_GET_LATENCY() != FLatency)
 8003668:	6833      	ldr	r3, [r6, #0]
 800366a:	422b      	tst	r3, r5
 800366c:	d000      	beq.n	8003670 <HAL_RCC_ClockConfig+0x44>
 800366e:	e08c      	b.n	800378a <HAL_RCC_ClockConfig+0x15e>
  if(((RCC_ClkInitStruct->ClockType) & RCC_CLOCKTYPE_PCLK1) == RCC_CLOCKTYPE_PCLK1)
 8003670:	6822      	ldr	r2, [r4, #0]
 8003672:	4d4e      	ldr	r5, [pc, #312]	; (80037ac <HAL_RCC_ClockConfig+0x180>)
 8003674:	0753      	lsls	r3, r2, #29
 8003676:	d500      	bpl.n	800367a <HAL_RCC_ClockConfig+0x4e>
 8003678:	e08f      	b.n	800379a <HAL_RCC_ClockConfig+0x16e>
  if(((RCC_ClkInitStruct->ClockType) & RCC_CLOCKTYPE_PCLK2) == RCC_CLOCKTYPE_PCLK2)
 800367a:	0712      	lsls	r2, r2, #28
 800367c:	d506      	bpl.n	800368c <HAL_RCC_ClockConfig+0x60>
    MODIFY_REG(RCC->CFGR, RCC_CFGR_PPRE2, ((RCC_ClkInitStruct->APB2CLKDivider) << 3));
 800367e:	68ea      	ldr	r2, [r5, #12]
 8003680:	6923      	ldr	r3, [r4, #16]
 8003682:	494b      	ldr	r1, [pc, #300]	; (80037b0 <HAL_RCC_ClockConfig+0x184>)
 8003684:	00db      	lsls	r3, r3, #3
 8003686:	400a      	ands	r2, r1
 8003688:	4313      	orrs	r3, r2
 800368a:	60eb      	str	r3, [r5, #12]
  SystemCoreClock = HAL_RCC_GetSysClockFreq() >> AHBPrescTable[(RCC->CFGR & RCC_CFGR_HPRE)>> RCC_CFGR_HPRE_Pos];
 800368c:	f7ff fcfc 	bl	8003088 <HAL_RCC_GetSysClockFreq>
 8003690:	68eb      	ldr	r3, [r5, #12]
 8003692:	4a48      	ldr	r2, [pc, #288]	; (80037b4 <HAL_RCC_ClockConfig+0x188>)
 8003694:	061b      	lsls	r3, r3, #24
 8003696:	0f1b      	lsrs	r3, r3, #28
 8003698:	5cd3      	ldrb	r3, [r2, r3]
 800369a:	4947      	ldr	r1, [pc, #284]	; (80037b8 <HAL_RCC_ClockConfig+0x18c>)
 800369c:	40d8      	lsrs	r0, r3
  status = HAL_InitTick(uwTickPrio);
 800369e:	4b47      	ldr	r3, [pc, #284]	; (80037bc <HAL_RCC_ClockConfig+0x190>)
  SystemCoreClock = HAL_RCC_GetSysClockFreq() >> AHBPrescTable[(RCC->CFGR & RCC_CFGR_HPRE)>> RCC_CFGR_HPRE_Pos];
 80036a0:	6008      	str	r0, [r1, #0]
  status = HAL_InitTick(uwTickPrio);
 80036a2:	6818      	ldr	r0, [r3, #0]
 80036a4:	f7ff fa26 	bl	8002af4 <HAL_InitTick>
  if(status != HAL_OK)
 80036a8:	e7c5      	b.n	8003636 <HAL_RCC_ClockConfig+0xa>
    __HAL_FLASH_SET_LATENCY(FLatency);
 80036aa:	6833      	ldr	r3, [r6, #0]
 80036ac:	9a01      	ldr	r2, [sp, #4]
 80036ae:	43ab      	bics	r3, r5
 80036b0:	4313      	orrs	r3, r2
 80036b2:	6033      	str	r3, [r6, #0]
    tickstart = HAL_GetTick();
 80036b4:	f7ff fa62 	bl	8002b7c <HAL_GetTick>
 80036b8:	0007      	movs	r7, r0
    while (__HAL_FLASH_GET_LATENCY() != FLatency)
 80036ba:	6833      	ldr	r3, [r6, #0]
 80036bc:	9a01      	ldr	r2, [sp, #4]
 80036be:	402b      	ands	r3, r5
 80036c0:	4293      	cmp	r3, r2
 80036c2:	d0c0      	beq.n	8003646 <HAL_RCC_ClockConfig+0x1a>
      if ((HAL_GetTick() - tickstart) > CLOCKSWITCH_TIMEOUT_VALUE)
 80036c4:	f7ff fa5a 	bl	8002b7c <HAL_GetTick>
 80036c8:	4b3d      	ldr	r3, [pc, #244]	; (80037c0 <HAL_RCC_ClockConfig+0x194>)
 80036ca:	1bc0      	subs	r0, r0, r7
 80036cc:	4298      	cmp	r0, r3
 80036ce:	d9f4      	bls.n	80036ba <HAL_RCC_ClockConfig+0x8e>
        return HAL_TIMEOUT;
 80036d0:	2003      	movs	r0, #3
 80036d2:	e7b0      	b.n	8003636 <HAL_RCC_ClockConfig+0xa>
    MODIFY_REG(RCC->CFGR, RCC_CFGR_HPRE, RCC_ClkInitStruct->AHBCLKDivider);
 80036d4:	20f0      	movs	r0, #240	; 0xf0
 80036d6:	4935      	ldr	r1, [pc, #212]	; (80037ac <HAL_RCC_ClockConfig+0x180>)
 80036d8:	68cb      	ldr	r3, [r1, #12]
 80036da:	4383      	bics	r3, r0
 80036dc:	68a0      	ldr	r0, [r4, #8]
 80036de:	4303      	orrs	r3, r0
 80036e0:	60cb      	str	r3, [r1, #12]
 80036e2:	e7b3      	b.n	800364c <HAL_RCC_ClockConfig+0x20>
    if(RCC_ClkInitStruct->SYSCLKSource == RCC_SYSCLKSOURCE_HSE)
 80036e4:	4d31      	ldr	r5, [pc, #196]	; (80037ac <HAL_RCC_ClockConfig+0x180>)
 80036e6:	6862      	ldr	r2, [r4, #4]
      if(__HAL_RCC_GET_FLAG(RCC_FLAG_HSERDY) == 0U)
 80036e8:	682b      	ldr	r3, [r5, #0]
    if(RCC_ClkInitStruct->SYSCLKSource == RCC_SYSCLKSOURCE_HSE)
 80036ea:	2a02      	cmp	r2, #2
 80036ec:	d118      	bne.n	8003720 <HAL_RCC_ClockConfig+0xf4>
      if(__HAL_RCC_GET_FLAG(RCC_FLAG_HSERDY) == 0U)
 80036ee:	039b      	lsls	r3, r3, #14
 80036f0:	d5a0      	bpl.n	8003634 <HAL_RCC_ClockConfig+0x8>
    __HAL_RCC_SYSCLK_CONFIG(RCC_ClkInitStruct->SYSCLKSource);
 80036f2:	2103      	movs	r1, #3
 80036f4:	68eb      	ldr	r3, [r5, #12]
 80036f6:	438b      	bics	r3, r1
 80036f8:	4313      	orrs	r3, r2
 80036fa:	60eb      	str	r3, [r5, #12]
    tickstart = HAL_GetTick();
 80036fc:	f7ff fa3e 	bl	8002b7c <HAL_GetTick>
    if(RCC_ClkInitStruct->SYSCLKSource == RCC_SYSCLKSOURCE_HSE)
 8003700:	6863      	ldr	r3, [r4, #4]
    tickstart = HAL_GetTick();
 8003702:	0007      	movs	r7, r0
    if(RCC_ClkInitStruct->SYSCLKSource == RCC_SYSCLKSOURCE_HSE)
 8003704:	2b02      	cmp	r3, #2
 8003706:	d118      	bne.n	800373a <HAL_RCC_ClockConfig+0x10e>
      while (__HAL_RCC_GET_SYSCLK_SOURCE() != RCC_SYSCLKSOURCE_STATUS_HSE)
 8003708:	220c      	movs	r2, #12
 800370a:	68eb      	ldr	r3, [r5, #12]
 800370c:	4013      	ands	r3, r2
 800370e:	2b08      	cmp	r3, #8
 8003710:	d09e      	beq.n	8003650 <HAL_RCC_ClockConfig+0x24>
        if((HAL_GetTick() - tickstart ) > CLOCKSWITCH_TIMEOUT_VALUE)
 8003712:	f7ff fa33 	bl	8002b7c <HAL_GetTick>
 8003716:	4b2a      	ldr	r3, [pc, #168]	; (80037c0 <HAL_RCC_ClockConfig+0x194>)
 8003718:	1bc0      	subs	r0, r0, r7
 800371a:	4298      	cmp	r0, r3
 800371c:	d9f4      	bls.n	8003708 <HAL_RCC_ClockConfig+0xdc>
 800371e:	e7d7      	b.n	80036d0 <HAL_RCC_ClockConfig+0xa4>
    else if(RCC_ClkInitStruct->SYSCLKSource == RCC_SYSCLKSOURCE_PLLCLK)
 8003720:	2a03      	cmp	r2, #3
 8003722:	d102      	bne.n	800372a <HAL_RCC_ClockConfig+0xfe>
      if(__HAL_RCC_GET_FLAG(RCC_FLAG_PLLRDY) == 0U)
 8003724:	019b      	lsls	r3, r3, #6
 8003726:	d4e4      	bmi.n	80036f2 <HAL_RCC_ClockConfig+0xc6>
 8003728:	e784      	b.n	8003634 <HAL_RCC_ClockConfig+0x8>
    else if(RCC_ClkInitStruct->SYSCLKSource == RCC_SYSCLKSOURCE_HSI)
 800372a:	2a01      	cmp	r2, #1
 800372c:	d102      	bne.n	8003734 <HAL_RCC_ClockConfig+0x108>
      if(__HAL_RCC_GET_FLAG(RCC_FLAG_HSIRDY) == 0U)
 800372e:	075b      	lsls	r3, r3, #29
 8003730:	d4df      	bmi.n	80036f2 <HAL_RCC_ClockConfig+0xc6>
 8003732:	e77f      	b.n	8003634 <HAL_RCC_ClockConfig+0x8>
      if(__HAL_RCC_GET_FLAG(RCC_FLAG_MSIRDY) == 0U)
 8003734:	059b      	lsls	r3, r3, #22
 8003736:	d4dc      	bmi.n	80036f2 <HAL_RCC_ClockConfig+0xc6>
 8003738:	e77c      	b.n	8003634 <HAL_RCC_ClockConfig+0x8>
    else if(RCC_ClkInitStruct->SYSCLKSource == RCC_SYSCLKSOURCE_PLLCLK)
 800373a:	2b03      	cmp	r3, #3
 800373c:	d10b      	bne.n	8003756 <HAL_RCC_ClockConfig+0x12a>
      while (__HAL_RCC_GET_SYSCLK_SOURCE() != RCC_SYSCLKSOURCE_STATUS_PLLCLK)
 800373e:	220c      	movs	r2, #12
 8003740:	68eb      	ldr	r3, [r5, #12]
 8003742:	4013      	ands	r3, r2
 8003744:	4293      	cmp	r3, r2
 8003746:	d083      	beq.n	8003650 <HAL_RCC_ClockConfig+0x24>
        if((HAL_GetTick() - tickstart ) > CLOCKSWITCH_TIMEOUT_VALUE)
 8003748:	f7ff fa18 	bl	8002b7c <HAL_GetTick>
 800374c:	4b1c      	ldr	r3, [pc, #112]	; (80037c0 <HAL_RCC_ClockConfig+0x194>)
 800374e:	1bc0      	subs	r0, r0, r7
 8003750:	4298      	cmp	r0, r3
 8003752:	d9f4      	bls.n	800373e <HAL_RCC_ClockConfig+0x112>
 8003754:	e7bc      	b.n	80036d0 <HAL_RCC_ClockConfig+0xa4>
    else if(RCC_ClkInitStruct->SYSCLKSource == RCC_SYSCLKSOURCE_HSI)
 8003756:	2b01      	cmp	r3, #1
 8003758:	d011      	beq.n	800377e <HAL_RCC_ClockConfig+0x152>
      while(__HAL_RCC_GET_SYSCLK_SOURCE() != RCC_SYSCLKSOURCE_STATUS_MSI)
 800375a:	220c      	movs	r2, #12
 800375c:	68eb      	ldr	r3, [r5, #12]
 800375e:	4213      	tst	r3, r2
 8003760:	d100      	bne.n	8003764 <HAL_RCC_ClockConfig+0x138>
 8003762:	e775      	b.n	8003650 <HAL_RCC_ClockConfig+0x24>
        if((HAL_GetTick() - tickstart ) > CLOCKSWITCH_TIMEOUT_VALUE)
 8003764:	f7ff fa0a 	bl	8002b7c <HAL_GetTick>
 8003768:	4b15      	ldr	r3, [pc, #84]	; (80037c0 <HAL_RCC_ClockConfig+0x194>)
 800376a:	1bc0      	subs	r0, r0, r7
 800376c:	4298      	cmp	r0, r3
 800376e:	d9f4      	bls.n	800375a <HAL_RCC_ClockConfig+0x12e>
 8003770:	e7ae      	b.n	80036d0 <HAL_RCC_ClockConfig+0xa4>
        if((HAL_GetTick() - tickstart ) > CLOCKSWITCH_TIMEOUT_VALUE)
 8003772:	f7ff fa03 	bl	8002b7c <HAL_GetTick>
 8003776:	4b12      	ldr	r3, [pc, #72]	; (80037c0 <HAL_RCC_ClockConfig+0x194>)
 8003778:	1bc0      	subs	r0, r0, r7
 800377a:	4298      	cmp	r0, r3
 800377c:	d8a8      	bhi.n	80036d0 <HAL_RCC_ClockConfig+0xa4>
      while (__HAL_RCC_GET_SYSCLK_SOURCE() != RCC_SYSCLKSOURCE_STATUS_HSI)
 800377e:	220c      	movs	r2, #12
 8003780:	68eb      	ldr	r3, [r5, #12]
 8003782:	4013      	ands	r3, r2
 8003784:	2b04      	cmp	r3, #4
 8003786:	d1f4      	bne.n	8003772 <HAL_RCC_ClockConfig+0x146>
 8003788:	e762      	b.n	8003650 <HAL_RCC_ClockConfig+0x24>
      if ((HAL_GetTick() - tickstart) > CLOCKSWITCH_TIMEOUT_VALUE)
 800378a:	f7ff f9f7 	bl	8002b7c <HAL_GetTick>
 800378e:	4b0c      	ldr	r3, [pc, #48]	; (80037c0 <HAL_RCC_ClockConfig+0x194>)
 8003790:	1bc0      	subs	r0, r0, r7
 8003792:	4298      	cmp	r0, r3
 8003794:	d800      	bhi.n	8003798 <HAL_RCC_ClockConfig+0x16c>
 8003796:	e767      	b.n	8003668 <HAL_RCC_ClockConfig+0x3c>
 8003798:	e79a      	b.n	80036d0 <HAL_RCC_ClockConfig+0xa4>
    MODIFY_REG(RCC->CFGR, RCC_CFGR_PPRE1, RCC_ClkInitStruct->APB1CLKDivider);
 800379a:	68eb      	ldr	r3, [r5, #12]
 800379c:	4909      	ldr	r1, [pc, #36]	; (80037c4 <HAL_RCC_ClockConfig+0x198>)
 800379e:	400b      	ands	r3, r1
 80037a0:	68e1      	ldr	r1, [r4, #12]
 80037a2:	430b      	orrs	r3, r1
 80037a4:	60eb      	str	r3, [r5, #12]
 80037a6:	e768      	b.n	800367a <HAL_RCC_ClockConfig+0x4e>
 80037a8:	40022000 	.word	0x40022000
 80037ac:	40021000 	.word	0x40021000
 80037b0:	ffffc7ff 	.word	0xffffc7ff
 80037b4:	0800542d 	.word	0x0800542d
 80037b8:	20000094 	.word	0x20000094
 80037bc:	2000009c 	.word	0x2000009c
 80037c0:	00001388 	.word	0x00001388
 80037c4:	fffff8ff 	.word	0xfffff8ff

080037c8 <SPI_WaitFlagStateUntilTimeout.constprop.0>:
  * @param  State flag state to check
  * @param  Timeout Timeout duration
  * @param  Tickstart tick start value
  * @retval HAL status
  */
static HAL_StatusTypeDef SPI_WaitFlagStateUntilTimeout(SPI_HandleTypeDef *hspi, uint32_t Flag, FlagStatus State,
 80037c8:	b5f0      	push	{r4, r5, r6, r7, lr}
 80037ca:	001d      	movs	r5, r3
 80037cc:	0017      	movs	r7, r2
 80037ce:	b085      	sub	sp, #20
 80037d0:	000e      	movs	r6, r1
 80037d2:	0004      	movs	r4, r0
  __IO uint32_t count;
  uint32_t tmp_timeout;
  uint32_t tmp_tickstart;

  /* Adjust Timeout value  in case of end of transfer */
  tmp_timeout   = Timeout - (HAL_GetTick() - Tickstart);
 80037d4:	f7ff f9d2 	bl	8002b7c <HAL_GetTick>
 80037d8:	19ed      	adds	r5, r5, r7
 80037da:	1a2d      	subs	r5, r5, r0
  tmp_tickstart = HAL_GetTick();
 80037dc:	f7ff f9ce 	bl	8002b7c <HAL_GetTick>

  /* Calculate Timeout based on a software loop to avoid blocking issue if Systick is disabled */
  count = tmp_timeout * ((SystemCoreClock * 32U) >> 20U);
 80037e0:	4b25      	ldr	r3, [pc, #148]	; (8003878 <SPI_WaitFlagStateUntilTimeout.constprop.0+0xb0>)
  tmp_tickstart = HAL_GetTick();
 80037e2:	9001      	str	r0, [sp, #4]
  count = tmp_timeout * ((SystemCoreClock * 32U) >> 20U);
 80037e4:	681b      	ldr	r3, [r3, #0]
 80037e6:	015b      	lsls	r3, r3, #5
 80037e8:	0d1b      	lsrs	r3, r3, #20
 80037ea:	436b      	muls	r3, r5

  while ((__HAL_SPI_GET_FLAG(hspi, Flag) ? SET : RESET) != State)
 80037ec:	6822      	ldr	r2, [r4, #0]
      /* If Systick is disabled or not incremented, deactivate timeout to go in disable loop procedure */
      if(count == 0U)
      {
        tmp_timeout = 0U;
      }
      count--;
 80037ee:	9303      	str	r3, [sp, #12]
  while ((__HAL_SPI_GET_FLAG(hspi, Flag) ? SET : RESET) != State)
 80037f0:	6893      	ldr	r3, [r2, #8]
 80037f2:	4033      	ands	r3, r6
 80037f4:	429e      	cmp	r6, r3
 80037f6:	d001      	beq.n	80037fc <SPI_WaitFlagStateUntilTimeout.constprop.0+0x34>
    }
  }

  return HAL_OK;
 80037f8:	2000      	movs	r0, #0
 80037fa:	e032      	b.n	8003862 <SPI_WaitFlagStateUntilTimeout.constprop.0+0x9a>
    if (Timeout != HAL_MAX_DELAY)
 80037fc:	1c7b      	adds	r3, r7, #1
 80037fe:	d0f7      	beq.n	80037f0 <SPI_WaitFlagStateUntilTimeout.constprop.0+0x28>
      if (((HAL_GetTick() - tmp_tickstart) >= tmp_timeout) || (tmp_timeout == 0U))
 8003800:	f7ff f9bc 	bl	8002b7c <HAL_GetTick>
 8003804:	9b01      	ldr	r3, [sp, #4]
 8003806:	1ac0      	subs	r0, r0, r3
 8003808:	42a8      	cmp	r0, r5
 800380a:	d32c      	bcc.n	8003866 <SPI_WaitFlagStateUntilTimeout.constprop.0+0x9e>
        __HAL_SPI_DISABLE_IT(hspi, (SPI_IT_TXE | SPI_IT_RXNE | SPI_IT_ERR));
 800380c:	21e0      	movs	r1, #224	; 0xe0
 800380e:	6823      	ldr	r3, [r4, #0]
 8003810:	685a      	ldr	r2, [r3, #4]
 8003812:	438a      	bics	r2, r1
 8003814:	605a      	str	r2, [r3, #4]
        if ((hspi->Init.Mode == SPI_MODE_MASTER) && ((hspi->Init.Direction == SPI_DIRECTION_1LINE)
 8003816:	2282      	movs	r2, #130	; 0x82
 8003818:	6861      	ldr	r1, [r4, #4]
 800381a:	0052      	lsls	r2, r2, #1
 800381c:	4291      	cmp	r1, r2
 800381e:	d10c      	bne.n	800383a <SPI_WaitFlagStateUntilTimeout.constprop.0+0x72>
 8003820:	2180      	movs	r1, #128	; 0x80
 8003822:	68a2      	ldr	r2, [r4, #8]
 8003824:	0209      	lsls	r1, r1, #8
 8003826:	428a      	cmp	r2, r1
 8003828:	d003      	beq.n	8003832 <SPI_WaitFlagStateUntilTimeout.constprop.0+0x6a>
                                                     || (hspi->Init.Direction == SPI_DIRECTION_2LINES_RXONLY)))
 800382a:	2180      	movs	r1, #128	; 0x80
 800382c:	00c9      	lsls	r1, r1, #3
 800382e:	428a      	cmp	r2, r1
 8003830:	d103      	bne.n	800383a <SPI_WaitFlagStateUntilTimeout.constprop.0+0x72>
          __HAL_SPI_DISABLE(hspi);
 8003832:	2140      	movs	r1, #64	; 0x40
 8003834:	681a      	ldr	r2, [r3, #0]
 8003836:	438a      	bics	r2, r1
 8003838:	601a      	str	r2, [r3, #0]
        if (hspi->Init.CRCCalculation == SPI_CRCCALCULATION_ENABLE)
 800383a:	2180      	movs	r1, #128	; 0x80
 800383c:	6aa2      	ldr	r2, [r4, #40]	; 0x28
 800383e:	0189      	lsls	r1, r1, #6
 8003840:	428a      	cmp	r2, r1
 8003842:	d106      	bne.n	8003852 <SPI_WaitFlagStateUntilTimeout.constprop.0+0x8a>
          SPI_RESET_CRC(hspi);
 8003844:	6819      	ldr	r1, [r3, #0]
 8003846:	480d      	ldr	r0, [pc, #52]	; (800387c <SPI_WaitFlagStateUntilTimeout.constprop.0+0xb4>)
 8003848:	4001      	ands	r1, r0
 800384a:	6019      	str	r1, [r3, #0]
 800384c:	6819      	ldr	r1, [r3, #0]
 800384e:	430a      	orrs	r2, r1
 8003850:	601a      	str	r2, [r3, #0]
        hspi->State = HAL_SPI_STATE_READY;
 8003852:	0023      	movs	r3, r4
 8003854:	2201      	movs	r2, #1
 8003856:	3351      	adds	r3, #81	; 0x51
 8003858:	701a      	strb	r2, [r3, #0]
        __HAL_UNLOCK(hspi);
 800385a:	2300      	movs	r3, #0
        return HAL_TIMEOUT;
 800385c:	2003      	movs	r0, #3
        __HAL_UNLOCK(hspi);
 800385e:	3450      	adds	r4, #80	; 0x50
 8003860:	7023      	strb	r3, [r4, #0]
}
 8003862:	b005      	add	sp, #20
 8003864:	bdf0      	pop	{r4, r5, r6, r7, pc}
      if(count == 0U)
 8003866:	9b03      	ldr	r3, [sp, #12]
        tmp_timeout = 0U;
 8003868:	1e5a      	subs	r2, r3, #1
 800386a:	4193      	sbcs	r3, r2
 800386c:	425b      	negs	r3, r3
 800386e:	401d      	ands	r5, r3
      count--;
 8003870:	9b03      	ldr	r3, [sp, #12]
 8003872:	3b01      	subs	r3, #1
 8003874:	e7ba      	b.n	80037ec <SPI_WaitFlagStateUntilTimeout.constprop.0+0x24>
 8003876:	46c0      	nop			; (mov r8, r8)
 8003878:	20000094 	.word	0x20000094
 800387c:	ffffdfff 	.word	0xffffdfff

08003880 <SPI_EndRxTransaction>:
  * @param  Timeout Timeout duration
  * @param  Tickstart tick start value
  * @retval HAL status
  */
static HAL_StatusTypeDef SPI_EndRxTransaction(SPI_HandleTypeDef *hspi,  uint32_t Timeout, uint32_t Tickstart)
{
 8003880:	b5f8      	push	{r3, r4, r5, r6, r7, lr}
 8003882:	0013      	movs	r3, r2
  if ((hspi->Init.Mode == SPI_MODE_MASTER) && ((hspi->Init.Direction == SPI_DIRECTION_1LINE)
 8003884:	2282      	movs	r2, #130	; 0x82
{
 8003886:	0004      	movs	r4, r0
  if ((hspi->Init.Mode == SPI_MODE_MASTER) && ((hspi->Init.Direction == SPI_DIRECTION_1LINE)
 8003888:	6840      	ldr	r0, [r0, #4]
 800388a:	0052      	lsls	r2, r2, #1
 800388c:	4290      	cmp	r0, r2
 800388e:	d11e      	bne.n	80038ce <SPI_EndRxTransaction+0x4e>
 8003890:	2080      	movs	r0, #128	; 0x80
 8003892:	2580      	movs	r5, #128	; 0x80
 8003894:	68a2      	ldr	r2, [r4, #8]
 8003896:	0200      	lsls	r0, r0, #8
 8003898:	00ed      	lsls	r5, r5, #3
 800389a:	4282      	cmp	r2, r0
 800389c:	d001      	beq.n	80038a2 <SPI_EndRxTransaction+0x22>
                                               || (hspi->Init.Direction == SPI_DIRECTION_2LINES_RXONLY)))
 800389e:	42aa      	cmp	r2, r5
 80038a0:	d106      	bne.n	80038b0 <SPI_EndRxTransaction+0x30>
  {
    /* Disable SPI peripheral */
    __HAL_SPI_DISABLE(hspi);
 80038a2:	2740      	movs	r7, #64	; 0x40
 80038a4:	6826      	ldr	r6, [r4, #0]
 80038a6:	6830      	ldr	r0, [r6, #0]
 80038a8:	43b8      	bics	r0, r7
 80038aa:	6030      	str	r0, [r6, #0]
  }

  /* Erratasheet: BSY bit may stay high at the end of a data transfer in Slave mode */
  if (hspi->Init.Mode == SPI_MODE_MASTER)
  {
    if (hspi->Init.Direction != SPI_DIRECTION_2LINES_RXONLY)
 80038ac:	42aa      	cmp	r2, r5
 80038ae:	d00e      	beq.n	80038ce <SPI_EndRxTransaction+0x4e>
    {
      /* Control the BSY flag */
      if (SPI_WaitFlagStateUntilTimeout(hspi, SPI_FLAG_BSY, RESET, Timeout, Tickstart) != HAL_OK)
 80038b0:	000a      	movs	r2, r1
 80038b2:	2180      	movs	r1, #128	; 0x80
 80038b4:	0020      	movs	r0, r4
 80038b6:	f7ff ff87 	bl	80037c8 <SPI_WaitFlagStateUntilTimeout.constprop.0>
 80038ba:	2800      	cmp	r0, #0
 80038bc:	d101      	bne.n	80038c2 <SPI_EndRxTransaction+0x42>
    {
      SET_BIT(hspi->ErrorCode, HAL_SPI_ERROR_FLAG);
      return HAL_TIMEOUT;
    }
  }
  return HAL_OK;
 80038be:	2000      	movs	r0, #0
}
 80038c0:	bdf8      	pop	{r3, r4, r5, r6, r7, pc}
      SET_BIT(hspi->ErrorCode, HAL_SPI_ERROR_FLAG);
 80038c2:	2320      	movs	r3, #32
 80038c4:	6d62      	ldr	r2, [r4, #84]	; 0x54
      return HAL_TIMEOUT;
 80038c6:	2003      	movs	r0, #3
      SET_BIT(hspi->ErrorCode, HAL_SPI_ERROR_FLAG);
 80038c8:	4313      	orrs	r3, r2
 80038ca:	6563      	str	r3, [r4, #84]	; 0x54
      return HAL_TIMEOUT;
 80038cc:	e7f8      	b.n	80038c0 <SPI_EndRxTransaction+0x40>
    if (SPI_WaitFlagStateUntilTimeout(hspi, SPI_FLAG_RXNE, RESET, Timeout, Tickstart) != HAL_OK)
 80038ce:	000a      	movs	r2, r1
 80038d0:	2101      	movs	r1, #1
 80038d2:	e7ef      	b.n	80038b4 <SPI_EndRxTransaction+0x34>

080038d4 <SPI_EndRxTxTransaction>:
  * @retval HAL status
  */
static HAL_StatusTypeDef SPI_EndRxTxTransaction(SPI_HandleTypeDef *hspi, uint32_t Timeout, uint32_t Tickstart)
{
  /* Timeout in s */
  __IO uint32_t count = SPI_BSY_FLAG_WORKAROUND_TIMEOUT * (SystemCoreClock / 24U / 1000000U);
 80038d4:	4b16      	ldr	r3, [pc, #88]	; (8003930 <SPI_EndRxTxTransaction+0x5c>)
{
 80038d6:	b573      	push	{r0, r1, r4, r5, r6, lr}
 80038d8:	0004      	movs	r4, r0
 80038da:	000d      	movs	r5, r1
  __IO uint32_t count = SPI_BSY_FLAG_WORKAROUND_TIMEOUT * (SystemCoreClock / 24U / 1000000U);
 80038dc:	6818      	ldr	r0, [r3, #0]
 80038de:	4915      	ldr	r1, [pc, #84]	; (8003934 <SPI_EndRxTxTransaction+0x60>)
{
 80038e0:	0016      	movs	r6, r2
  __IO uint32_t count = SPI_BSY_FLAG_WORKAROUND_TIMEOUT * (SystemCoreClock / 24U / 1000000U);
 80038e2:	f7fc fc11 	bl	8000108 <__udivsi3>
 80038e6:	23fa      	movs	r3, #250	; 0xfa
 80038e8:	009b      	lsls	r3, r3, #2
 80038ea:	4343      	muls	r3, r0
 80038ec:	9301      	str	r3, [sp, #4]
  /* Erratasheet: BSY bit may stay high at the end of a data transfer in Slave mode */
  if (hspi->Init.Mode == SPI_MODE_MASTER)
 80038ee:	2382      	movs	r3, #130	; 0x82
 80038f0:	6861      	ldr	r1, [r4, #4]
      if (count == 0U)
      {
        break;
      }
      count--;
    } while (__HAL_SPI_GET_FLAG(hspi, SPI_FLAG_BSY) != RESET);
 80038f2:	2280      	movs	r2, #128	; 0x80
  if (hspi->Init.Mode == SPI_MODE_MASTER)
 80038f4:	005b      	lsls	r3, r3, #1
 80038f6:	4299      	cmp	r1, r3
 80038f8:	d10d      	bne.n	8003916 <SPI_EndRxTxTransaction+0x42>
    if (SPI_WaitFlagStateUntilTimeout(hspi, SPI_FLAG_BSY, RESET, Timeout, Tickstart) != HAL_OK)
 80038fa:	0033      	movs	r3, r6
 80038fc:	002a      	movs	r2, r5
 80038fe:	2180      	movs	r1, #128	; 0x80
 8003900:	0020      	movs	r0, r4
 8003902:	f7ff ff61 	bl	80037c8 <SPI_WaitFlagStateUntilTimeout.constprop.0>
 8003906:	2800      	cmp	r0, #0
 8003908:	d00f      	beq.n	800392a <SPI_EndRxTxTransaction+0x56>
      SET_BIT(hspi->ErrorCode, HAL_SPI_ERROR_FLAG);
 800390a:	2320      	movs	r3, #32
      return HAL_TIMEOUT;
 800390c:	2003      	movs	r0, #3
      SET_BIT(hspi->ErrorCode, HAL_SPI_ERROR_FLAG);
 800390e:	6d62      	ldr	r2, [r4, #84]	; 0x54
 8003910:	4313      	orrs	r3, r2
 8003912:	6563      	str	r3, [r4, #84]	; 0x54
  }

  return HAL_OK;
}
 8003914:	bd76      	pop	{r1, r2, r4, r5, r6, pc}
      if (count == 0U)
 8003916:	9b01      	ldr	r3, [sp, #4]
 8003918:	2b00      	cmp	r3, #0
 800391a:	d006      	beq.n	800392a <SPI_EndRxTxTransaction+0x56>
      count--;
 800391c:	9b01      	ldr	r3, [sp, #4]
 800391e:	3b01      	subs	r3, #1
 8003920:	9301      	str	r3, [sp, #4]
    } while (__HAL_SPI_GET_FLAG(hspi, SPI_FLAG_BSY) != RESET);
 8003922:	6823      	ldr	r3, [r4, #0]
 8003924:	689b      	ldr	r3, [r3, #8]
 8003926:	4213      	tst	r3, r2
 8003928:	d1f5      	bne.n	8003916 <SPI_EndRxTxTransaction+0x42>
  return HAL_OK;
 800392a:	2000      	movs	r0, #0
 800392c:	e7f2      	b.n	8003914 <SPI_EndRxTxTransaction+0x40>
 800392e:	46c0      	nop			; (mov r8, r8)
 8003930:	20000094 	.word	0x20000094
 8003934:	016e3600 	.word	0x016e3600

08003938 <HAL_SPI_Init>:
{
 8003938:	b5f8      	push	{r3, r4, r5, r6, r7, lr}
 800393a:	0004      	movs	r4, r0
    return HAL_ERROR;
 800393c:	2001      	movs	r0, #1
  if (hspi == NULL)
 800393e:	2c00      	cmp	r4, #0
 8003940:	d054      	beq.n	80039ec <HAL_SPI_Init+0xb4>
  if (hspi->Init.TIMode == SPI_TIMODE_DISABLE)
 8003942:	6a63      	ldr	r3, [r4, #36]	; 0x24
 8003944:	2b00      	cmp	r3, #0
 8003946:	d152      	bne.n	80039ee <HAL_SPI_Init+0xb6>
    if (hspi->Init.Mode == SPI_MODE_MASTER)
 8003948:	2282      	movs	r2, #130	; 0x82
 800394a:	6861      	ldr	r1, [r4, #4]
 800394c:	0052      	lsls	r2, r2, #1
 800394e:	4291      	cmp	r1, r2
 8003950:	d000      	beq.n	8003954 <HAL_SPI_Init+0x1c>
      hspi->Init.BaudRatePrescaler = SPI_BAUDRATEPRESCALER_2;
 8003952:	61e3      	str	r3, [r4, #28]
  hspi->Init.CRCCalculation = SPI_CRCCALCULATION_DISABLE;
 8003954:	2300      	movs	r3, #0
  if (hspi->State == HAL_SPI_STATE_RESET)
 8003956:	0025      	movs	r5, r4
  hspi->Init.CRCCalculation = SPI_CRCCALCULATION_DISABLE;
 8003958:	62a3      	str	r3, [r4, #40]	; 0x28
  if (hspi->State == HAL_SPI_STATE_RESET)
 800395a:	3551      	adds	r5, #81	; 0x51
 800395c:	782b      	ldrb	r3, [r5, #0]
 800395e:	b2da      	uxtb	r2, r3
 8003960:	2b00      	cmp	r3, #0
 8003962:	d105      	bne.n	8003970 <HAL_SPI_Init+0x38>
    hspi->Lock = HAL_UNLOCKED;
 8003964:	0023      	movs	r3, r4
 8003966:	3350      	adds	r3, #80	; 0x50
    HAL_SPI_MspInit(hspi);
 8003968:	0020      	movs	r0, r4
    hspi->Lock = HAL_UNLOCKED;
 800396a:	701a      	strb	r2, [r3, #0]
    HAL_SPI_MspInit(hspi);
 800396c:	f7fe ff16 	bl	800279c <HAL_SPI_MspInit>
  hspi->State = HAL_SPI_STATE_BUSY;
 8003970:	2602      	movs	r6, #2
  __HAL_SPI_DISABLE(hspi);
 8003972:	2240      	movs	r2, #64	; 0x40
  WRITE_REG(hspi->Instance->CR1, ((hspi->Init.Mode & (SPI_CR1_MSTR | SPI_CR1_SSI)) |
 8003974:	2082      	movs	r0, #130	; 0x82
 8003976:	2784      	movs	r7, #132	; 0x84
  hspi->State = HAL_SPI_STATE_BUSY;
 8003978:	702e      	strb	r6, [r5, #0]
  __HAL_SPI_DISABLE(hspi);
 800397a:	6821      	ldr	r1, [r4, #0]
  WRITE_REG(hspi->Instance->CR1, ((hspi->Init.Mode & (SPI_CR1_MSTR | SPI_CR1_SSI)) |
 800397c:	0040      	lsls	r0, r0, #1
  __HAL_SPI_DISABLE(hspi);
 800397e:	680b      	ldr	r3, [r1, #0]
  WRITE_REG(hspi->Instance->CR1, ((hspi->Init.Mode & (SPI_CR1_MSTR | SPI_CR1_SSI)) |
 8003980:	023f      	lsls	r7, r7, #8
  __HAL_SPI_DISABLE(hspi);
 8003982:	4393      	bics	r3, r2
 8003984:	600b      	str	r3, [r1, #0]
  WRITE_REG(hspi->Instance->CR1, ((hspi->Init.Mode & (SPI_CR1_MSTR | SPI_CR1_SSI)) |
 8003986:	6863      	ldr	r3, [r4, #4]
 8003988:	69a2      	ldr	r2, [r4, #24]
 800398a:	4003      	ands	r3, r0
 800398c:	68a0      	ldr	r0, [r4, #8]
 800398e:	4038      	ands	r0, r7
 8003990:	2780      	movs	r7, #128	; 0x80
 8003992:	4303      	orrs	r3, r0
 8003994:	68e0      	ldr	r0, [r4, #12]
 8003996:	013f      	lsls	r7, r7, #4
 8003998:	4038      	ands	r0, r7
 800399a:	4303      	orrs	r3, r0
 800399c:	6920      	ldr	r0, [r4, #16]
 800399e:	2738      	movs	r7, #56	; 0x38
 80039a0:	4030      	ands	r0, r6
 80039a2:	4303      	orrs	r3, r0
 80039a4:	6960      	ldr	r0, [r4, #20]
 80039a6:	3e01      	subs	r6, #1
 80039a8:	4030      	ands	r0, r6
 80039aa:	4303      	orrs	r3, r0
 80039ac:	2080      	movs	r0, #128	; 0x80
 80039ae:	0080      	lsls	r0, r0, #2
 80039b0:	4010      	ands	r0, r2
 80039b2:	4303      	orrs	r3, r0
 80039b4:	69e0      	ldr	r0, [r4, #28]
  WRITE_REG(hspi->Instance->CR2, (((hspi->Init.NSS >> 16U) & SPI_CR2_SSOE) | (hspi->Init.TIMode & SPI_CR2_FRF)));
 80039b6:	0c12      	lsrs	r2, r2, #16
  WRITE_REG(hspi->Instance->CR1, ((hspi->Init.Mode & (SPI_CR1_MSTR | SPI_CR1_SSI)) |
 80039b8:	4038      	ands	r0, r7
 80039ba:	4303      	orrs	r3, r0
 80039bc:	6a20      	ldr	r0, [r4, #32]
 80039be:	3748      	adds	r7, #72	; 0x48
 80039c0:	4038      	ands	r0, r7
 80039c2:	2780      	movs	r7, #128	; 0x80
 80039c4:	4303      	orrs	r3, r0
 80039c6:	6aa0      	ldr	r0, [r4, #40]	; 0x28
 80039c8:	01bf      	lsls	r7, r7, #6
 80039ca:	4038      	ands	r0, r7
 80039cc:	4303      	orrs	r3, r0
 80039ce:	600b      	str	r3, [r1, #0]
  WRITE_REG(hspi->Instance->CR2, (((hspi->Init.NSS >> 16U) & SPI_CR2_SSOE) | (hspi->Init.TIMode & SPI_CR2_FRF)));
 80039d0:	2304      	movs	r3, #4
 80039d2:	2010      	movs	r0, #16
 80039d4:	401a      	ands	r2, r3
 80039d6:	6a63      	ldr	r3, [r4, #36]	; 0x24
 80039d8:	4003      	ands	r3, r0
  hspi->ErrorCode = HAL_SPI_ERROR_NONE;
 80039da:	2000      	movs	r0, #0
  WRITE_REG(hspi->Instance->CR2, (((hspi->Init.NSS >> 16U) & SPI_CR2_SSOE) | (hspi->Init.TIMode & SPI_CR2_FRF)));
 80039dc:	431a      	orrs	r2, r3
 80039de:	604a      	str	r2, [r1, #4]
  CLEAR_BIT(hspi->Instance->I2SCFGR, SPI_I2SCFGR_I2SMOD);
 80039e0:	69cb      	ldr	r3, [r1, #28]
 80039e2:	4a05      	ldr	r2, [pc, #20]	; (80039f8 <HAL_SPI_Init+0xc0>)
 80039e4:	4013      	ands	r3, r2
 80039e6:	61cb      	str	r3, [r1, #28]
  hspi->ErrorCode = HAL_SPI_ERROR_NONE;
 80039e8:	6560      	str	r0, [r4, #84]	; 0x54
  hspi->State     = HAL_SPI_STATE_READY;
 80039ea:	702e      	strb	r6, [r5, #0]
}
 80039ec:	bdf8      	pop	{r3, r4, r5, r6, r7, pc}
    hspi->Init.CLKPolarity = SPI_POLARITY_LOW;
 80039ee:	2300      	movs	r3, #0
 80039f0:	6123      	str	r3, [r4, #16]
    hspi->Init.CLKPhase    = SPI_PHASE_1EDGE;
 80039f2:	6163      	str	r3, [r4, #20]
 80039f4:	e7ae      	b.n	8003954 <HAL_SPI_Init+0x1c>
 80039f6:	46c0      	nop			; (mov r8, r8)
 80039f8:	fffff7ff 	.word	0xfffff7ff

080039fc <HAL_SPI_TransmitReceive>:
{
 80039fc:	b5f0      	push	{r4, r5, r6, r7, lr}
 80039fe:	001e      	movs	r6, r3
  __HAL_LOCK(hspi);
 8003a00:	0003      	movs	r3, r0
 8003a02:	3350      	adds	r3, #80	; 0x50
{
 8003a04:	0017      	movs	r7, r2
  __HAL_LOCK(hspi);
 8003a06:	781a      	ldrb	r2, [r3, #0]
{
 8003a08:	0004      	movs	r4, r0
 8003a0a:	000d      	movs	r5, r1
  __HAL_LOCK(hspi);
 8003a0c:	2002      	movs	r0, #2
{
 8003a0e:	b085      	sub	sp, #20
  __HAL_LOCK(hspi);
 8003a10:	2a01      	cmp	r2, #1
 8003a12:	d100      	bne.n	8003a16 <HAL_SPI_TransmitReceive+0x1a>
 8003a14:	e092      	b.n	8003b3c <HAL_SPI_TransmitReceive+0x140>
 8003a16:	2201      	movs	r2, #1
 8003a18:	701a      	strb	r2, [r3, #0]
  tickstart = HAL_GetTick();
 8003a1a:	f7ff f8af 	bl	8002b7c <HAL_GetTick>
  tmp_state           = hspi->State;
 8003a1e:	0023      	movs	r3, r4
  tickstart = HAL_GetTick();
 8003a20:	9001      	str	r0, [sp, #4]
  tmp_state           = hspi->State;
 8003a22:	3351      	adds	r3, #81	; 0x51
 8003a24:	781b      	ldrb	r3, [r3, #0]
  tmp_mode            = hspi->Init.Mode;
 8003a26:	6861      	ldr	r1, [r4, #4]
  tmp_state           = hspi->State;
 8003a28:	b2da      	uxtb	r2, r3
  if (!((tmp_state == HAL_SPI_STATE_READY) || \
 8003a2a:	2b01      	cmp	r3, #1
 8003a2c:	d00a      	beq.n	8003a44 <HAL_SPI_TransmitReceive+0x48>
 8003a2e:	2382      	movs	r3, #130	; 0x82
    errorcode = HAL_BUSY;
 8003a30:	2002      	movs	r0, #2
  if (!((tmp_state == HAL_SPI_STATE_READY) || \
 8003a32:	005b      	lsls	r3, r3, #1
 8003a34:	4299      	cmp	r1, r3
 8003a36:	d000      	beq.n	8003a3a <HAL_SPI_TransmitReceive+0x3e>
 8003a38:	e079      	b.n	8003b2e <HAL_SPI_TransmitReceive+0x132>
        ((tmp_mode == SPI_MODE_MASTER) && (hspi->Init.Direction == SPI_DIRECTION_2LINES) && (tmp_state == HAL_SPI_STATE_BUSY_RX))))
 8003a3a:	68a3      	ldr	r3, [r4, #8]
 8003a3c:	2b00      	cmp	r3, #0
 8003a3e:	d176      	bne.n	8003b2e <HAL_SPI_TransmitReceive+0x132>
 8003a40:	2a04      	cmp	r2, #4
 8003a42:	d174      	bne.n	8003b2e <HAL_SPI_TransmitReceive+0x132>
    errorcode = HAL_ERROR;
 8003a44:	2001      	movs	r0, #1
  if ((pTxData == NULL) || (pRxData == NULL) || (Size == 0U))
 8003a46:	2d00      	cmp	r5, #0
 8003a48:	d071      	beq.n	8003b2e <HAL_SPI_TransmitReceive+0x132>
 8003a4a:	2f00      	cmp	r7, #0
 8003a4c:	d06f      	beq.n	8003b2e <HAL_SPI_TransmitReceive+0x132>
 8003a4e:	2e00      	cmp	r6, #0
 8003a50:	d06d      	beq.n	8003b2e <HAL_SPI_TransmitReceive+0x132>
  if (hspi->State != HAL_SPI_STATE_BUSY_RX)
 8003a52:	0023      	movs	r3, r4
 8003a54:	3351      	adds	r3, #81	; 0x51
 8003a56:	781a      	ldrb	r2, [r3, #0]
 8003a58:	2a04      	cmp	r2, #4
 8003a5a:	d001      	beq.n	8003a60 <HAL_SPI_TransmitReceive+0x64>
    hspi->State = HAL_SPI_STATE_BUSY_TX_RX;
 8003a5c:	2205      	movs	r2, #5
 8003a5e:	701a      	strb	r2, [r3, #0]
  hspi->ErrorCode   = HAL_SPI_ERROR_NONE;
 8003a60:	2300      	movs	r3, #0
  if ((hspi->Instance->CR1 & SPI_CR1_SPE) != SPI_CR1_SPE)
 8003a62:	2240      	movs	r2, #64	; 0x40
  hspi->ErrorCode   = HAL_SPI_ERROR_NONE;
 8003a64:	6563      	str	r3, [r4, #84]	; 0x54
  hspi->RxISR       = NULL;
 8003a66:	6423      	str	r3, [r4, #64]	; 0x40
  hspi->TxISR       = NULL;
 8003a68:	6463      	str	r3, [r4, #68]	; 0x44
  if ((hspi->Instance->CR1 & SPI_CR1_SPE) != SPI_CR1_SPE)
 8003a6a:	6823      	ldr	r3, [r4, #0]
  hspi->RxXferCount = Size;
 8003a6c:	87e6      	strh	r6, [r4, #62]	; 0x3e
  hspi->TxXferCount = Size;
 8003a6e:	86e6      	strh	r6, [r4, #54]	; 0x36
  if ((hspi->Instance->CR1 & SPI_CR1_SPE) != SPI_CR1_SPE)
 8003a70:	6818      	ldr	r0, [r3, #0]
  hspi->pRxBuffPtr  = (uint8_t *)pRxData;
 8003a72:	63a7      	str	r7, [r4, #56]	; 0x38
  hspi->RxXferSize  = Size;
 8003a74:	87a6      	strh	r6, [r4, #60]	; 0x3c
  hspi->pTxBuffPtr  = (uint8_t *)pTxData;
 8003a76:	6325      	str	r5, [r4, #48]	; 0x30
  hspi->TxXferSize  = Size;
 8003a78:	86a6      	strh	r6, [r4, #52]	; 0x34
  if ((hspi->Instance->CR1 & SPI_CR1_SPE) != SPI_CR1_SPE)
 8003a7a:	4210      	tst	r0, r2
 8003a7c:	d102      	bne.n	8003a84 <HAL_SPI_TransmitReceive+0x88>
    __HAL_SPI_ENABLE(hspi);
 8003a7e:	6818      	ldr	r0, [r3, #0]
 8003a80:	4302      	orrs	r2, r0
 8003a82:	601a      	str	r2, [r3, #0]
  if (hspi->Init.DataSize == SPI_DATASIZE_16BIT)
 8003a84:	2280      	movs	r2, #128	; 0x80
 8003a86:	68e0      	ldr	r0, [r4, #12]
 8003a88:	0112      	lsls	r2, r2, #4
 8003a8a:	4290      	cmp	r0, r2
 8003a8c:	d158      	bne.n	8003b40 <HAL_SPI_TransmitReceive+0x144>
    if ((hspi->Init.Mode == SPI_MODE_SLAVE) || (initial_TxXferCount == 0x01U))
 8003a8e:	2900      	cmp	r1, #0
 8003a90:	d001      	beq.n	8003a96 <HAL_SPI_TransmitReceive+0x9a>
 8003a92:	2e01      	cmp	r6, #1
 8003a94:	d107      	bne.n	8003aa6 <HAL_SPI_TransmitReceive+0xaa>
      hspi->Instance->DR = *((uint16_t *)hspi->pTxBuffPtr);
 8003a96:	882a      	ldrh	r2, [r5, #0]
      hspi->pTxBuffPtr += sizeof(uint16_t);
 8003a98:	3502      	adds	r5, #2
      hspi->Instance->DR = *((uint16_t *)hspi->pTxBuffPtr);
 8003a9a:	60da      	str	r2, [r3, #12]
      hspi->TxXferCount--;
 8003a9c:	8ee3      	ldrh	r3, [r4, #54]	; 0x36
      hspi->pTxBuffPtr += sizeof(uint16_t);
 8003a9e:	6325      	str	r5, [r4, #48]	; 0x30
      hspi->TxXferCount--;
 8003aa0:	3b01      	subs	r3, #1
 8003aa2:	b29b      	uxth	r3, r3
 8003aa4:	86e3      	strh	r3, [r4, #54]	; 0x36
        txallowed = 1U;
 8003aa6:	2501      	movs	r5, #1
      if ((__HAL_SPI_GET_FLAG(hspi, SPI_FLAG_TXE)) && (hspi->TxXferCount > 0U) && (txallowed == 1U))
 8003aa8:	2702      	movs	r7, #2
      if ((__HAL_SPI_GET_FLAG(hspi, SPI_FLAG_RXNE)) && (hspi->RxXferCount > 0U))
 8003aaa:	002e      	movs	r6, r5
    while ((hspi->TxXferCount > 0U) || (hspi->RxXferCount > 0U))
 8003aac:	8ee3      	ldrh	r3, [r4, #54]	; 0x36
 8003aae:	2b00      	cmp	r3, #0
 8003ab0:	d10e      	bne.n	8003ad0 <HAL_SPI_TransmitReceive+0xd4>
 8003ab2:	8fe3      	ldrh	r3, [r4, #62]	; 0x3e
 8003ab4:	2b00      	cmp	r3, #0
 8003ab6:	d10b      	bne.n	8003ad0 <HAL_SPI_TransmitReceive+0xd4>
  if (SPI_EndRxTxTransaction(hspi, Timeout, tickstart) != HAL_OK)
 8003ab8:	0020      	movs	r0, r4
 8003aba:	9a01      	ldr	r2, [sp, #4]
 8003abc:	990a      	ldr	r1, [sp, #40]	; 0x28
 8003abe:	f7ff ff09 	bl	80038d4 <SPI_EndRxTxTransaction>
 8003ac2:	2800      	cmp	r0, #0
 8003ac4:	d100      	bne.n	8003ac8 <HAL_SPI_TransmitReceive+0xcc>
 8003ac6:	e083      	b.n	8003bd0 <HAL_SPI_TransmitReceive+0x1d4>
    hspi->ErrorCode = HAL_SPI_ERROR_FLAG;
 8003ac8:	2320      	movs	r3, #32
    errorcode = HAL_ERROR;
 8003aca:	2001      	movs	r0, #1
    hspi->ErrorCode = HAL_SPI_ERROR_FLAG;
 8003acc:	6563      	str	r3, [r4, #84]	; 0x54
    goto error;
 8003ace:	e02e      	b.n	8003b2e <HAL_SPI_TransmitReceive+0x132>
      if ((__HAL_SPI_GET_FLAG(hspi, SPI_FLAG_TXE)) && (hspi->TxXferCount > 0U) && (txallowed == 1U))
 8003ad0:	6821      	ldr	r1, [r4, #0]
 8003ad2:	688b      	ldr	r3, [r1, #8]
 8003ad4:	423b      	tst	r3, r7
 8003ad6:	d00e      	beq.n	8003af6 <HAL_SPI_TransmitReceive+0xfa>
 8003ad8:	8ee3      	ldrh	r3, [r4, #54]	; 0x36
 8003ada:	2b00      	cmp	r3, #0
 8003adc:	d00b      	beq.n	8003af6 <HAL_SPI_TransmitReceive+0xfa>
 8003ade:	2d01      	cmp	r5, #1
 8003ae0:	d109      	bne.n	8003af6 <HAL_SPI_TransmitReceive+0xfa>
        txallowed = 0U;
 8003ae2:	2500      	movs	r5, #0
        hspi->Instance->DR = *((uint16_t *)hspi->pTxBuffPtr);
 8003ae4:	6b23      	ldr	r3, [r4, #48]	; 0x30
 8003ae6:	881a      	ldrh	r2, [r3, #0]
        hspi->pTxBuffPtr += sizeof(uint16_t);
 8003ae8:	3302      	adds	r3, #2
        hspi->Instance->DR = *((uint16_t *)hspi->pTxBuffPtr);
 8003aea:	60ca      	str	r2, [r1, #12]
        hspi->pTxBuffPtr += sizeof(uint16_t);
 8003aec:	6323      	str	r3, [r4, #48]	; 0x30
        hspi->TxXferCount--;
 8003aee:	8ee3      	ldrh	r3, [r4, #54]	; 0x36
 8003af0:	3b01      	subs	r3, #1
 8003af2:	b29b      	uxth	r3, r3
 8003af4:	86e3      	strh	r3, [r4, #54]	; 0x36
      if ((__HAL_SPI_GET_FLAG(hspi, SPI_FLAG_RXNE)) && (hspi->RxXferCount > 0U))
 8003af6:	688b      	ldr	r3, [r1, #8]
 8003af8:	001a      	movs	r2, r3
 8003afa:	4032      	ands	r2, r6
 8003afc:	4233      	tst	r3, r6
 8003afe:	d00c      	beq.n	8003b1a <HAL_SPI_TransmitReceive+0x11e>
 8003b00:	8fe3      	ldrh	r3, [r4, #62]	; 0x3e
 8003b02:	2b00      	cmp	r3, #0
 8003b04:	d009      	beq.n	8003b1a <HAL_SPI_TransmitReceive+0x11e>
        txallowed = 1U;
 8003b06:	0015      	movs	r5, r2
        *((uint16_t *)hspi->pRxBuffPtr) = (uint16_t)hspi->Instance->DR;
 8003b08:	68c9      	ldr	r1, [r1, #12]
 8003b0a:	6ba3      	ldr	r3, [r4, #56]	; 0x38
 8003b0c:	8019      	strh	r1, [r3, #0]
        hspi->pRxBuffPtr += sizeof(uint16_t);
 8003b0e:	3302      	adds	r3, #2
 8003b10:	63a3      	str	r3, [r4, #56]	; 0x38
        hspi->RxXferCount--;
 8003b12:	8fe3      	ldrh	r3, [r4, #62]	; 0x3e
 8003b14:	3b01      	subs	r3, #1
 8003b16:	b29b      	uxth	r3, r3
 8003b18:	87e3      	strh	r3, [r4, #62]	; 0x3e
      if (((HAL_GetTick() - tickstart) >=  Timeout) && (Timeout != HAL_MAX_DELAY))
 8003b1a:	f7ff f82f 	bl	8002b7c <HAL_GetTick>
 8003b1e:	9b01      	ldr	r3, [sp, #4]
 8003b20:	1ac0      	subs	r0, r0, r3
 8003b22:	9b0a      	ldr	r3, [sp, #40]	; 0x28
 8003b24:	4298      	cmp	r0, r3
 8003b26:	d3c1      	bcc.n	8003aac <HAL_SPI_TransmitReceive+0xb0>
 8003b28:	3301      	adds	r3, #1
 8003b2a:	d0bf      	beq.n	8003aac <HAL_SPI_TransmitReceive+0xb0>
        errorcode = HAL_TIMEOUT;
 8003b2c:	2003      	movs	r0, #3
  hspi->State = HAL_SPI_STATE_READY;
 8003b2e:	0023      	movs	r3, r4
 8003b30:	2201      	movs	r2, #1
 8003b32:	3351      	adds	r3, #81	; 0x51
 8003b34:	701a      	strb	r2, [r3, #0]
  __HAL_UNLOCK(hspi);
 8003b36:	2300      	movs	r3, #0
 8003b38:	3450      	adds	r4, #80	; 0x50
 8003b3a:	7023      	strb	r3, [r4, #0]
}
 8003b3c:	b005      	add	sp, #20
 8003b3e:	bdf0      	pop	{r4, r5, r6, r7, pc}
    if ((hspi->Init.Mode == SPI_MODE_SLAVE) || (initial_TxXferCount == 0x01U))
 8003b40:	2900      	cmp	r1, #0
 8003b42:	d001      	beq.n	8003b48 <HAL_SPI_TransmitReceive+0x14c>
 8003b44:	2e01      	cmp	r6, #1
 8003b46:	d108      	bne.n	8003b5a <HAL_SPI_TransmitReceive+0x15e>
      *((__IO uint8_t *)&hspi->Instance->DR) = (*hspi->pTxBuffPtr);
 8003b48:	782a      	ldrb	r2, [r5, #0]
 8003b4a:	731a      	strb	r2, [r3, #12]
      hspi->pTxBuffPtr += sizeof(uint8_t);
 8003b4c:	6b23      	ldr	r3, [r4, #48]	; 0x30
 8003b4e:	3301      	adds	r3, #1
 8003b50:	6323      	str	r3, [r4, #48]	; 0x30
      hspi->TxXferCount--;
 8003b52:	8ee3      	ldrh	r3, [r4, #54]	; 0x36
 8003b54:	3b01      	subs	r3, #1
 8003b56:	b29b      	uxth	r3, r3
 8003b58:	86e3      	strh	r3, [r4, #54]	; 0x36
        txallowed = 1U;
 8003b5a:	2501      	movs	r5, #1
      if ((__HAL_SPI_GET_FLAG(hspi, SPI_FLAG_TXE)) && (hspi->TxXferCount > 0U) && (txallowed == 1U))
 8003b5c:	2702      	movs	r7, #2
      if ((__HAL_SPI_GET_FLAG(hspi, SPI_FLAG_RXNE)) && (hspi->RxXferCount > 0U))
 8003b5e:	002e      	movs	r6, r5
    while ((hspi->TxXferCount > 0U) || (hspi->RxXferCount > 0U))
 8003b60:	8ee3      	ldrh	r3, [r4, #54]	; 0x36
 8003b62:	2b00      	cmp	r3, #0
 8003b64:	d102      	bne.n	8003b6c <HAL_SPI_TransmitReceive+0x170>
 8003b66:	8fe3      	ldrh	r3, [r4, #62]	; 0x3e
 8003b68:	2b00      	cmp	r3, #0
 8003b6a:	d0a5      	beq.n	8003ab8 <HAL_SPI_TransmitReceive+0xbc>
      if ((__HAL_SPI_GET_FLAG(hspi, SPI_FLAG_TXE)) && (hspi->TxXferCount > 0U) && (txallowed == 1U))
 8003b6c:	6823      	ldr	r3, [r4, #0]
 8003b6e:	689a      	ldr	r2, [r3, #8]
 8003b70:	423a      	tst	r2, r7
 8003b72:	d00f      	beq.n	8003b94 <HAL_SPI_TransmitReceive+0x198>
 8003b74:	8ee2      	ldrh	r2, [r4, #54]	; 0x36
 8003b76:	2a00      	cmp	r2, #0
 8003b78:	d00c      	beq.n	8003b94 <HAL_SPI_TransmitReceive+0x198>
 8003b7a:	2d01      	cmp	r5, #1
 8003b7c:	d10a      	bne.n	8003b94 <HAL_SPI_TransmitReceive+0x198>
        txallowed = 0U;
 8003b7e:	2500      	movs	r5, #0
        *(__IO uint8_t *)&hspi->Instance->DR = (*hspi->pTxBuffPtr);
 8003b80:	6b22      	ldr	r2, [r4, #48]	; 0x30
 8003b82:	7812      	ldrb	r2, [r2, #0]
 8003b84:	731a      	strb	r2, [r3, #12]
        hspi->pTxBuffPtr++;
 8003b86:	6b23      	ldr	r3, [r4, #48]	; 0x30
 8003b88:	3301      	adds	r3, #1
 8003b8a:	6323      	str	r3, [r4, #48]	; 0x30
        hspi->TxXferCount--;
 8003b8c:	8ee3      	ldrh	r3, [r4, #54]	; 0x36
 8003b8e:	3b01      	subs	r3, #1
 8003b90:	b29b      	uxth	r3, r3
 8003b92:	86e3      	strh	r3, [r4, #54]	; 0x36
      if ((__HAL_SPI_GET_FLAG(hspi, SPI_FLAG_RXNE)) && (hspi->RxXferCount > 0U))
 8003b94:	6823      	ldr	r3, [r4, #0]
 8003b96:	6899      	ldr	r1, [r3, #8]
 8003b98:	000a      	movs	r2, r1
 8003b9a:	4032      	ands	r2, r6
 8003b9c:	4231      	tst	r1, r6
 8003b9e:	d00d      	beq.n	8003bbc <HAL_SPI_TransmitReceive+0x1c0>
 8003ba0:	8fe1      	ldrh	r1, [r4, #62]	; 0x3e
 8003ba2:	2900      	cmp	r1, #0
 8003ba4:	d00a      	beq.n	8003bbc <HAL_SPI_TransmitReceive+0x1c0>
        txallowed = 1U;
 8003ba6:	0015      	movs	r5, r2
        (*(uint8_t *)hspi->pRxBuffPtr) = hspi->Instance->DR;
 8003ba8:	68d9      	ldr	r1, [r3, #12]
 8003baa:	6ba3      	ldr	r3, [r4, #56]	; 0x38
 8003bac:	7019      	strb	r1, [r3, #0]
        hspi->pRxBuffPtr++;
 8003bae:	6ba3      	ldr	r3, [r4, #56]	; 0x38
 8003bb0:	3301      	adds	r3, #1
 8003bb2:	63a3      	str	r3, [r4, #56]	; 0x38
        hspi->RxXferCount--;
 8003bb4:	8fe3      	ldrh	r3, [r4, #62]	; 0x3e
 8003bb6:	3b01      	subs	r3, #1
 8003bb8:	b29b      	uxth	r3, r3
 8003bba:	87e3      	strh	r3, [r4, #62]	; 0x3e
      if ((((HAL_GetTick() - tickstart) >=  Timeout) && ((Timeout != HAL_MAX_DELAY))) || (Timeout == 0U))
 8003bbc:	f7fe ffde 	bl	8002b7c <HAL_GetTick>
 8003bc0:	9b01      	ldr	r3, [sp, #4]
 8003bc2:	1ac0      	subs	r0, r0, r3
 8003bc4:	9b0a      	ldr	r3, [sp, #40]	; 0x28
 8003bc6:	4298      	cmp	r0, r3
 8003bc8:	d3ca      	bcc.n	8003b60 <HAL_SPI_TransmitReceive+0x164>
 8003bca:	3301      	adds	r3, #1
 8003bcc:	d0c8      	beq.n	8003b60 <HAL_SPI_TransmitReceive+0x164>
 8003bce:	e7ad      	b.n	8003b2c <HAL_SPI_TransmitReceive+0x130>
  if (hspi->Init.Direction == SPI_DIRECTION_2LINES)
 8003bd0:	68a3      	ldr	r3, [r4, #8]
 8003bd2:	2b00      	cmp	r3, #0
 8003bd4:	d1ab      	bne.n	8003b2e <HAL_SPI_TransmitReceive+0x132>
    __HAL_SPI_CLEAR_OVRFLAG(hspi);
 8003bd6:	6823      	ldr	r3, [r4, #0]
 8003bd8:	9003      	str	r0, [sp, #12]
 8003bda:	68da      	ldr	r2, [r3, #12]
 8003bdc:	9203      	str	r2, [sp, #12]
 8003bde:	689b      	ldr	r3, [r3, #8]
 8003be0:	9303      	str	r3, [sp, #12]
 8003be2:	9b03      	ldr	r3, [sp, #12]
 8003be4:	e7a3      	b.n	8003b2e <HAL_SPI_TransmitReceive+0x132>
	...

08003be8 <HAL_SPI_TransmitReceive_DMA>:
{
 8003be8:	b5f7      	push	{r0, r1, r2, r4, r5, r6, r7, lr}
  __HAL_LOCK(hspi);
 8003bea:	0006      	movs	r6, r0
 8003bec:	3650      	adds	r6, #80	; 0x50
 8003bee:	7835      	ldrb	r5, [r6, #0]
{
 8003bf0:	0004      	movs	r4, r0
  __HAL_LOCK(hspi);
 8003bf2:	2002      	movs	r0, #2
 8003bf4:	2d01      	cmp	r5, #1
 8003bf6:	d047      	beq.n	8003c88 <HAL_SPI_TransmitReceive_DMA+0xa0>
  tmp_state           = hspi->State;
 8003bf8:	0025      	movs	r5, r4
  __HAL_LOCK(hspi);
 8003bfa:	3801      	subs	r0, #1
 8003bfc:	7030      	strb	r0, [r6, #0]
  tmp_state           = hspi->State;
 8003bfe:	3551      	adds	r5, #81	; 0x51
 8003c00:	7828      	ldrb	r0, [r5, #0]
 8003c02:	b2c7      	uxtb	r7, r0
 8003c04:	9701      	str	r7, [sp, #4]
  tmp_mode            = hspi->Init.Mode;
 8003c06:	6867      	ldr	r7, [r4, #4]
 8003c08:	46bc      	mov	ip, r7
  if (!((tmp_state == HAL_SPI_STATE_READY) ||
 8003c0a:	2801      	cmp	r0, #1
 8003c0c:	d00a      	beq.n	8003c24 <HAL_SPI_TransmitReceive_DMA+0x3c>
 8003c0e:	2782      	movs	r7, #130	; 0x82
    errorcode = HAL_BUSY;
 8003c10:	2002      	movs	r0, #2
  if (!((tmp_state == HAL_SPI_STATE_READY) ||
 8003c12:	007f      	lsls	r7, r7, #1
 8003c14:	45bc      	cmp	ip, r7
 8003c16:	d135      	bne.n	8003c84 <HAL_SPI_TransmitReceive_DMA+0x9c>
        ((tmp_mode == SPI_MODE_MASTER) && (hspi->Init.Direction == SPI_DIRECTION_2LINES) && (tmp_state == HAL_SPI_STATE_BUSY_RX))))
 8003c18:	68a7      	ldr	r7, [r4, #8]
 8003c1a:	2f00      	cmp	r7, #0
 8003c1c:	d132      	bne.n	8003c84 <HAL_SPI_TransmitReceive_DMA+0x9c>
 8003c1e:	9f01      	ldr	r7, [sp, #4]
 8003c20:	2f04      	cmp	r7, #4
 8003c22:	d12f      	bne.n	8003c84 <HAL_SPI_TransmitReceive_DMA+0x9c>
    errorcode = HAL_ERROR;
 8003c24:	2001      	movs	r0, #1
  if ((pTxData == NULL) || (pRxData == NULL) || (Size == 0U))
 8003c26:	2900      	cmp	r1, #0
 8003c28:	d02c      	beq.n	8003c84 <HAL_SPI_TransmitReceive_DMA+0x9c>
 8003c2a:	2a00      	cmp	r2, #0
 8003c2c:	d02a      	beq.n	8003c84 <HAL_SPI_TransmitReceive_DMA+0x9c>
 8003c2e:	2b00      	cmp	r3, #0
 8003c30:	d028      	beq.n	8003c84 <HAL_SPI_TransmitReceive_DMA+0x9c>
  if (hspi->State != HAL_SPI_STATE_BUSY_RX)
 8003c32:	7828      	ldrb	r0, [r5, #0]
 8003c34:	2804      	cmp	r0, #4
 8003c36:	d001      	beq.n	8003c3c <HAL_SPI_TransmitReceive_DMA+0x54>
    hspi->State = HAL_SPI_STATE_BUSY_TX_RX;
 8003c38:	2005      	movs	r0, #5
 8003c3a:	7028      	strb	r0, [r5, #0]
  hspi->ErrorCode   = HAL_SPI_ERROR_NONE;
 8003c3c:	2000      	movs	r0, #0
  hspi->pTxBuffPtr  = (uint8_t *)pTxData;
 8003c3e:	6321      	str	r1, [r4, #48]	; 0x30
  hspi->ErrorCode   = HAL_SPI_ERROR_NONE;
 8003c40:	6560      	str	r0, [r4, #84]	; 0x54
  hspi->RxISR       = NULL;
 8003c42:	6420      	str	r0, [r4, #64]	; 0x40
  hspi->TxXferCount = Size;
 8003c44:	86e3      	strh	r3, [r4, #54]	; 0x36
  hspi->TxISR       = NULL;
 8003c46:	6460      	str	r0, [r4, #68]	; 0x44
  hspi->TxXferSize  = Size;
 8003c48:	86a3      	strh	r3, [r4, #52]	; 0x34
  hspi->pRxBuffPtr  = (uint8_t *)pRxData;
 8003c4a:	63a2      	str	r2, [r4, #56]	; 0x38
  hspi->RxXferSize  = Size;
 8003c4c:	87a3      	strh	r3, [r4, #60]	; 0x3c
  hspi->RxXferCount = Size;
 8003c4e:	87e3      	strh	r3, [r4, #62]	; 0x3e
  if (hspi->State == HAL_SPI_STATE_BUSY_RX)
 8003c50:	782b      	ldrb	r3, [r5, #0]
    hspi->hdmarx->XferHalfCpltCallback = SPI_DMAHalfReceiveCplt;
 8003c52:	6ce0      	ldr	r0, [r4, #76]	; 0x4c
  if (hspi->State == HAL_SPI_STATE_BUSY_RX)
 8003c54:	2b04      	cmp	r3, #4
 8003c56:	d118      	bne.n	8003c8a <HAL_SPI_TransmitReceive_DMA+0xa2>
 8003c58:	4922      	ldr	r1, [pc, #136]	; (8003ce4 <HAL_SPI_TransmitReceive_DMA+0xfc>)
 8003c5a:	4b23      	ldr	r3, [pc, #140]	; (8003ce8 <HAL_SPI_TransmitReceive_DMA+0x100>)
    hspi->hdmarx->XferCpltCallback     = SPI_DMAReceiveCplt;
 8003c5c:	62c3      	str	r3, [r0, #44]	; 0x2c
  hspi->hdmarx->XferErrorCallback = SPI_DMAError;
 8003c5e:	4b23      	ldr	r3, [pc, #140]	; (8003cec <HAL_SPI_TransmitReceive_DMA+0x104>)
    hspi->hdmarx->XferHalfCpltCallback = SPI_DMAHalfReceiveCplt;
 8003c60:	6301      	str	r1, [r0, #48]	; 0x30
  hspi->hdmarx->XferErrorCallback = SPI_DMAError;
 8003c62:	6343      	str	r3, [r0, #52]	; 0x34
  hspi->hdmarx->XferAbortCallback = NULL;
 8003c64:	2300      	movs	r3, #0
 8003c66:	6383      	str	r3, [r0, #56]	; 0x38
                                 hspi->RxXferCount))
 8003c68:	8fe3      	ldrh	r3, [r4, #62]	; 0x3e
  if (HAL_OK != HAL_DMA_Start_IT(hspi->hdmarx, (uint32_t)&hspi->Instance->DR, (uint32_t)hspi->pRxBuffPtr,
 8003c6a:	6821      	ldr	r1, [r4, #0]
                                 hspi->RxXferCount))
 8003c6c:	b29b      	uxth	r3, r3
  if (HAL_OK != HAL_DMA_Start_IT(hspi->hdmarx, (uint32_t)&hspi->Instance->DR, (uint32_t)hspi->pRxBuffPtr,
 8003c6e:	310c      	adds	r1, #12
 8003c70:	f7ff f830 	bl	8002cd4 <HAL_DMA_Start_IT>
 8003c74:	1e03      	subs	r3, r0, #0
 8003c76:	d00b      	beq.n	8003c90 <HAL_SPI_TransmitReceive_DMA+0xa8>
    SET_BIT(hspi->ErrorCode, HAL_SPI_ERROR_DMA);
 8003c78:	2310      	movs	r3, #16
    hspi->State = HAL_SPI_STATE_READY;
 8003c7a:	2001      	movs	r0, #1
    SET_BIT(hspi->ErrorCode, HAL_SPI_ERROR_DMA);
 8003c7c:	6d62      	ldr	r2, [r4, #84]	; 0x54
 8003c7e:	4313      	orrs	r3, r2
 8003c80:	6563      	str	r3, [r4, #84]	; 0x54
    hspi->State = HAL_SPI_STATE_READY;
 8003c82:	7028      	strb	r0, [r5, #0]
  __HAL_UNLOCK(hspi);
 8003c84:	2300      	movs	r3, #0
 8003c86:	7033      	strb	r3, [r6, #0]
}
 8003c88:	bdfe      	pop	{r1, r2, r3, r4, r5, r6, r7, pc}
 8003c8a:	4919      	ldr	r1, [pc, #100]	; (8003cf0 <HAL_SPI_TransmitReceive_DMA+0x108>)
 8003c8c:	4b19      	ldr	r3, [pc, #100]	; (8003cf4 <HAL_SPI_TransmitReceive_DMA+0x10c>)
 8003c8e:	e7e5      	b.n	8003c5c <HAL_SPI_TransmitReceive_DMA+0x74>
  SET_BIT(hspi->Instance->CR2, SPI_CR2_RXDMAEN);
 8003c90:	2701      	movs	r7, #1
 8003c92:	6822      	ldr	r2, [r4, #0]
  hspi->hdmatx->XferHalfCpltCallback = NULL;
 8003c94:	6ca0      	ldr	r0, [r4, #72]	; 0x48
  SET_BIT(hspi->Instance->CR2, SPI_CR2_RXDMAEN);
 8003c96:	6851      	ldr	r1, [r2, #4]
 8003c98:	4339      	orrs	r1, r7
 8003c9a:	6051      	str	r1, [r2, #4]
  hspi->hdmatx->XferHalfCpltCallback = NULL;
 8003c9c:	6303      	str	r3, [r0, #48]	; 0x30
  hspi->hdmatx->XferCpltCallback     = NULL;
 8003c9e:	62c3      	str	r3, [r0, #44]	; 0x2c
  hspi->hdmatx->XferErrorCallback    = NULL;
 8003ca0:	6343      	str	r3, [r0, #52]	; 0x34
  hspi->hdmatx->XferAbortCallback    = NULL;
 8003ca2:	6383      	str	r3, [r0, #56]	; 0x38
                                 hspi->TxXferCount))
 8003ca4:	8ee3      	ldrh	r3, [r4, #54]	; 0x36
  if (HAL_OK != HAL_DMA_Start_IT(hspi->hdmatx, (uint32_t)hspi->pTxBuffPtr, (uint32_t)&hspi->Instance->DR,
 8003ca6:	6b21      	ldr	r1, [r4, #48]	; 0x30
                                 hspi->TxXferCount))
 8003ca8:	b29b      	uxth	r3, r3
  if (HAL_OK != HAL_DMA_Start_IT(hspi->hdmatx, (uint32_t)hspi->pTxBuffPtr, (uint32_t)&hspi->Instance->DR,
 8003caa:	320c      	adds	r2, #12
 8003cac:	f7ff f812 	bl	8002cd4 <HAL_DMA_Start_IT>
 8003cb0:	2800      	cmp	r0, #0
 8003cb2:	d006      	beq.n	8003cc2 <HAL_SPI_TransmitReceive_DMA+0xda>
    SET_BIT(hspi->ErrorCode, HAL_SPI_ERROR_DMA);
 8003cb4:	2310      	movs	r3, #16
 8003cb6:	6d62      	ldr	r2, [r4, #84]	; 0x54
    errorcode = HAL_ERROR;
 8003cb8:	0038      	movs	r0, r7
    SET_BIT(hspi->ErrorCode, HAL_SPI_ERROR_DMA);
 8003cba:	4313      	orrs	r3, r2
 8003cbc:	6563      	str	r3, [r4, #84]	; 0x54
    hspi->State = HAL_SPI_STATE_READY;
 8003cbe:	702f      	strb	r7, [r5, #0]
    goto error;
 8003cc0:	e7e0      	b.n	8003c84 <HAL_SPI_TransmitReceive_DMA+0x9c>
  if ((hspi->Instance->CR1 & SPI_CR1_SPE) != SPI_CR1_SPE)
 8003cc2:	2240      	movs	r2, #64	; 0x40
 8003cc4:	6823      	ldr	r3, [r4, #0]
 8003cc6:	6819      	ldr	r1, [r3, #0]
 8003cc8:	4211      	tst	r1, r2
 8003cca:	d102      	bne.n	8003cd2 <HAL_SPI_TransmitReceive_DMA+0xea>
    __HAL_SPI_ENABLE(hspi);
 8003ccc:	6819      	ldr	r1, [r3, #0]
 8003cce:	430a      	orrs	r2, r1
 8003cd0:	601a      	str	r2, [r3, #0]
  __HAL_SPI_ENABLE_IT(hspi, (SPI_IT_ERR));
 8003cd2:	2220      	movs	r2, #32
 8003cd4:	6859      	ldr	r1, [r3, #4]
 8003cd6:	430a      	orrs	r2, r1
 8003cd8:	605a      	str	r2, [r3, #4]
  SET_BIT(hspi->Instance->CR2, SPI_CR2_TXDMAEN);
 8003cda:	2202      	movs	r2, #2
 8003cdc:	6859      	ldr	r1, [r3, #4]
 8003cde:	430a      	orrs	r2, r1
 8003ce0:	605a      	str	r2, [r3, #4]
 8003ce2:	e7cf      	b.n	8003c84 <HAL_SPI_TransmitReceive_DMA+0x9c>
 8003ce4:	08003ded 	.word	0x08003ded
 8003ce8:	08003e29 	.word	0x08003e29
 8003cec:	08003e05 	.word	0x08003e05
 8003cf0:	08003df9 	.word	0x08003df9
 8003cf4:	08003e97 	.word	0x08003e97

08003cf8 <HAL_SPI_Receive_DMA>:
{
 8003cf8:	b5f8      	push	{r3, r4, r5, r6, r7, lr}
 8003cfa:	0004      	movs	r4, r0
  if ((hspi->Init.Direction == SPI_DIRECTION_2LINES) && (hspi->Init.Mode == SPI_MODE_MASTER))
 8003cfc:	6880      	ldr	r0, [r0, #8]
{
 8003cfe:	0013      	movs	r3, r2
  if ((hspi->Init.Direction == SPI_DIRECTION_2LINES) && (hspi->Init.Mode == SPI_MODE_MASTER))
 8003d00:	2800      	cmp	r0, #0
 8003d02:	d10f      	bne.n	8003d24 <HAL_SPI_Receive_DMA+0x2c>
 8003d04:	2282      	movs	r2, #130	; 0x82
 8003d06:	6865      	ldr	r5, [r4, #4]
 8003d08:	0052      	lsls	r2, r2, #1
 8003d0a:	4295      	cmp	r5, r2
 8003d0c:	d10a      	bne.n	8003d24 <HAL_SPI_Receive_DMA+0x2c>
    hspi->State = HAL_SPI_STATE_BUSY_RX;
 8003d0e:	0022      	movs	r2, r4
 8003d10:	3004      	adds	r0, #4
 8003d12:	3251      	adds	r2, #81	; 0x51
 8003d14:	7010      	strb	r0, [r2, #0]
    return HAL_SPI_TransmitReceive_DMA(hspi, pData, pData, Size);
 8003d16:	000a      	movs	r2, r1
 8003d18:	0020      	movs	r0, r4
 8003d1a:	f7ff ff65 	bl	8003be8 <HAL_SPI_TransmitReceive_DMA>
 8003d1e:	0005      	movs	r5, r0
}
 8003d20:	0028      	movs	r0, r5
 8003d22:	bdf8      	pop	{r3, r4, r5, r6, r7, pc}
  __HAL_LOCK(hspi);
 8003d24:	0026      	movs	r6, r4
 8003d26:	3650      	adds	r6, #80	; 0x50
 8003d28:	7832      	ldrb	r2, [r6, #0]
 8003d2a:	2502      	movs	r5, #2
 8003d2c:	2a01      	cmp	r2, #1
 8003d2e:	d0f7      	beq.n	8003d20 <HAL_SPI_Receive_DMA+0x28>
 8003d30:	2201      	movs	r2, #1
  if (hspi->State != HAL_SPI_STATE_READY)
 8003d32:	0027      	movs	r7, r4
  __HAL_LOCK(hspi);
 8003d34:	7032      	strb	r2, [r6, #0]
  if (hspi->State != HAL_SPI_STATE_READY)
 8003d36:	3751      	adds	r7, #81	; 0x51
 8003d38:	783a      	ldrb	r2, [r7, #0]
 8003d3a:	b2d5      	uxtb	r5, r2
 8003d3c:	2a01      	cmp	r2, #1
 8003d3e:	d149      	bne.n	8003dd4 <HAL_SPI_Receive_DMA+0xdc>
  if ((pData == NULL) || (Size == 0U))
 8003d40:	2900      	cmp	r1, #0
 8003d42:	d032      	beq.n	8003daa <HAL_SPI_Receive_DMA+0xb2>
 8003d44:	2b00      	cmp	r3, #0
 8003d46:	d030      	beq.n	8003daa <HAL_SPI_Receive_DMA+0xb2>
  hspi->State       = HAL_SPI_STATE_BUSY_RX;
 8003d48:	3203      	adds	r2, #3
 8003d4a:	703a      	strb	r2, [r7, #0]
  hspi->ErrorCode   = HAL_SPI_ERROR_NONE;
 8003d4c:	2200      	movs	r2, #0
  hspi->RxXferSize  = Size;
 8003d4e:	87a3      	strh	r3, [r4, #60]	; 0x3c
  hspi->ErrorCode   = HAL_SPI_ERROR_NONE;
 8003d50:	6562      	str	r2, [r4, #84]	; 0x54
  hspi->RxXferCount = Size;
 8003d52:	87e3      	strh	r3, [r4, #62]	; 0x3e
  if (hspi->Init.Direction == SPI_DIRECTION_1LINE)
 8003d54:	2380      	movs	r3, #128	; 0x80
  hspi->RxISR       = NULL;
 8003d56:	6422      	str	r2, [r4, #64]	; 0x40
  hspi->TxISR       = NULL;
 8003d58:	6462      	str	r2, [r4, #68]	; 0x44
  hspi->TxXferSize  = 0U;
 8003d5a:	86a2      	strh	r2, [r4, #52]	; 0x34
  hspi->TxXferCount = 0U;
 8003d5c:	86e2      	strh	r2, [r4, #54]	; 0x36
  hspi->pRxBuffPtr  = (uint8_t *)pData;
 8003d5e:	63a1      	str	r1, [r4, #56]	; 0x38
    __HAL_SPI_DISABLE(hspi);
 8003d60:	6822      	ldr	r2, [r4, #0]
  if (hspi->Init.Direction == SPI_DIRECTION_1LINE)
 8003d62:	021b      	lsls	r3, r3, #8
 8003d64:	4298      	cmp	r0, r3
 8003d66:	d107      	bne.n	8003d78 <HAL_SPI_Receive_DMA+0x80>
    __HAL_SPI_DISABLE(hspi);
 8003d68:	2040      	movs	r0, #64	; 0x40
 8003d6a:	6813      	ldr	r3, [r2, #0]
 8003d6c:	4383      	bics	r3, r0
 8003d6e:	6013      	str	r3, [r2, #0]
    SPI_1LINE_RX(hspi);
 8003d70:	6813      	ldr	r3, [r2, #0]
 8003d72:	4819      	ldr	r0, [pc, #100]	; (8003dd8 <HAL_SPI_Receive_DMA+0xe0>)
 8003d74:	4003      	ands	r3, r0
 8003d76:	6013      	str	r3, [r2, #0]
  hspi->hdmarx->XferHalfCpltCallback = SPI_DMAHalfReceiveCplt;
 8003d78:	6ce0      	ldr	r0, [r4, #76]	; 0x4c
 8003d7a:	4b18      	ldr	r3, [pc, #96]	; (8003ddc <HAL_SPI_Receive_DMA+0xe4>)
  if (HAL_OK != HAL_DMA_Start_IT(hspi->hdmarx, (uint32_t)&hspi->Instance->DR, (uint32_t)hspi->pRxBuffPtr,
 8003d7c:	320c      	adds	r2, #12
  hspi->hdmarx->XferHalfCpltCallback = SPI_DMAHalfReceiveCplt;
 8003d7e:	6303      	str	r3, [r0, #48]	; 0x30
  hspi->hdmarx->XferCpltCallback = SPI_DMAReceiveCplt;
 8003d80:	4b17      	ldr	r3, [pc, #92]	; (8003de0 <HAL_SPI_Receive_DMA+0xe8>)
  if (HAL_OK != HAL_DMA_Start_IT(hspi->hdmarx, (uint32_t)&hspi->Instance->DR, (uint32_t)hspi->pRxBuffPtr,
 8003d82:	4694      	mov	ip, r2
  hspi->hdmarx->XferCpltCallback = SPI_DMAReceiveCplt;
 8003d84:	62c3      	str	r3, [r0, #44]	; 0x2c
  hspi->hdmarx->XferErrorCallback = SPI_DMAError;
 8003d86:	4b17      	ldr	r3, [pc, #92]	; (8003de4 <HAL_SPI_Receive_DMA+0xec>)
  if (HAL_OK != HAL_DMA_Start_IT(hspi->hdmarx, (uint32_t)&hspi->Instance->DR, (uint32_t)hspi->pRxBuffPtr,
 8003d88:	000a      	movs	r2, r1
  hspi->hdmarx->XferErrorCallback = SPI_DMAError;
 8003d8a:	6343      	str	r3, [r0, #52]	; 0x34
  hspi->hdmarx->XferAbortCallback = NULL;
 8003d8c:	2300      	movs	r3, #0
 8003d8e:	6383      	str	r3, [r0, #56]	; 0x38
                                 hspi->RxXferCount))
 8003d90:	8fe3      	ldrh	r3, [r4, #62]	; 0x3e
  if (HAL_OK != HAL_DMA_Start_IT(hspi->hdmarx, (uint32_t)&hspi->Instance->DR, (uint32_t)hspi->pRxBuffPtr,
 8003d92:	4661      	mov	r1, ip
                                 hspi->RxXferCount))
 8003d94:	b29b      	uxth	r3, r3
  if (HAL_OK != HAL_DMA_Start_IT(hspi->hdmarx, (uint32_t)&hspi->Instance->DR, (uint32_t)hspi->pRxBuffPtr,
 8003d96:	f7fe ff9d 	bl	8002cd4 <HAL_DMA_Start_IT>
 8003d9a:	2800      	cmp	r0, #0
 8003d9c:	d008      	beq.n	8003db0 <HAL_SPI_Receive_DMA+0xb8>
    SET_BIT(hspi->ErrorCode, HAL_SPI_ERROR_DMA);
 8003d9e:	2310      	movs	r3, #16
 8003da0:	6d62      	ldr	r2, [r4, #84]	; 0x54
 8003da2:	4313      	orrs	r3, r2
 8003da4:	6563      	str	r3, [r4, #84]	; 0x54
    hspi->State = HAL_SPI_STATE_READY;
 8003da6:	2301      	movs	r3, #1
 8003da8:	703b      	strb	r3, [r7, #0]
  __HAL_UNLOCK(hspi);
 8003daa:	2300      	movs	r3, #0
 8003dac:	7033      	strb	r3, [r6, #0]
  return errorcode;
 8003dae:	e7b7      	b.n	8003d20 <HAL_SPI_Receive_DMA+0x28>
  if ((hspi->Instance->CR1 & SPI_CR1_SPE) != SPI_CR1_SPE)
 8003db0:	2240      	movs	r2, #64	; 0x40
 8003db2:	6823      	ldr	r3, [r4, #0]
 8003db4:	6819      	ldr	r1, [r3, #0]
 8003db6:	4211      	tst	r1, r2
 8003db8:	d102      	bne.n	8003dc0 <HAL_SPI_Receive_DMA+0xc8>
    __HAL_SPI_ENABLE(hspi);
 8003dba:	6819      	ldr	r1, [r3, #0]
 8003dbc:	430a      	orrs	r2, r1
 8003dbe:	601a      	str	r2, [r3, #0]
  __HAL_SPI_ENABLE_IT(hspi, (SPI_IT_ERR));
 8003dc0:	2220      	movs	r2, #32
 8003dc2:	6859      	ldr	r1, [r3, #4]
  HAL_StatusTypeDef errorcode = HAL_OK;
 8003dc4:	2500      	movs	r5, #0
  __HAL_SPI_ENABLE_IT(hspi, (SPI_IT_ERR));
 8003dc6:	430a      	orrs	r2, r1
 8003dc8:	605a      	str	r2, [r3, #4]
  SET_BIT(hspi->Instance->CR2, SPI_CR2_RXDMAEN);
 8003dca:	2201      	movs	r2, #1
 8003dcc:	6859      	ldr	r1, [r3, #4]
 8003dce:	430a      	orrs	r2, r1
 8003dd0:	605a      	str	r2, [r3, #4]
 8003dd2:	e7ea      	b.n	8003daa <HAL_SPI_Receive_DMA+0xb2>
    errorcode = HAL_BUSY;
 8003dd4:	2502      	movs	r5, #2
 8003dd6:	e7e8      	b.n	8003daa <HAL_SPI_Receive_DMA+0xb2>
 8003dd8:	ffffbfff 	.word	0xffffbfff
 8003ddc:	08003ded 	.word	0x08003ded
 8003de0:	08003e29 	.word	0x08003e29
 8003de4:	08003e05 	.word	0x08003e05

08003de8 <HAL_SPI_TxRxCpltCallback>:
 8003de8:	4770      	bx	lr

08003dea <HAL_SPI_RxHalfCpltCallback>:
 8003dea:	4770      	bx	lr

08003dec <SPI_DMAHalfReceiveCplt>:
{
 8003dec:	b510      	push	{r4, lr}
  HAL_SPI_RxHalfCpltCallback(hspi);
 8003dee:	6a80      	ldr	r0, [r0, #40]	; 0x28
 8003df0:	f7ff fffb 	bl	8003dea <HAL_SPI_RxHalfCpltCallback>
}
 8003df4:	bd10      	pop	{r4, pc}

08003df6 <HAL_SPI_TxRxHalfCpltCallback>:
 8003df6:	4770      	bx	lr

08003df8 <SPI_DMAHalfTransmitReceiveCplt>:
{
 8003df8:	b510      	push	{r4, lr}
  HAL_SPI_TxRxHalfCpltCallback(hspi);
 8003dfa:	6a80      	ldr	r0, [r0, #40]	; 0x28
 8003dfc:	f7ff fffb 	bl	8003df6 <HAL_SPI_TxRxHalfCpltCallback>
}
 8003e00:	bd10      	pop	{r4, pc}

08003e02 <HAL_SPI_ErrorCallback>:
 8003e02:	4770      	bx	lr

08003e04 <SPI_DMAError>:
  CLEAR_BIT(hspi->Instance->CR2, SPI_CR2_TXDMAEN | SPI_CR2_RXDMAEN);
 8003e04:	2103      	movs	r1, #3
  SPI_HandleTypeDef *hspi = (SPI_HandleTypeDef *)(((DMA_HandleTypeDef *)hdma)->Parent); /* Derogation MISRAC2012-Rule-11.5 */
 8003e06:	6a80      	ldr	r0, [r0, #40]	; 0x28
{
 8003e08:	b510      	push	{r4, lr}
  CLEAR_BIT(hspi->Instance->CR2, SPI_CR2_TXDMAEN | SPI_CR2_RXDMAEN);
 8003e0a:	6802      	ldr	r2, [r0, #0]
 8003e0c:	6853      	ldr	r3, [r2, #4]
 8003e0e:	438b      	bics	r3, r1
 8003e10:	6053      	str	r3, [r2, #4]
  SET_BIT(hspi->ErrorCode, HAL_SPI_ERROR_DMA);
 8003e12:	2310      	movs	r3, #16
 8003e14:	6d42      	ldr	r2, [r0, #84]	; 0x54
 8003e16:	4313      	orrs	r3, r2
 8003e18:	6543      	str	r3, [r0, #84]	; 0x54
  hspi->State = HAL_SPI_STATE_READY;
 8003e1a:	0003      	movs	r3, r0
 8003e1c:	2201      	movs	r2, #1
 8003e1e:	3351      	adds	r3, #81	; 0x51
 8003e20:	701a      	strb	r2, [r3, #0]
  HAL_SPI_ErrorCallback(hspi);
 8003e22:	f7ff ffee 	bl	8003e02 <HAL_SPI_ErrorCallback>
}
 8003e26:	bd10      	pop	{r4, pc}

08003e28 <SPI_DMAReceiveCplt>:
{
 8003e28:	b570      	push	{r4, r5, r6, lr}
 8003e2a:	0005      	movs	r5, r0
  SPI_HandleTypeDef *hspi = (SPI_HandleTypeDef *)(((DMA_HandleTypeDef *)hdma)->Parent); /* Derogation MISRAC2012-Rule-11.5 */
 8003e2c:	6a84      	ldr	r4, [r0, #40]	; 0x28
  tickstart = HAL_GetTick();
 8003e2e:	f7fe fea5 	bl	8002b7c <HAL_GetTick>
 8003e32:	0002      	movs	r2, r0
  if ((hdma->Instance->CCR & DMA_CCR_CIRC) != DMA_CCR_CIRC)
 8003e34:	2020      	movs	r0, #32
 8003e36:	682b      	ldr	r3, [r5, #0]
 8003e38:	681b      	ldr	r3, [r3, #0]
 8003e3a:	4203      	tst	r3, r0
 8003e3c:	d127      	bne.n	8003e8e <SPI_DMAReceiveCplt+0x66>
    __HAL_SPI_DISABLE_IT(hspi, SPI_IT_ERR);
 8003e3e:	6823      	ldr	r3, [r4, #0]
 8003e40:	6859      	ldr	r1, [r3, #4]
 8003e42:	4381      	bics	r1, r0
 8003e44:	6059      	str	r1, [r3, #4]
    if ((hspi->Init.Direction == SPI_DIRECTION_2LINES) && (hspi->Init.Mode == SPI_MODE_MASTER))
 8003e46:	68a1      	ldr	r1, [r4, #8]
 8003e48:	2900      	cmp	r1, #0
 8003e4a:	d11d      	bne.n	8003e88 <SPI_DMAReceiveCplt+0x60>
 8003e4c:	3105      	adds	r1, #5
 8003e4e:	6860      	ldr	r0, [r4, #4]
 8003e50:	31ff      	adds	r1, #255	; 0xff
 8003e52:	4288      	cmp	r0, r1
 8003e54:	d118      	bne.n	8003e88 <SPI_DMAReceiveCplt+0x60>
      CLEAR_BIT(hspi->Instance->CR2, SPI_CR2_TXDMAEN | SPI_CR2_RXDMAEN);
 8003e56:	2003      	movs	r0, #3
 8003e58:	6859      	ldr	r1, [r3, #4]
      CLEAR_BIT(hspi->Instance->CR2, SPI_CR2_RXDMAEN);
 8003e5a:	4381      	bics	r1, r0
 8003e5c:	6059      	str	r1, [r3, #4]
    if (SPI_EndRxTransaction(hspi, SPI_DEFAULT_TIMEOUT, tickstart) != HAL_OK)
 8003e5e:	0020      	movs	r0, r4
 8003e60:	2164      	movs	r1, #100	; 0x64
 8003e62:	f7ff fd0d 	bl	8003880 <SPI_EndRxTransaction>
 8003e66:	2800      	cmp	r0, #0
 8003e68:	d001      	beq.n	8003e6e <SPI_DMAReceiveCplt+0x46>
      hspi->ErrorCode = HAL_SPI_ERROR_FLAG;
 8003e6a:	2320      	movs	r3, #32
 8003e6c:	6563      	str	r3, [r4, #84]	; 0x54
    hspi->RxXferCount = 0U;
 8003e6e:	2300      	movs	r3, #0
 8003e70:	87e3      	strh	r3, [r4, #62]	; 0x3e
    hspi->State = HAL_SPI_STATE_READY;
 8003e72:	0023      	movs	r3, r4
 8003e74:	2201      	movs	r2, #1
 8003e76:	3351      	adds	r3, #81	; 0x51
 8003e78:	701a      	strb	r2, [r3, #0]
    if (hspi->ErrorCode != HAL_SPI_ERROR_NONE)
 8003e7a:	6d63      	ldr	r3, [r4, #84]	; 0x54
 8003e7c:	2b00      	cmp	r3, #0
 8003e7e:	d006      	beq.n	8003e8e <SPI_DMAReceiveCplt+0x66>
      HAL_SPI_ErrorCallback(hspi);
 8003e80:	0020      	movs	r0, r4
 8003e82:	f7ff ffbe 	bl	8003e02 <HAL_SPI_ErrorCallback>
}
 8003e86:	bd70      	pop	{r4, r5, r6, pc}
      CLEAR_BIT(hspi->Instance->CR2, SPI_CR2_RXDMAEN);
 8003e88:	2001      	movs	r0, #1
 8003e8a:	6859      	ldr	r1, [r3, #4]
 8003e8c:	e7e5      	b.n	8003e5a <SPI_DMAReceiveCplt+0x32>
  HAL_SPI_RxCpltCallback(hspi);
 8003e8e:	0020      	movs	r0, r4
 8003e90:	f000 ff18 	bl	8004cc4 <HAL_SPI_RxCpltCallback>
 8003e94:	e7f7      	b.n	8003e86 <SPI_DMAReceiveCplt+0x5e>

08003e96 <SPI_DMATransmitReceiveCplt>:
{
 8003e96:	b570      	push	{r4, r5, r6, lr}
 8003e98:	0005      	movs	r5, r0
  SPI_HandleTypeDef *hspi = (SPI_HandleTypeDef *)(((DMA_HandleTypeDef *)hdma)->Parent); /* Derogation MISRAC2012-Rule-11.5 */
 8003e9a:	6a84      	ldr	r4, [r0, #40]	; 0x28
  tickstart = HAL_GetTick();
 8003e9c:	f7fe fe6e 	bl	8002b7c <HAL_GetTick>
  if ((hdma->Instance->CCR & DMA_CCR_CIRC) != DMA_CCR_CIRC)
 8003ea0:	682b      	ldr	r3, [r5, #0]
 8003ea2:	2520      	movs	r5, #32
 8003ea4:	681b      	ldr	r3, [r3, #0]
  tickstart = HAL_GetTick();
 8003ea6:	0002      	movs	r2, r0
  if ((hdma->Instance->CCR & DMA_CCR_CIRC) != DMA_CCR_CIRC)
 8003ea8:	422b      	tst	r3, r5
 8003eaa:	d11f      	bne.n	8003eec <SPI_DMATransmitReceiveCplt+0x56>
    __HAL_SPI_DISABLE_IT(hspi, SPI_IT_ERR);
 8003eac:	6821      	ldr	r1, [r4, #0]
    if (SPI_EndRxTxTransaction(hspi, SPI_DEFAULT_TIMEOUT, tickstart) != HAL_OK)
 8003eae:	0020      	movs	r0, r4
    __HAL_SPI_DISABLE_IT(hspi, SPI_IT_ERR);
 8003eb0:	684b      	ldr	r3, [r1, #4]
 8003eb2:	43ab      	bics	r3, r5
 8003eb4:	604b      	str	r3, [r1, #4]
    if (SPI_EndRxTxTransaction(hspi, SPI_DEFAULT_TIMEOUT, tickstart) != HAL_OK)
 8003eb6:	2164      	movs	r1, #100	; 0x64
 8003eb8:	f7ff fd0c 	bl	80038d4 <SPI_EndRxTxTransaction>
 8003ebc:	2800      	cmp	r0, #0
 8003ebe:	d002      	beq.n	8003ec6 <SPI_DMATransmitReceiveCplt+0x30>
      SET_BIT(hspi->ErrorCode, HAL_SPI_ERROR_FLAG);
 8003ec0:	6d63      	ldr	r3, [r4, #84]	; 0x54
 8003ec2:	431d      	orrs	r5, r3
 8003ec4:	6565      	str	r5, [r4, #84]	; 0x54
    CLEAR_BIT(hspi->Instance->CR2, SPI_CR2_TXDMAEN | SPI_CR2_RXDMAEN);
 8003ec6:	2103      	movs	r1, #3
 8003ec8:	6822      	ldr	r2, [r4, #0]
 8003eca:	6853      	ldr	r3, [r2, #4]
 8003ecc:	438b      	bics	r3, r1
 8003ece:	6053      	str	r3, [r2, #4]
    hspi->TxXferCount = 0U;
 8003ed0:	2300      	movs	r3, #0
 8003ed2:	86e3      	strh	r3, [r4, #54]	; 0x36
    hspi->RxXferCount = 0U;
 8003ed4:	87e3      	strh	r3, [r4, #62]	; 0x3e
    hspi->State = HAL_SPI_STATE_READY;
 8003ed6:	0023      	movs	r3, r4
 8003ed8:	2201      	movs	r2, #1
 8003eda:	3351      	adds	r3, #81	; 0x51
 8003edc:	701a      	strb	r2, [r3, #0]
    if (hspi->ErrorCode != HAL_SPI_ERROR_NONE)
 8003ede:	6d63      	ldr	r3, [r4, #84]	; 0x54
 8003ee0:	2b00      	cmp	r3, #0
 8003ee2:	d003      	beq.n	8003eec <SPI_DMATransmitReceiveCplt+0x56>
      HAL_SPI_ErrorCallback(hspi);
 8003ee4:	0020      	movs	r0, r4
 8003ee6:	f7ff ff8c 	bl	8003e02 <HAL_SPI_ErrorCallback>
}
 8003eea:	bd70      	pop	{r4, r5, r6, pc}
  HAL_SPI_TxRxCpltCallback(hspi);
 8003eec:	0020      	movs	r0, r4
 8003eee:	f7ff ff7b 	bl	8003de8 <HAL_SPI_TxRxCpltCallback>
 8003ef2:	e7fa      	b.n	8003eea <SPI_DMATransmitReceiveCplt+0x54>

08003ef4 <TIM_Base_SetConfig>:
{
  uint32_t tmpcr1;
  tmpcr1 = TIMx->CR1;

  /* Set TIM Time Base Unit parameters ---------------------------------------*/
  if (IS_TIM_COUNTER_MODE_SELECT_INSTANCE(TIMx))
 8003ef4:	2280      	movs	r2, #128	; 0x80
  tmpcr1 = TIMx->CR1;
 8003ef6:	6803      	ldr	r3, [r0, #0]
  if (IS_TIM_COUNTER_MODE_SELECT_INSTANCE(TIMx))
 8003ef8:	05d2      	lsls	r2, r2, #23
 8003efa:	4290      	cmp	r0, r2
 8003efc:	d008      	beq.n	8003f10 <TIM_Base_SetConfig+0x1c>
 8003efe:	4a15      	ldr	r2, [pc, #84]	; (8003f54 <TIM_Base_SetConfig+0x60>)
 8003f00:	4290      	cmp	r0, r2
 8003f02:	d005      	beq.n	8003f10 <TIM_Base_SetConfig+0x1c>
 8003f04:	4a14      	ldr	r2, [pc, #80]	; (8003f58 <TIM_Base_SetConfig+0x64>)
 8003f06:	4290      	cmp	r0, r2
 8003f08:	d002      	beq.n	8003f10 <TIM_Base_SetConfig+0x1c>
 8003f0a:	4a14      	ldr	r2, [pc, #80]	; (8003f5c <TIM_Base_SetConfig+0x68>)
 8003f0c:	4290      	cmp	r0, r2
 8003f0e:	d114      	bne.n	8003f3a <TIM_Base_SetConfig+0x46>
  {
    /* Select the Counter Mode */
    tmpcr1 &= ~(TIM_CR1_DIR | TIM_CR1_CMS);
 8003f10:	2270      	movs	r2, #112	; 0x70
 8003f12:	4393      	bics	r3, r2
    tmpcr1 |= Structure->CounterMode;
 8003f14:	684a      	ldr	r2, [r1, #4]
 8003f16:	4313      	orrs	r3, r2
  }

  if (IS_TIM_CLOCK_DIVISION_INSTANCE(TIMx))
 8003f18:	2280      	movs	r2, #128	; 0x80
 8003f1a:	05d2      	lsls	r2, r2, #23
 8003f1c:	4290      	cmp	r0, r2
 8003f1e:	d008      	beq.n	8003f32 <TIM_Base_SetConfig+0x3e>
 8003f20:	4a0c      	ldr	r2, [pc, #48]	; (8003f54 <TIM_Base_SetConfig+0x60>)
 8003f22:	4290      	cmp	r0, r2
 8003f24:	d005      	beq.n	8003f32 <TIM_Base_SetConfig+0x3e>
 8003f26:	4a0c      	ldr	r2, [pc, #48]	; (8003f58 <TIM_Base_SetConfig+0x64>)
 8003f28:	4290      	cmp	r0, r2
 8003f2a:	d002      	beq.n	8003f32 <TIM_Base_SetConfig+0x3e>
 8003f2c:	4a0b      	ldr	r2, [pc, #44]	; (8003f5c <TIM_Base_SetConfig+0x68>)
 8003f2e:	4290      	cmp	r0, r2
 8003f30:	d103      	bne.n	8003f3a <TIM_Base_SetConfig+0x46>
  {
    /* Set the clock division */
    tmpcr1 &= ~TIM_CR1_CKD;
 8003f32:	4a0b      	ldr	r2, [pc, #44]	; (8003f60 <TIM_Base_SetConfig+0x6c>)
 8003f34:	401a      	ands	r2, r3
    tmpcr1 |= (uint32_t)Structure->ClockDivision;
 8003f36:	68cb      	ldr	r3, [r1, #12]
 8003f38:	4313      	orrs	r3, r2
  }

  /* Set the auto-reload preload */
  MODIFY_REG(tmpcr1, TIM_CR1_ARPE, Structure->AutoReloadPreload);
 8003f3a:	2280      	movs	r2, #128	; 0x80
 8003f3c:	4393      	bics	r3, r2
 8003f3e:	690a      	ldr	r2, [r1, #16]
 8003f40:	4313      	orrs	r3, r2

  TIMx->CR1 = tmpcr1;
 8003f42:	6003      	str	r3, [r0, #0]

  /* Set the Autoreload value */
  TIMx->ARR = (uint32_t)Structure->Period ;
 8003f44:	688b      	ldr	r3, [r1, #8]
 8003f46:	62c3      	str	r3, [r0, #44]	; 0x2c

  /* Set the Prescaler value */
  TIMx->PSC = Structure->Prescaler;
 8003f48:	680b      	ldr	r3, [r1, #0]
 8003f4a:	6283      	str	r3, [r0, #40]	; 0x28

  /* Generate an update event to reload the Prescaler
     and the repetition counter (only for advanced timer) value immediately */
  TIMx->EGR = TIM_EGR_UG;
 8003f4c:	2301      	movs	r3, #1
 8003f4e:	6143      	str	r3, [r0, #20]
}
 8003f50:	4770      	bx	lr
 8003f52:	46c0      	nop			; (mov r8, r8)
 8003f54:	40000400 	.word	0x40000400
 8003f58:	40010800 	.word	0x40010800
 8003f5c:	40011400 	.word	0x40011400
 8003f60:	fffffcff 	.word	0xfffffcff

08003f64 <TIM_OC1_SetConfig>:
  uint32_t tmpccmrx;
  uint32_t tmpccer;
  uint32_t tmpcr2;

  /* Disable the Channel 1: Reset the CC1E Bit */
  TIMx->CCER &= ~TIM_CCER_CC1E;
 8003f64:	2201      	movs	r2, #1
{
 8003f66:	b530      	push	{r4, r5, lr}
  /* Get the TIMx CCMR1 register value */
  tmpccmrx = TIMx->CCMR1;

  /* Reset the Output Compare Mode Bits */
  tmpccmrx &= ~TIM_CCMR1_OC1M;
  tmpccmrx &= ~TIM_CCMR1_CC1S;
 8003f68:	2573      	movs	r5, #115	; 0x73
  TIMx->CCER &= ~TIM_CCER_CC1E;
 8003f6a:	6a03      	ldr	r3, [r0, #32]
 8003f6c:	4393      	bics	r3, r2
 8003f6e:	6203      	str	r3, [r0, #32]
  tmpccer = TIMx->CCER;
 8003f70:	6a03      	ldr	r3, [r0, #32]
  tmpcr2 =  TIMx->CR2;
 8003f72:	6844      	ldr	r4, [r0, #4]
  tmpccmrx = TIMx->CCMR1;
 8003f74:	6982      	ldr	r2, [r0, #24]
  tmpccmrx &= ~TIM_CCMR1_CC1S;
 8003f76:	43aa      	bics	r2, r5
  /* Select the Output Compare Mode */
  tmpccmrx |= OC_Config->OCMode;
 8003f78:	680d      	ldr	r5, [r1, #0]
 8003f7a:	432a      	orrs	r2, r5

  /* Reset the Output Polarity level */
  tmpccer &= ~TIM_CCER_CC1P;
 8003f7c:	2502      	movs	r5, #2
 8003f7e:	43ab      	bics	r3, r5
  /* Set the Output Compare Polarity */
  tmpccer |= OC_Config->OCPolarity;
 8003f80:	688d      	ldr	r5, [r1, #8]

  /* Write to TIMx CR2 */
  TIMx->CR2 = tmpcr2;
 8003f82:	6044      	str	r4, [r0, #4]

  /* Write to TIMx CCMR1 */
  TIMx->CCMR1 = tmpccmrx;
 8003f84:	6182      	str	r2, [r0, #24]

  /* Set the Capture Compare Register value */
  TIMx->CCR1 = OC_Config->Pulse;
 8003f86:	684a      	ldr	r2, [r1, #4]
  tmpccer |= OC_Config->OCPolarity;
 8003f88:	432b      	orrs	r3, r5
  TIMx->CCR1 = OC_Config->Pulse;
 8003f8a:	6342      	str	r2, [r0, #52]	; 0x34

  /* Write to TIMx CCER */
  TIMx->CCER = tmpccer;
 8003f8c:	6203      	str	r3, [r0, #32]
}
 8003f8e:	bd30      	pop	{r4, r5, pc}

08003f90 <TIM_OC2_SetConfig>:
  uint32_t tmpccmrx;
  uint32_t tmpccer;
  uint32_t tmpcr2;

  /* Disable the Channel 2: Reset the CC2E Bit */
  TIMx->CCER &= ~TIM_CCER_CC2E;
 8003f90:	2210      	movs	r2, #16
 8003f92:	6a03      	ldr	r3, [r0, #32]
{
 8003f94:	b530      	push	{r4, r5, lr}
  TIMx->CCER &= ~TIM_CCER_CC2E;
 8003f96:	4393      	bics	r3, r2
 8003f98:	6203      	str	r3, [r0, #32]

  /* Get the TIMx CCER register value */
  tmpccer = TIMx->CCER;
 8003f9a:	6a04      	ldr	r4, [r0, #32]
  /* Get the TIMx CCMR1 register value */
  tmpccmrx = TIMx->CCMR1;

  /* Reset the Output Compare mode and Capture/Compare selection Bits */
  tmpccmrx &= ~TIM_CCMR1_OC2M;
  tmpccmrx &= ~TIM_CCMR1_CC2S;
 8003f9c:	4a08      	ldr	r2, [pc, #32]	; (8003fc0 <TIM_OC2_SetConfig+0x30>)
  tmpcr2 =  TIMx->CR2;
 8003f9e:	6845      	ldr	r5, [r0, #4]
  tmpccmrx = TIMx->CCMR1;
 8003fa0:	6983      	ldr	r3, [r0, #24]
  tmpccmrx &= ~TIM_CCMR1_CC2S;
 8003fa2:	4013      	ands	r3, r2

  /* Select the Output Compare Mode */
  tmpccmrx |= (OC_Config->OCMode << 8U);
 8003fa4:	680a      	ldr	r2, [r1, #0]
 8003fa6:	0212      	lsls	r2, r2, #8
 8003fa8:	431a      	orrs	r2, r3

  /* Reset the Output Polarity level */
  tmpccer &= ~TIM_CCER_CC2P;
 8003faa:	2320      	movs	r3, #32
 8003fac:	439c      	bics	r4, r3
  /* Set the Output Compare Polarity */
  tmpccer |= (OC_Config->OCPolarity << 4U);
 8003fae:	688b      	ldr	r3, [r1, #8]

  /* Write to TIMx CR2 */
  TIMx->CR2 = tmpcr2;
 8003fb0:	6045      	str	r5, [r0, #4]
  tmpccer |= (OC_Config->OCPolarity << 4U);
 8003fb2:	011b      	lsls	r3, r3, #4

  /* Write to TIMx CCMR1 */
  TIMx->CCMR1 = tmpccmrx;
 8003fb4:	6182      	str	r2, [r0, #24]

  /* Set the Capture Compare Register value */
  TIMx->CCR2 = OC_Config->Pulse;
 8003fb6:	684a      	ldr	r2, [r1, #4]
  tmpccer |= (OC_Config->OCPolarity << 4U);
 8003fb8:	4323      	orrs	r3, r4
  TIMx->CCR2 = OC_Config->Pulse;
 8003fba:	6382      	str	r2, [r0, #56]	; 0x38

  /* Write to TIMx CCER */
  TIMx->CCER = tmpccer;
 8003fbc:	6203      	str	r3, [r0, #32]
}
 8003fbe:	bd30      	pop	{r4, r5, pc}
 8003fc0:	ffff8cff 	.word	0xffff8cff

08003fc4 <TIM_CCxChannelCmd>:

  /* Check the parameters */
  assert_param(IS_TIM_CC1_INSTANCE(TIMx));
  assert_param(IS_TIM_CHANNELS(Channel));

  tmp = TIM_CCER_CC1E << (Channel & 0x1FU); /* 0x1FU = 31 bits max shift */
 8003fc4:	231f      	movs	r3, #31
{
 8003fc6:	b510      	push	{r4, lr}
  tmp = TIM_CCER_CC1E << (Channel & 0x1FU); /* 0x1FU = 31 bits max shift */
 8003fc8:	2401      	movs	r4, #1
 8003fca:	4019      	ands	r1, r3
 8003fcc:	408c      	lsls	r4, r1

  /* Reset the CCxE Bit */
  TIMx->CCER &= ~tmp;

  /* Set or reset the CCxE Bit */
  TIMx->CCER |= (uint32_t)(ChannelState << (Channel & 0x1FU)); /* 0x1FU = 31 bits max shift */
 8003fce:	408a      	lsls	r2, r1
  TIMx->CCER &= ~tmp;
 8003fd0:	6a03      	ldr	r3, [r0, #32]
 8003fd2:	43a3      	bics	r3, r4
 8003fd4:	6203      	str	r3, [r0, #32]
  TIMx->CCER |= (uint32_t)(ChannelState << (Channel & 0x1FU)); /* 0x1FU = 31 bits max shift */
 8003fd6:	6a03      	ldr	r3, [r0, #32]
 8003fd8:	431a      	orrs	r2, r3
 8003fda:	6202      	str	r2, [r0, #32]
}
 8003fdc:	bd10      	pop	{r4, pc}

08003fde <HAL_TIM_Base_Init>:
{
 8003fde:	b570      	push	{r4, r5, r6, lr}
 8003fe0:	0004      	movs	r4, r0
    return HAL_ERROR;
 8003fe2:	2001      	movs	r0, #1
  if (htim == NULL)
 8003fe4:	2c00      	cmp	r4, #0
 8003fe6:	d01d      	beq.n	8004024 <HAL_TIM_Base_Init+0x46>
  if (htim->State == HAL_TIM_STATE_RESET)
 8003fe8:	0025      	movs	r5, r4
 8003fea:	3539      	adds	r5, #57	; 0x39
 8003fec:	782b      	ldrb	r3, [r5, #0]
 8003fee:	b2da      	uxtb	r2, r3
 8003ff0:	2b00      	cmp	r3, #0
 8003ff2:	d105      	bne.n	8004000 <HAL_TIM_Base_Init+0x22>
    htim->Lock = HAL_UNLOCKED;
 8003ff4:	0023      	movs	r3, r4
 8003ff6:	3338      	adds	r3, #56	; 0x38
    HAL_TIM_Base_MspInit(htim);
 8003ff8:	0020      	movs	r0, r4
    htim->Lock = HAL_UNLOCKED;
 8003ffa:	701a      	strb	r2, [r3, #0]
    HAL_TIM_Base_MspInit(htim);
 8003ffc:	f7fe fc34 	bl	8002868 <HAL_TIM_Base_MspInit>
  htim->State = HAL_TIM_STATE_BUSY;
 8004000:	2302      	movs	r3, #2
 8004002:	702b      	strb	r3, [r5, #0]
  TIM_Base_SetConfig(htim->Instance, &htim->Init);
 8004004:	6820      	ldr	r0, [r4, #0]
 8004006:	1d21      	adds	r1, r4, #4
 8004008:	f7ff ff74 	bl	8003ef4 <TIM_Base_SetConfig>
  htim->DMABurstState = HAL_DMA_BURST_STATE_READY;
 800400c:	0022      	movs	r2, r4
 800400e:	2301      	movs	r3, #1
  return HAL_OK;
 8004010:	2000      	movs	r0, #0
  htim->DMABurstState = HAL_DMA_BURST_STATE_READY;
 8004012:	323e      	adds	r2, #62	; 0x3e
 8004014:	7013      	strb	r3, [r2, #0]
  TIM_CHANNEL_STATE_SET_ALL(htim, HAL_TIM_CHANNEL_STATE_READY);
 8004016:	343d      	adds	r4, #61	; 0x3d
 8004018:	3a04      	subs	r2, #4
 800401a:	7013      	strb	r3, [r2, #0]
 800401c:	7053      	strb	r3, [r2, #1]
 800401e:	7093      	strb	r3, [r2, #2]
 8004020:	7023      	strb	r3, [r4, #0]
  htim->State = HAL_TIM_STATE_READY;
 8004022:	702b      	strb	r3, [r5, #0]
}
 8004024:	bd70      	pop	{r4, r5, r6, pc}
	...

08004028 <HAL_TIM_OC_Start_DMA>:
{
 8004028:	b570      	push	{r4, r5, r6, lr}
 800402a:	000e      	movs	r6, r1
 800402c:	0004      	movs	r4, r0
 800402e:	0011      	movs	r1, r2
  if (TIM_CHANNEL_STATE_GET(htim, Channel) == HAL_TIM_CHANNEL_STATE_BUSY)
 8004030:	0002      	movs	r2, r0
 8004032:	2e00      	cmp	r6, #0
 8004034:	d105      	bne.n	8004042 <HAL_TIM_OC_Start_DMA+0x1a>
 8004036:	323a      	adds	r2, #58	; 0x3a
 8004038:	7812      	ldrb	r2, [r2, #0]
 800403a:	b2d0      	uxtb	r0, r2
 800403c:	2a02      	cmp	r2, #2
 800403e:	d10d      	bne.n	800405c <HAL_TIM_OC_Start_DMA+0x34>
}
 8004040:	bd70      	pop	{r4, r5, r6, pc}
  if (TIM_CHANNEL_STATE_GET(htim, Channel) == HAL_TIM_CHANNEL_STATE_BUSY)
 8004042:	2e04      	cmp	r6, #4
 8004044:	d115      	bne.n	8004072 <HAL_TIM_OC_Start_DMA+0x4a>
 8004046:	323b      	adds	r2, #59	; 0x3b
 8004048:	7815      	ldrb	r5, [r2, #0]
    return HAL_BUSY;
 800404a:	2002      	movs	r0, #2
  if (TIM_CHANNEL_STATE_GET(htim, Channel) == HAL_TIM_CHANNEL_STATE_BUSY)
 800404c:	3d02      	subs	r5, #2
 800404e:	426a      	negs	r2, r5
 8004050:	4155      	adcs	r5, r2
 8004052:	b2ed      	uxtb	r5, r5
 8004054:	2d00      	cmp	r5, #0
 8004056:	d1f3      	bne.n	8004040 <HAL_TIM_OC_Start_DMA+0x18>
  else if (TIM_CHANNEL_STATE_GET(htim, Channel) == HAL_TIM_CHANNEL_STATE_READY)
 8004058:	2e00      	cmp	r6, #0
 800405a:	d110      	bne.n	800407e <HAL_TIM_OC_Start_DMA+0x56>
 800405c:	0022      	movs	r2, r4
 800405e:	323a      	adds	r2, #58	; 0x3a
 8004060:	7812      	ldrb	r2, [r2, #0]
 8004062:	3a01      	subs	r2, #1
 8004064:	4250      	negs	r0, r2
 8004066:	4142      	adcs	r2, r0
 8004068:	b2d2      	uxtb	r2, r2
 800406a:	2a00      	cmp	r2, #0
 800406c:	d12e      	bne.n	80040cc <HAL_TIM_OC_Start_DMA+0xa4>
    return HAL_ERROR;
 800406e:	2001      	movs	r0, #1
 8004070:	e7e6      	b.n	8004040 <HAL_TIM_OC_Start_DMA+0x18>
  if (TIM_CHANNEL_STATE_GET(htim, Channel) == HAL_TIM_CHANNEL_STATE_BUSY)
 8004072:	2e08      	cmp	r6, #8
 8004074:	d101      	bne.n	800407a <HAL_TIM_OC_Start_DMA+0x52>
 8004076:	323c      	adds	r2, #60	; 0x3c
 8004078:	e7e6      	b.n	8004048 <HAL_TIM_OC_Start_DMA+0x20>
 800407a:	323d      	adds	r2, #61	; 0x3d
 800407c:	e7e4      	b.n	8004048 <HAL_TIM_OC_Start_DMA+0x20>
  else if (TIM_CHANNEL_STATE_GET(htim, Channel) == HAL_TIM_CHANNEL_STATE_READY)
 800407e:	0022      	movs	r2, r4
 8004080:	2e04      	cmp	r6, #4
 8004082:	d101      	bne.n	8004088 <HAL_TIM_OC_Start_DMA+0x60>
 8004084:	323b      	adds	r2, #59	; 0x3b
 8004086:	e7eb      	b.n	8004060 <HAL_TIM_OC_Start_DMA+0x38>
 8004088:	2e08      	cmp	r6, #8
 800408a:	d106      	bne.n	800409a <HAL_TIM_OC_Start_DMA+0x72>
 800408c:	323c      	adds	r2, #60	; 0x3c
 800408e:	7812      	ldrb	r2, [r2, #0]
 8004090:	2a01      	cmp	r2, #1
 8004092:	d1ec      	bne.n	800406e <HAL_TIM_OC_Start_DMA+0x46>
    if ((pData == NULL) && (Length > 0U))
 8004094:	2900      	cmp	r1, #0
 8004096:	d16e      	bne.n	8004176 <HAL_TIM_OC_Start_DMA+0x14e>
 8004098:	e01a      	b.n	80040d0 <HAL_TIM_OC_Start_DMA+0xa8>
  else if (TIM_CHANNEL_STATE_GET(htim, Channel) == HAL_TIM_CHANNEL_STATE_READY)
 800409a:	323d      	adds	r2, #61	; 0x3d
 800409c:	7812      	ldrb	r2, [r2, #0]
 800409e:	2a01      	cmp	r2, #1
 80040a0:	d1e5      	bne.n	800406e <HAL_TIM_OC_Start_DMA+0x46>
    if ((pData == NULL) && (Length > 0U))
 80040a2:	2900      	cmp	r1, #0
 80040a4:	d101      	bne.n	80040aa <HAL_TIM_OC_Start_DMA+0x82>
 80040a6:	2b00      	cmp	r3, #0
 80040a8:	d1e1      	bne.n	800406e <HAL_TIM_OC_Start_DMA+0x46>
      TIM_CHANNEL_STATE_SET(htim, Channel, HAL_TIM_CHANNEL_STATE_BUSY);
 80040aa:	0022      	movs	r2, r4
 80040ac:	2002      	movs	r0, #2
 80040ae:	323d      	adds	r2, #61	; 0x3d
 80040b0:	7010      	strb	r0, [r2, #0]
  switch (Channel)
 80040b2:	2e0c      	cmp	r6, #12
 80040b4:	d076      	beq.n	80041a4 <HAL_TIM_OC_Start_DMA+0x17c>
 80040b6:	3801      	subs	r0, #1
 80040b8:	2e0c      	cmp	r6, #12
 80040ba:	d8c1      	bhi.n	8004040 <HAL_TIM_OC_Start_DMA+0x18>
 80040bc:	2e08      	cmp	r6, #8
 80040be:	d05e      	beq.n	800417e <HAL_TIM_OC_Start_DMA+0x156>
 80040c0:	d8be      	bhi.n	8004040 <HAL_TIM_OC_Start_DMA+0x18>
 80040c2:	2e00      	cmp	r6, #0
 80040c4:	d00c      	beq.n	80040e0 <HAL_TIM_OC_Start_DMA+0xb8>
 80040c6:	2e04      	cmp	r6, #4
 80040c8:	d1ba      	bne.n	8004040 <HAL_TIM_OC_Start_DMA+0x18>
 80040ca:	e040      	b.n	800414e <HAL_TIM_OC_Start_DMA+0x126>
    if ((pData == NULL) && (Length > 0U))
 80040cc:	2900      	cmp	r1, #0
 80040ce:	d101      	bne.n	80040d4 <HAL_TIM_OC_Start_DMA+0xac>
 80040d0:	2b00      	cmp	r3, #0
 80040d2:	d1cc      	bne.n	800406e <HAL_TIM_OC_Start_DMA+0x46>
      TIM_CHANNEL_STATE_SET(htim, Channel, HAL_TIM_CHANNEL_STATE_BUSY);
 80040d4:	2202      	movs	r2, #2
 80040d6:	2e00      	cmp	r6, #0
 80040d8:	d134      	bne.n	8004144 <HAL_TIM_OC_Start_DMA+0x11c>
 80040da:	0020      	movs	r0, r4
 80040dc:	303a      	adds	r0, #58	; 0x3a
 80040de:	7002      	strb	r2, [r0, #0]
      htim->hdma[TIM_DMA_ID_CC1]->XferCpltCallback = TIM_DMADelayPulseCplt;
 80040e0:	6a20      	ldr	r0, [r4, #32]
 80040e2:	4a3d      	ldr	r2, [pc, #244]	; (80041d8 <HAL_TIM_OC_Start_DMA+0x1b0>)
 80040e4:	62c2      	str	r2, [r0, #44]	; 0x2c
      htim->hdma[TIM_DMA_ID_CC1]->XferHalfCpltCallback = TIM_DMADelayPulseHalfCplt;
 80040e6:	4a3d      	ldr	r2, [pc, #244]	; (80041dc <HAL_TIM_OC_Start_DMA+0x1b4>)
 80040e8:	6302      	str	r2, [r0, #48]	; 0x30
      htim->hdma[TIM_DMA_ID_CC1]->XferErrorCallback = TIM_DMAError ;
 80040ea:	4a3d      	ldr	r2, [pc, #244]	; (80041e0 <HAL_TIM_OC_Start_DMA+0x1b8>)
 80040ec:	6342      	str	r2, [r0, #52]	; 0x34
      if (HAL_DMA_Start_IT(htim->hdma[TIM_DMA_ID_CC1], (uint32_t)pData, (uint32_t)&htim->Instance->CCR1,
 80040ee:	6822      	ldr	r2, [r4, #0]
 80040f0:	3234      	adds	r2, #52	; 0x34
 80040f2:	f7fe fdef 	bl	8002cd4 <HAL_DMA_Start_IT>
 80040f6:	2800      	cmp	r0, #0
 80040f8:	d1b9      	bne.n	800406e <HAL_TIM_OC_Start_DMA+0x46>
      __HAL_TIM_ENABLE_DMA(htim, TIM_DMA_CC1);
 80040fa:	2380      	movs	r3, #128	; 0x80
 80040fc:	6822      	ldr	r2, [r4, #0]
 80040fe:	009b      	lsls	r3, r3, #2
 8004100:	68d1      	ldr	r1, [r2, #12]
    TIM_CCxChannelCmd(htim->Instance, Channel, TIM_CCx_ENABLE);
 8004102:	6824      	ldr	r4, [r4, #0]
      __HAL_TIM_ENABLE_DMA(htim, TIM_DMA_CC4);
 8004104:	430b      	orrs	r3, r1
 8004106:	60d3      	str	r3, [r2, #12]
    TIM_CCxChannelCmd(htim->Instance, Channel, TIM_CCx_ENABLE);
 8004108:	0031      	movs	r1, r6
 800410a:	2201      	movs	r2, #1
 800410c:	0020      	movs	r0, r4
 800410e:	f7ff ff59 	bl	8003fc4 <TIM_CCxChannelCmd>
    if (IS_TIM_SLAVE_INSTANCE(htim->Instance))
 8004112:	2380      	movs	r3, #128	; 0x80
 8004114:	05db      	lsls	r3, r3, #23
 8004116:	429c      	cmp	r4, r3
 8004118:	d008      	beq.n	800412c <HAL_TIM_OC_Start_DMA+0x104>
 800411a:	4b32      	ldr	r3, [pc, #200]	; (80041e4 <HAL_TIM_OC_Start_DMA+0x1bc>)
 800411c:	429c      	cmp	r4, r3
 800411e:	d005      	beq.n	800412c <HAL_TIM_OC_Start_DMA+0x104>
 8004120:	4b31      	ldr	r3, [pc, #196]	; (80041e8 <HAL_TIM_OC_Start_DMA+0x1c0>)
 8004122:	429c      	cmp	r4, r3
 8004124:	d002      	beq.n	800412c <HAL_TIM_OC_Start_DMA+0x104>
 8004126:	4b31      	ldr	r3, [pc, #196]	; (80041ec <HAL_TIM_OC_Start_DMA+0x1c4>)
 8004128:	429c      	cmp	r4, r3
 800412a:	d14e      	bne.n	80041ca <HAL_TIM_OC_Start_DMA+0x1a2>
      tmpsmcr = htim->Instance->SMCR & TIM_SMCR_SMS;
 800412c:	2207      	movs	r2, #7
 800412e:	68a3      	ldr	r3, [r4, #8]
      if (!IS_TIM_SLAVEMODE_TRIGGER_ENABLED(tmpsmcr))
 8004130:	2000      	movs	r0, #0
      tmpsmcr = htim->Instance->SMCR & TIM_SMCR_SMS;
 8004132:	4013      	ands	r3, r2
      if (!IS_TIM_SLAVEMODE_TRIGGER_ENABLED(tmpsmcr))
 8004134:	2b06      	cmp	r3, #6
 8004136:	d100      	bne.n	800413a <HAL_TIM_OC_Start_DMA+0x112>
 8004138:	e782      	b.n	8004040 <HAL_TIM_OC_Start_DMA+0x18>
        __HAL_TIM_ENABLE(htim);
 800413a:	2301      	movs	r3, #1
 800413c:	6822      	ldr	r2, [r4, #0]
 800413e:	4313      	orrs	r3, r2
 8004140:	6023      	str	r3, [r4, #0]
 8004142:	e77d      	b.n	8004040 <HAL_TIM_OC_Start_DMA+0x18>
      TIM_CHANNEL_STATE_SET(htim, Channel, HAL_TIM_CHANNEL_STATE_BUSY);
 8004144:	2e04      	cmp	r6, #4
 8004146:	d114      	bne.n	8004172 <HAL_TIM_OC_Start_DMA+0x14a>
 8004148:	0020      	movs	r0, r4
 800414a:	303b      	adds	r0, #59	; 0x3b
 800414c:	7002      	strb	r2, [r0, #0]
      htim->hdma[TIM_DMA_ID_CC2]->XferCpltCallback = TIM_DMADelayPulseCplt;
 800414e:	6a60      	ldr	r0, [r4, #36]	; 0x24
 8004150:	4a21      	ldr	r2, [pc, #132]	; (80041d8 <HAL_TIM_OC_Start_DMA+0x1b0>)
 8004152:	62c2      	str	r2, [r0, #44]	; 0x2c
      htim->hdma[TIM_DMA_ID_CC2]->XferHalfCpltCallback = TIM_DMADelayPulseHalfCplt;
 8004154:	4a21      	ldr	r2, [pc, #132]	; (80041dc <HAL_TIM_OC_Start_DMA+0x1b4>)
 8004156:	6302      	str	r2, [r0, #48]	; 0x30
      htim->hdma[TIM_DMA_ID_CC2]->XferErrorCallback = TIM_DMAError ;
 8004158:	4a21      	ldr	r2, [pc, #132]	; (80041e0 <HAL_TIM_OC_Start_DMA+0x1b8>)
 800415a:	6342      	str	r2, [r0, #52]	; 0x34
      if (HAL_DMA_Start_IT(htim->hdma[TIM_DMA_ID_CC2], (uint32_t)pData, (uint32_t)&htim->Instance->CCR2,
 800415c:	6822      	ldr	r2, [r4, #0]
 800415e:	3238      	adds	r2, #56	; 0x38
 8004160:	f7fe fdb8 	bl	8002cd4 <HAL_DMA_Start_IT>
 8004164:	2800      	cmp	r0, #0
 8004166:	d182      	bne.n	800406e <HAL_TIM_OC_Start_DMA+0x46>
      __HAL_TIM_ENABLE_DMA(htim, TIM_DMA_CC2);
 8004168:	2380      	movs	r3, #128	; 0x80
 800416a:	6822      	ldr	r2, [r4, #0]
 800416c:	00db      	lsls	r3, r3, #3
 800416e:	68d1      	ldr	r1, [r2, #12]
 8004170:	e7c7      	b.n	8004102 <HAL_TIM_OC_Start_DMA+0xda>
      TIM_CHANNEL_STATE_SET(htim, Channel, HAL_TIM_CHANNEL_STATE_BUSY);
 8004172:	2e08      	cmp	r6, #8
 8004174:	d199      	bne.n	80040aa <HAL_TIM_OC_Start_DMA+0x82>
 8004176:	0022      	movs	r2, r4
 8004178:	2002      	movs	r0, #2
 800417a:	323c      	adds	r2, #60	; 0x3c
 800417c:	7010      	strb	r0, [r2, #0]
      htim->hdma[TIM_DMA_ID_CC3]->XferCpltCallback = TIM_DMADelayPulseCplt;
 800417e:	6aa0      	ldr	r0, [r4, #40]	; 0x28
 8004180:	4a15      	ldr	r2, [pc, #84]	; (80041d8 <HAL_TIM_OC_Start_DMA+0x1b0>)
 8004182:	62c2      	str	r2, [r0, #44]	; 0x2c
      htim->hdma[TIM_DMA_ID_CC3]->XferHalfCpltCallback = TIM_DMADelayPulseHalfCplt;
 8004184:	4a15      	ldr	r2, [pc, #84]	; (80041dc <HAL_TIM_OC_Start_DMA+0x1b4>)
 8004186:	6302      	str	r2, [r0, #48]	; 0x30
      htim->hdma[TIM_DMA_ID_CC3]->XferErrorCallback = TIM_DMAError ;
 8004188:	4a15      	ldr	r2, [pc, #84]	; (80041e0 <HAL_TIM_OC_Start_DMA+0x1b8>)
 800418a:	6342      	str	r2, [r0, #52]	; 0x34
      if (HAL_DMA_Start_IT(htim->hdma[TIM_DMA_ID_CC3], (uint32_t)pData, (uint32_t)&htim->Instance->CCR3,
 800418c:	6822      	ldr	r2, [r4, #0]
 800418e:	323c      	adds	r2, #60	; 0x3c
 8004190:	f7fe fda0 	bl	8002cd4 <HAL_DMA_Start_IT>
 8004194:	2800      	cmp	r0, #0
 8004196:	d000      	beq.n	800419a <HAL_TIM_OC_Start_DMA+0x172>
 8004198:	e769      	b.n	800406e <HAL_TIM_OC_Start_DMA+0x46>
      __HAL_TIM_ENABLE_DMA(htim, TIM_DMA_CC3);
 800419a:	2380      	movs	r3, #128	; 0x80
 800419c:	6822      	ldr	r2, [r4, #0]
 800419e:	011b      	lsls	r3, r3, #4
 80041a0:	68d1      	ldr	r1, [r2, #12]
 80041a2:	e7ae      	b.n	8004102 <HAL_TIM_OC_Start_DMA+0xda>
      htim->hdma[TIM_DMA_ID_CC4]->XferCpltCallback = TIM_DMADelayPulseCplt;
 80041a4:	6ae0      	ldr	r0, [r4, #44]	; 0x2c
 80041a6:	4a0c      	ldr	r2, [pc, #48]	; (80041d8 <HAL_TIM_OC_Start_DMA+0x1b0>)
 80041a8:	62c2      	str	r2, [r0, #44]	; 0x2c
      htim->hdma[TIM_DMA_ID_CC4]->XferHalfCpltCallback = TIM_DMADelayPulseHalfCplt;
 80041aa:	4a0c      	ldr	r2, [pc, #48]	; (80041dc <HAL_TIM_OC_Start_DMA+0x1b4>)
 80041ac:	6302      	str	r2, [r0, #48]	; 0x30
      htim->hdma[TIM_DMA_ID_CC4]->XferErrorCallback = TIM_DMAError ;
 80041ae:	4a0c      	ldr	r2, [pc, #48]	; (80041e0 <HAL_TIM_OC_Start_DMA+0x1b8>)
 80041b0:	6342      	str	r2, [r0, #52]	; 0x34
      if (HAL_DMA_Start_IT(htim->hdma[TIM_DMA_ID_CC4], (uint32_t)pData, (uint32_t)&htim->Instance->CCR4,
 80041b2:	6822      	ldr	r2, [r4, #0]
 80041b4:	3240      	adds	r2, #64	; 0x40
 80041b6:	f7fe fd8d 	bl	8002cd4 <HAL_DMA_Start_IT>
 80041ba:	2800      	cmp	r0, #0
 80041bc:	d000      	beq.n	80041c0 <HAL_TIM_OC_Start_DMA+0x198>
 80041be:	e756      	b.n	800406e <HAL_TIM_OC_Start_DMA+0x46>
      __HAL_TIM_ENABLE_DMA(htim, TIM_DMA_CC4);
 80041c0:	2380      	movs	r3, #128	; 0x80
 80041c2:	6822      	ldr	r2, [r4, #0]
 80041c4:	015b      	lsls	r3, r3, #5
 80041c6:	68d1      	ldr	r1, [r2, #12]
 80041c8:	e79b      	b.n	8004102 <HAL_TIM_OC_Start_DMA+0xda>
      __HAL_TIM_ENABLE(htim);
 80041ca:	2301      	movs	r3, #1
 80041cc:	6822      	ldr	r2, [r4, #0]
 80041ce:	2000      	movs	r0, #0
 80041d0:	4313      	orrs	r3, r2
 80041d2:	6023      	str	r3, [r4, #0]
 80041d4:	e734      	b.n	8004040 <HAL_TIM_OC_Start_DMA+0x18>
 80041d6:	46c0      	nop			; (mov r8, r8)
 80041d8:	080044b3 	.word	0x080044b3
 80041dc:	08004525 	.word	0x08004525
 80041e0:	0800455f 	.word	0x0800455f
 80041e4:	40000400 	.word	0x40000400
 80041e8:	40010800 	.word	0x40010800
 80041ec:	40011400 	.word	0x40011400

080041f0 <HAL_TIM_PWM_MspInit>:
 80041f0:	4770      	bx	lr

080041f2 <HAL_TIM_PWM_Init>:
{
 80041f2:	b570      	push	{r4, r5, r6, lr}
 80041f4:	0004      	movs	r4, r0
    return HAL_ERROR;
 80041f6:	2001      	movs	r0, #1
  if (htim == NULL)
 80041f8:	2c00      	cmp	r4, #0
 80041fa:	d01d      	beq.n	8004238 <HAL_TIM_PWM_Init+0x46>
  if (htim->State == HAL_TIM_STATE_RESET)
 80041fc:	0025      	movs	r5, r4
 80041fe:	3539      	adds	r5, #57	; 0x39
 8004200:	782b      	ldrb	r3, [r5, #0]
 8004202:	b2da      	uxtb	r2, r3
 8004204:	2b00      	cmp	r3, #0
 8004206:	d105      	bne.n	8004214 <HAL_TIM_PWM_Init+0x22>
    htim->Lock = HAL_UNLOCKED;
 8004208:	0023      	movs	r3, r4
 800420a:	3338      	adds	r3, #56	; 0x38
    HAL_TIM_PWM_MspInit(htim);
 800420c:	0020      	movs	r0, r4
    htim->Lock = HAL_UNLOCKED;
 800420e:	701a      	strb	r2, [r3, #0]
    HAL_TIM_PWM_MspInit(htim);
 8004210:	f7ff ffee 	bl	80041f0 <HAL_TIM_PWM_MspInit>
  htim->State = HAL_TIM_STATE_BUSY;
 8004214:	2302      	movs	r3, #2
 8004216:	702b      	strb	r3, [r5, #0]
  TIM_Base_SetConfig(htim->Instance, &htim->Init);
 8004218:	6820      	ldr	r0, [r4, #0]
 800421a:	1d21      	adds	r1, r4, #4
 800421c:	f7ff fe6a 	bl	8003ef4 <TIM_Base_SetConfig>
  htim->DMABurstState = HAL_DMA_BURST_STATE_READY;
 8004220:	0022      	movs	r2, r4
 8004222:	2301      	movs	r3, #1
  return HAL_OK;
 8004224:	2000      	movs	r0, #0
  htim->DMABurstState = HAL_DMA_BURST_STATE_READY;
 8004226:	323e      	adds	r2, #62	; 0x3e
 8004228:	7013      	strb	r3, [r2, #0]
  TIM_CHANNEL_STATE_SET_ALL(htim, HAL_TIM_CHANNEL_STATE_READY);
 800422a:	343d      	adds	r4, #61	; 0x3d
 800422c:	3a04      	subs	r2, #4
 800422e:	7013      	strb	r3, [r2, #0]
 8004230:	7053      	strb	r3, [r2, #1]
 8004232:	7093      	strb	r3, [r2, #2]
 8004234:	7023      	strb	r3, [r4, #0]
  htim->State = HAL_TIM_STATE_READY;
 8004236:	702b      	strb	r3, [r5, #0]
}
 8004238:	bd70      	pop	{r4, r5, r6, pc}

0800423a <HAL_TIM_PWM_Start_DMA>:
 800423a:	b510      	push	{r4, lr}
 800423c:	f7ff fef4 	bl	8004028 <HAL_TIM_OC_Start_DMA>
 8004240:	bd10      	pop	{r4, pc}
	...

08004244 <HAL_TIM_PWM_ConfigChannel>:
{
 8004244:	b5f8      	push	{r3, r4, r5, r6, r7, lr}
  __HAL_LOCK(htim);
 8004246:	0005      	movs	r5, r0
 8004248:	3538      	adds	r5, #56	; 0x38
{
 800424a:	0016      	movs	r6, r2
  __HAL_LOCK(htim);
 800424c:	782a      	ldrb	r2, [r5, #0]
{
 800424e:	0003      	movs	r3, r0
 8004250:	000c      	movs	r4, r1
  __HAL_LOCK(htim);
 8004252:	2002      	movs	r0, #2
 8004254:	2a01      	cmp	r2, #1
 8004256:	d00a      	beq.n	800426e <HAL_TIM_PWM_ConfigChannel+0x2a>
 8004258:	3801      	subs	r0, #1
 800425a:	7028      	strb	r0, [r5, #0]
  switch (Channel)
 800425c:	2e08      	cmp	r6, #8
 800425e:	d052      	beq.n	8004306 <HAL_TIM_PWM_ConfigChannel+0xc2>
 8004260:	d806      	bhi.n	8004270 <HAL_TIM_PWM_ConfigChannel+0x2c>
 8004262:	2e00      	cmp	r6, #0
 8004264:	d02a      	beq.n	80042bc <HAL_TIM_PWM_ConfigChannel+0x78>
 8004266:	2e04      	cmp	r6, #4
 8004268:	d03a      	beq.n	80042e0 <HAL_TIM_PWM_ConfigChannel+0x9c>
  __HAL_UNLOCK(htim);
 800426a:	2300      	movs	r3, #0
 800426c:	702b      	strb	r3, [r5, #0]
}
 800426e:	bdf8      	pop	{r3, r4, r5, r6, r7, pc}
  switch (Channel)
 8004270:	2e0c      	cmp	r6, #12
 8004272:	d1fa      	bne.n	800426a <HAL_TIM_PWM_ConfigChannel+0x26>
      TIM_OC4_SetConfig(htim->Instance, sConfig);
 8004274:	681b      	ldr	r3, [r3, #0]
  TIMx->CCER &= ~TIM_CCER_CC4E;
 8004276:	4935      	ldr	r1, [pc, #212]	; (800434c <HAL_TIM_PWM_ConfigChannel+0x108>)
 8004278:	6a1a      	ldr	r2, [r3, #32]
 800427a:	400a      	ands	r2, r1
 800427c:	621a      	str	r2, [r3, #32]
  tmpccer = TIMx->CCER;
 800427e:	6a18      	ldr	r0, [r3, #32]
  tmpccmrx &= ~TIM_CCMR2_CC4S;
 8004280:	4933      	ldr	r1, [pc, #204]	; (8004350 <HAL_TIM_PWM_ConfigChannel+0x10c>)
  tmpcr2 =  TIMx->CR2;
 8004282:	685e      	ldr	r6, [r3, #4]
  tmpccmrx = TIMx->CCMR2;
 8004284:	69da      	ldr	r2, [r3, #28]
  tmpccmrx &= ~TIM_CCMR2_CC4S;
 8004286:	400a      	ands	r2, r1
  tmpccmrx |= (OC_Config->OCMode << 8U);
 8004288:	6821      	ldr	r1, [r4, #0]
 800428a:	0209      	lsls	r1, r1, #8
 800428c:	4311      	orrs	r1, r2
  tmpccer &= ~TIM_CCER_CC4P;
 800428e:	4a31      	ldr	r2, [pc, #196]	; (8004354 <HAL_TIM_PWM_ConfigChannel+0x110>)
 8004290:	4010      	ands	r0, r2
  tmpccer |= (OC_Config->OCPolarity << 12U);
 8004292:	68a2      	ldr	r2, [r4, #8]
  TIMx->CR2 = tmpcr2;
 8004294:	605e      	str	r6, [r3, #4]
  tmpccer |= (OC_Config->OCPolarity << 12U);
 8004296:	0312      	lsls	r2, r2, #12
  TIMx->CCMR2 = tmpccmrx;
 8004298:	61d9      	str	r1, [r3, #28]
  TIMx->CCR4 = OC_Config->Pulse;
 800429a:	6861      	ldr	r1, [r4, #4]
  tmpccer |= (OC_Config->OCPolarity << 12U);
 800429c:	4302      	orrs	r2, r0
  TIMx->CCR4 = OC_Config->Pulse;
 800429e:	6419      	str	r1, [r3, #64]	; 0x40
  TIMx->CCER = tmpccer;
 80042a0:	621a      	str	r2, [r3, #32]
      htim->Instance->CCMR2 |= TIM_CCMR2_OC4PE;
 80042a2:	2280      	movs	r2, #128	; 0x80
 80042a4:	69d9      	ldr	r1, [r3, #28]
 80042a6:	0112      	lsls	r2, r2, #4
 80042a8:	430a      	orrs	r2, r1
 80042aa:	61da      	str	r2, [r3, #28]
      htim->Instance->CCMR2 &= ~TIM_CCMR2_OC4FE;
 80042ac:	69da      	ldr	r2, [r3, #28]
 80042ae:	492a      	ldr	r1, [pc, #168]	; (8004358 <HAL_TIM_PWM_ConfigChannel+0x114>)
 80042b0:	400a      	ands	r2, r1
 80042b2:	61da      	str	r2, [r3, #28]
      htim->Instance->CCMR2 |= sConfig->OCFastMode << 8U;
 80042b4:	68e2      	ldr	r2, [r4, #12]
 80042b6:	69d9      	ldr	r1, [r3, #28]
 80042b8:	0212      	lsls	r2, r2, #8
 80042ba:	e043      	b.n	8004344 <HAL_TIM_PWM_ConfigChannel+0x100>
      TIM_OC1_SetConfig(htim->Instance, sConfig);
 80042bc:	681f      	ldr	r7, [r3, #0]
 80042be:	0038      	movs	r0, r7
 80042c0:	f7ff fe50 	bl	8003f64 <TIM_OC1_SetConfig>
      htim->Instance->CCMR1 |= TIM_CCMR1_OC1PE;
 80042c4:	2308      	movs	r3, #8
 80042c6:	69ba      	ldr	r2, [r7, #24]
 80042c8:	4313      	orrs	r3, r2
      htim->Instance->CCMR1 &= ~TIM_CCMR1_OC1FE;
 80042ca:	2204      	movs	r2, #4
      htim->Instance->CCMR1 |= TIM_CCMR1_OC1PE;
 80042cc:	61bb      	str	r3, [r7, #24]
      htim->Instance->CCMR1 &= ~TIM_CCMR1_OC1FE;
 80042ce:	69bb      	ldr	r3, [r7, #24]
 80042d0:	4393      	bics	r3, r2
 80042d2:	61bb      	str	r3, [r7, #24]
      htim->Instance->CCMR1 |= sConfig->OCFastMode;
 80042d4:	69bb      	ldr	r3, [r7, #24]
 80042d6:	68e2      	ldr	r2, [r4, #12]
 80042d8:	4313      	orrs	r3, r2
 80042da:	61bb      	str	r3, [r7, #24]
  HAL_StatusTypeDef status = HAL_OK;
 80042dc:	2000      	movs	r0, #0
      break;
 80042de:	e7c4      	b.n	800426a <HAL_TIM_PWM_ConfigChannel+0x26>
      TIM_OC2_SetConfig(htim->Instance, sConfig);
 80042e0:	681e      	ldr	r6, [r3, #0]
 80042e2:	0030      	movs	r0, r6
 80042e4:	f7ff fe54 	bl	8003f90 <TIM_OC2_SetConfig>
      htim->Instance->CCMR1 |= TIM_CCMR1_OC2PE;
 80042e8:	2380      	movs	r3, #128	; 0x80
 80042ea:	69b2      	ldr	r2, [r6, #24]
 80042ec:	011b      	lsls	r3, r3, #4
 80042ee:	4313      	orrs	r3, r2
 80042f0:	61b3      	str	r3, [r6, #24]
      htim->Instance->CCMR1 &= ~TIM_CCMR1_OC2FE;
 80042f2:	69b3      	ldr	r3, [r6, #24]
 80042f4:	4a18      	ldr	r2, [pc, #96]	; (8004358 <HAL_TIM_PWM_ConfigChannel+0x114>)
 80042f6:	4013      	ands	r3, r2
 80042f8:	61b3      	str	r3, [r6, #24]
      htim->Instance->CCMR1 |= sConfig->OCFastMode << 8U;
 80042fa:	68e3      	ldr	r3, [r4, #12]
 80042fc:	69b2      	ldr	r2, [r6, #24]
 80042fe:	021b      	lsls	r3, r3, #8
 8004300:	4313      	orrs	r3, r2
 8004302:	61b3      	str	r3, [r6, #24]
      break;
 8004304:	e7ea      	b.n	80042dc <HAL_TIM_PWM_ConfigChannel+0x98>
      TIM_OC3_SetConfig(htim->Instance, sConfig);
 8004306:	681b      	ldr	r3, [r3, #0]
  TIMx->CCER &= ~TIM_CCER_CC3E;
 8004308:	4914      	ldr	r1, [pc, #80]	; (800435c <HAL_TIM_PWM_ConfigChannel+0x118>)
 800430a:	6a1a      	ldr	r2, [r3, #32]
 800430c:	400a      	ands	r2, r1
 800430e:	621a      	str	r2, [r3, #32]
  tmpccmrx &= ~TIM_CCMR2_CC3S;
 8004310:	2273      	movs	r2, #115	; 0x73
  tmpccer = TIMx->CCER;
 8004312:	6a1f      	ldr	r7, [r3, #32]
  tmpcr2 =  TIMx->CR2;
 8004314:	6858      	ldr	r0, [r3, #4]
  tmpccmrx = TIMx->CCMR2;
 8004316:	69d9      	ldr	r1, [r3, #28]
  tmpccmrx &= ~TIM_CCMR2_CC3S;
 8004318:	4391      	bics	r1, r2
  tmpccmrx |= OC_Config->OCMode;
 800431a:	6822      	ldr	r2, [r4, #0]
 800431c:	4311      	orrs	r1, r2
  tmpccer &= ~TIM_CCER_CC3P;
 800431e:	4a10      	ldr	r2, [pc, #64]	; (8004360 <HAL_TIM_PWM_ConfigChannel+0x11c>)
 8004320:	4017      	ands	r7, r2
  tmpccer |= (OC_Config->OCPolarity << 8U);
 8004322:	68a2      	ldr	r2, [r4, #8]
  TIMx->CR2 = tmpcr2;
 8004324:	6058      	str	r0, [r3, #4]
  TIMx->CCMR2 = tmpccmrx;
 8004326:	61d9      	str	r1, [r3, #28]
  TIMx->CCR3 = OC_Config->Pulse;
 8004328:	6861      	ldr	r1, [r4, #4]
  tmpccer |= (OC_Config->OCPolarity << 8U);
 800432a:	0212      	lsls	r2, r2, #8
  TIMx->CCR3 = OC_Config->Pulse;
 800432c:	63d9      	str	r1, [r3, #60]	; 0x3c
      htim->Instance->CCMR2 &= ~TIM_CCMR2_OC3FE;
 800432e:	2104      	movs	r1, #4
  tmpccer |= (OC_Config->OCPolarity << 8U);
 8004330:	433a      	orrs	r2, r7
  TIMx->CCER = tmpccer;
 8004332:	621a      	str	r2, [r3, #32]
      htim->Instance->CCMR2 |= TIM_CCMR2_OC3PE;
 8004334:	69da      	ldr	r2, [r3, #28]
 8004336:	4316      	orrs	r6, r2
 8004338:	61de      	str	r6, [r3, #28]
      htim->Instance->CCMR2 &= ~TIM_CCMR2_OC3FE;
 800433a:	69da      	ldr	r2, [r3, #28]
 800433c:	438a      	bics	r2, r1
 800433e:	61da      	str	r2, [r3, #28]
      htim->Instance->CCMR2 |= sConfig->OCFastMode;
 8004340:	69da      	ldr	r2, [r3, #28]
 8004342:	68e1      	ldr	r1, [r4, #12]
      htim->Instance->CCMR2 |= sConfig->OCFastMode << 8U;
 8004344:	430a      	orrs	r2, r1
 8004346:	61da      	str	r2, [r3, #28]
 8004348:	e7c8      	b.n	80042dc <HAL_TIM_PWM_ConfigChannel+0x98>
 800434a:	46c0      	nop			; (mov r8, r8)
 800434c:	ffffefff 	.word	0xffffefff
 8004350:	ffff8cff 	.word	0xffff8cff
 8004354:	ffffdfff 	.word	0xffffdfff
 8004358:	fffffbff 	.word	0xfffffbff
 800435c:	fffffeff 	.word	0xfffffeff
 8004360:	fffffdff 	.word	0xfffffdff

08004364 <HAL_TIM_ConfigClockSource>:
{
 8004364:	b5f0      	push	{r4, r5, r6, r7, lr}
  __HAL_LOCK(htim);
 8004366:	0005      	movs	r5, r0
 8004368:	2202      	movs	r2, #2
 800436a:	3538      	adds	r5, #56	; 0x38
 800436c:	782c      	ldrb	r4, [r5, #0]
{
 800436e:	0003      	movs	r3, r0
  __HAL_LOCK(htim);
 8004370:	0010      	movs	r0, r2
 8004372:	2c01      	cmp	r4, #1
 8004374:	d01d      	beq.n	80043b2 <HAL_TIM_ConfigClockSource+0x4e>
  htim->State = HAL_TIM_STATE_BUSY;
 8004376:	001e      	movs	r6, r3
  __HAL_LOCK(htim);
 8004378:	2401      	movs	r4, #1
  htim->State = HAL_TIM_STATE_BUSY;
 800437a:	3639      	adds	r6, #57	; 0x39
  __HAL_LOCK(htim);
 800437c:	702c      	strb	r4, [r5, #0]
  htim->State = HAL_TIM_STATE_BUSY;
 800437e:	7032      	strb	r2, [r6, #0]
  tmpsmcr = htim->Instance->SMCR;
 8004380:	681b      	ldr	r3, [r3, #0]
  tmpsmcr &= ~(TIM_SMCR_ETF | TIM_SMCR_ETPS | TIM_SMCR_ECE | TIM_SMCR_ETP);
 8004382:	4848      	ldr	r0, [pc, #288]	; (80044a4 <HAL_TIM_ConfigClockSource+0x140>)
  tmpsmcr = htim->Instance->SMCR;
 8004384:	689a      	ldr	r2, [r3, #8]
  tmpsmcr &= ~(TIM_SMCR_ETF | TIM_SMCR_ETPS | TIM_SMCR_ECE | TIM_SMCR_ETP);
 8004386:	4002      	ands	r2, r0
  htim->Instance->SMCR = tmpsmcr;
 8004388:	609a      	str	r2, [r3, #8]
  switch (sClockSourceConfig->ClockSource)
 800438a:	680a      	ldr	r2, [r1, #0]
 800438c:	2a60      	cmp	r2, #96	; 0x60
 800438e:	d05c      	beq.n	800444a <HAL_TIM_ConfigClockSource+0xe6>
 8004390:	d82f      	bhi.n	80043f2 <HAL_TIM_ConfigClockSource+0x8e>
 8004392:	2a40      	cmp	r2, #64	; 0x40
 8004394:	d100      	bne.n	8004398 <HAL_TIM_ConfigClockSource+0x34>
 8004396:	e06f      	b.n	8004478 <HAL_TIM_ConfigClockSource+0x114>
 8004398:	d814      	bhi.n	80043c4 <HAL_TIM_ConfigClockSource+0x60>
 800439a:	2a20      	cmp	r2, #32
 800439c:	d00c      	beq.n	80043b8 <HAL_TIM_ConfigClockSource+0x54>
 800439e:	d809      	bhi.n	80043b4 <HAL_TIM_ConfigClockSource+0x50>
 80043a0:	2110      	movs	r1, #16
 80043a2:	0010      	movs	r0, r2
 80043a4:	4388      	bics	r0, r1
 80043a6:	d007      	beq.n	80043b8 <HAL_TIM_ConfigClockSource+0x54>
 80043a8:	0020      	movs	r0, r4
  htim->State = HAL_TIM_STATE_READY;
 80043aa:	2301      	movs	r3, #1
 80043ac:	7033      	strb	r3, [r6, #0]
  __HAL_UNLOCK(htim);
 80043ae:	2300      	movs	r3, #0
 80043b0:	702b      	strb	r3, [r5, #0]
}
 80043b2:	bdf0      	pop	{r4, r5, r6, r7, pc}
  switch (sClockSourceConfig->ClockSource)
 80043b4:	2a30      	cmp	r2, #48	; 0x30
 80043b6:	d1f7      	bne.n	80043a8 <HAL_TIM_ConfigClockSource+0x44>
  tmpsmcr &= ~TIM_SMCR_TS;
 80043b8:	2070      	movs	r0, #112	; 0x70
  tmpsmcr = TIMx->SMCR;
 80043ba:	6899      	ldr	r1, [r3, #8]
  tmpsmcr &= ~TIM_SMCR_TS;
 80043bc:	4381      	bics	r1, r0
  tmpsmcr |= (InputTriggerSource | TIM_SLAVEMODE_EXTERNAL1);
 80043be:	430a      	orrs	r2, r1
 80043c0:	2107      	movs	r1, #7
 80043c2:	e02f      	b.n	8004424 <HAL_TIM_ConfigClockSource+0xc0>
  switch (sClockSourceConfig->ClockSource)
 80043c4:	2a50      	cmp	r2, #80	; 0x50
 80043c6:	d1ef      	bne.n	80043a8 <HAL_TIM_ConfigClockSource+0x44>
      TIM_TI1_ConfigInputStage(htim->Instance,
 80043c8:	6848      	ldr	r0, [r1, #4]
 80043ca:	68ca      	ldr	r2, [r1, #12]
  tmpccer = TIMx->CCER;
 80043cc:	6a19      	ldr	r1, [r3, #32]
  TIMx->CCER &= ~TIM_CCER_CC1E;
 80043ce:	6a1f      	ldr	r7, [r3, #32]
  tmpccmr1 |= (TIM_ICFilter << 4U);
 80043d0:	0112      	lsls	r2, r2, #4
  TIMx->CCER &= ~TIM_CCER_CC1E;
 80043d2:	43a7      	bics	r7, r4
 80043d4:	621f      	str	r7, [r3, #32]
  tmpccmr1 &= ~TIM_CCMR1_IC1F;
 80043d6:	27f0      	movs	r7, #240	; 0xf0
  tmpccmr1 = TIMx->CCMR1;
 80043d8:	699c      	ldr	r4, [r3, #24]
  tmpccmr1 &= ~TIM_CCMR1_IC1F;
 80043da:	43bc      	bics	r4, r7
  tmpccmr1 |= (TIM_ICFilter << 4U);
 80043dc:	4322      	orrs	r2, r4
  tmpccer &= ~(TIM_CCER_CC1P | TIM_CCER_CC1NP);
 80043de:	240a      	movs	r4, #10
  TIMx->CCMR1 = tmpccmr1;
 80043e0:	619a      	str	r2, [r3, #24]
  tmpsmcr &= ~TIM_SMCR_TS;
 80043e2:	2270      	movs	r2, #112	; 0x70
  tmpccer &= ~(TIM_CCER_CC1P | TIM_CCER_CC1NP);
 80043e4:	43a1      	bics	r1, r4
  tmpccer |= TIM_ICPolarity;
 80043e6:	4301      	orrs	r1, r0
  TIMx->CCER = tmpccer;
 80043e8:	6219      	str	r1, [r3, #32]
  tmpsmcr = TIMx->SMCR;
 80043ea:	6899      	ldr	r1, [r3, #8]
  tmpsmcr &= ~TIM_SMCR_TS;
 80043ec:	4391      	bics	r1, r2
  tmpsmcr |= (InputTriggerSource | TIM_SLAVEMODE_EXTERNAL1);
 80043ee:	3a19      	subs	r2, #25
 80043f0:	e018      	b.n	8004424 <HAL_TIM_ConfigClockSource+0xc0>
  switch (sClockSourceConfig->ClockSource)
 80043f2:	2780      	movs	r7, #128	; 0x80
  HAL_StatusTypeDef status = HAL_OK;
 80043f4:	2000      	movs	r0, #0
  switch (sClockSourceConfig->ClockSource)
 80043f6:	017f      	lsls	r7, r7, #5
 80043f8:	42ba      	cmp	r2, r7
 80043fa:	d0d6      	beq.n	80043aa <HAL_TIM_ConfigClockSource+0x46>
 80043fc:	2080      	movs	r0, #128	; 0x80
 80043fe:	0180      	lsls	r0, r0, #6
 8004400:	4282      	cmp	r2, r0
 8004402:	d013      	beq.n	800442c <HAL_TIM_ConfigClockSource+0xc8>
 8004404:	0020      	movs	r0, r4
 8004406:	2a70      	cmp	r2, #112	; 0x70
 8004408:	d1cf      	bne.n	80043aa <HAL_TIM_ConfigClockSource+0x46>
  tmpsmcr = TIMx->SMCR;
 800440a:	6898      	ldr	r0, [r3, #8]
  tmpsmcr &= ~(TIM_SMCR_ETF | TIM_SMCR_ETPS | TIM_SMCR_ECE | TIM_SMCR_ETP);
 800440c:	4a26      	ldr	r2, [pc, #152]	; (80044a8 <HAL_TIM_ConfigClockSource+0x144>)
  tmpsmcr |= (uint32_t)(TIM_ExtTRGPrescaler | (TIM_ExtTRGPolarity | (ExtTRGFilter << 8U)));
 800440e:	684c      	ldr	r4, [r1, #4]
  tmpsmcr &= ~(TIM_SMCR_ETF | TIM_SMCR_ETPS | TIM_SMCR_ECE | TIM_SMCR_ETP);
 8004410:	4010      	ands	r0, r2
  tmpsmcr |= (uint32_t)(TIM_ExtTRGPrescaler | (TIM_ExtTRGPolarity | (ExtTRGFilter << 8U)));
 8004412:	688a      	ldr	r2, [r1, #8]
 8004414:	68c9      	ldr	r1, [r1, #12]
 8004416:	4322      	orrs	r2, r4
 8004418:	0209      	lsls	r1, r1, #8
 800441a:	430a      	orrs	r2, r1
 800441c:	4302      	orrs	r2, r0
  TIMx->SMCR = tmpsmcr;
 800441e:	609a      	str	r2, [r3, #8]
      tmpsmcr |= (TIM_SLAVEMODE_EXTERNAL1 | TIM_CLOCKSOURCE_ETRMODE1);
 8004420:	2277      	movs	r2, #119	; 0x77
      tmpsmcr = htim->Instance->SMCR;
 8004422:	6899      	ldr	r1, [r3, #8]
  tmpsmcr |= (InputTriggerSource | TIM_SLAVEMODE_EXTERNAL1);
 8004424:	430a      	orrs	r2, r1
  HAL_StatusTypeDef status = HAL_OK;
 8004426:	2000      	movs	r0, #0
  TIMx->SMCR = tmpsmcr;
 8004428:	609a      	str	r2, [r3, #8]
}
 800442a:	e7be      	b.n	80043aa <HAL_TIM_ConfigClockSource+0x46>
  tmpsmcr = TIMx->SMCR;
 800442c:	6898      	ldr	r0, [r3, #8]
  tmpsmcr &= ~(TIM_SMCR_ETF | TIM_SMCR_ETPS | TIM_SMCR_ECE | TIM_SMCR_ETP);
 800442e:	4a1e      	ldr	r2, [pc, #120]	; (80044a8 <HAL_TIM_ConfigClockSource+0x144>)
  tmpsmcr |= (uint32_t)(TIM_ExtTRGPrescaler | (TIM_ExtTRGPolarity | (ExtTRGFilter << 8U)));
 8004430:	684c      	ldr	r4, [r1, #4]
  tmpsmcr &= ~(TIM_SMCR_ETF | TIM_SMCR_ETPS | TIM_SMCR_ECE | TIM_SMCR_ETP);
 8004432:	4010      	ands	r0, r2
  tmpsmcr |= (uint32_t)(TIM_ExtTRGPrescaler | (TIM_ExtTRGPolarity | (ExtTRGFilter << 8U)));
 8004434:	688a      	ldr	r2, [r1, #8]
 8004436:	68c9      	ldr	r1, [r1, #12]
 8004438:	4322      	orrs	r2, r4
 800443a:	0209      	lsls	r1, r1, #8
 800443c:	430a      	orrs	r2, r1
 800443e:	4302      	orrs	r2, r0
  TIMx->SMCR = tmpsmcr;
 8004440:	609a      	str	r2, [r3, #8]
      htim->Instance->SMCR |= TIM_SMCR_ECE;
 8004442:	2280      	movs	r2, #128	; 0x80
 8004444:	6899      	ldr	r1, [r3, #8]
 8004446:	01d2      	lsls	r2, r2, #7
 8004448:	e7ec      	b.n	8004424 <HAL_TIM_ConfigClockSource+0xc0>
  TIMx->CCER &= ~TIM_CCER_CC2E;
 800444a:	2410      	movs	r4, #16
 800444c:	6a18      	ldr	r0, [r3, #32]
      TIM_TI2_ConfigInputStage(htim->Instance,
 800444e:	684a      	ldr	r2, [r1, #4]
  TIMx->CCER &= ~TIM_CCER_CC2E;
 8004450:	43a0      	bics	r0, r4
      TIM_TI2_ConfigInputStage(htim->Instance,
 8004452:	68c9      	ldr	r1, [r1, #12]
  TIMx->CCER &= ~TIM_CCER_CC2E;
 8004454:	6218      	str	r0, [r3, #32]
  tmpccmr1 = TIMx->CCMR1;
 8004456:	699c      	ldr	r4, [r3, #24]
  tmpccmr1 &= ~TIM_CCMR1_IC2F;
 8004458:	4f14      	ldr	r7, [pc, #80]	; (80044ac <HAL_TIM_ConfigClockSource+0x148>)
  tmpccmr1 |= (TIM_ICFilter << 12U);
 800445a:	0309      	lsls	r1, r1, #12
  tmpccmr1 &= ~TIM_CCMR1_IC2F;
 800445c:	403c      	ands	r4, r7
  tmpccmr1 |= (TIM_ICFilter << 12U);
 800445e:	4321      	orrs	r1, r4
  tmpccer &= ~(TIM_CCER_CC2P | TIM_CCER_CC2NP);
 8004460:	24a0      	movs	r4, #160	; 0xa0
  tmpccer = TIMx->CCER;
 8004462:	6a18      	ldr	r0, [r3, #32]
  tmpccer |= (TIM_ICPolarity << 4U);
 8004464:	0112      	lsls	r2, r2, #4
  tmpccer &= ~(TIM_CCER_CC2P | TIM_CCER_CC2NP);
 8004466:	43a0      	bics	r0, r4
  tmpccer |= (TIM_ICPolarity << 4U);
 8004468:	4302      	orrs	r2, r0
  TIMx->CCMR1 = tmpccmr1 ;
 800446a:	6199      	str	r1, [r3, #24]
  TIMx->CCER = tmpccer;
 800446c:	621a      	str	r2, [r3, #32]
  tmpsmcr &= ~TIM_SMCR_TS;
 800446e:	2270      	movs	r2, #112	; 0x70
  tmpsmcr = TIMx->SMCR;
 8004470:	6899      	ldr	r1, [r3, #8]
  tmpsmcr &= ~TIM_SMCR_TS;
 8004472:	4391      	bics	r1, r2
  tmpsmcr |= (InputTriggerSource | TIM_SLAVEMODE_EXTERNAL1);
 8004474:	3a09      	subs	r2, #9
 8004476:	e7d5      	b.n	8004424 <HAL_TIM_ConfigClockSource+0xc0>
      TIM_TI1_ConfigInputStage(htim->Instance,
 8004478:	6848      	ldr	r0, [r1, #4]
 800447a:	68ca      	ldr	r2, [r1, #12]
  tmpccer = TIMx->CCER;
 800447c:	6a19      	ldr	r1, [r3, #32]
  TIMx->CCER &= ~TIM_CCER_CC1E;
 800447e:	6a1f      	ldr	r7, [r3, #32]
  tmpccmr1 |= (TIM_ICFilter << 4U);
 8004480:	0112      	lsls	r2, r2, #4
  TIMx->CCER &= ~TIM_CCER_CC1E;
 8004482:	43a7      	bics	r7, r4
 8004484:	621f      	str	r7, [r3, #32]
  tmpccmr1 &= ~TIM_CCMR1_IC1F;
 8004486:	27f0      	movs	r7, #240	; 0xf0
  tmpccmr1 = TIMx->CCMR1;
 8004488:	699c      	ldr	r4, [r3, #24]
  tmpccmr1 &= ~TIM_CCMR1_IC1F;
 800448a:	43bc      	bics	r4, r7
  tmpccmr1 |= (TIM_ICFilter << 4U);
 800448c:	4322      	orrs	r2, r4
  tmpccer &= ~(TIM_CCER_CC1P | TIM_CCER_CC1NP);
 800448e:	240a      	movs	r4, #10
  TIMx->CCMR1 = tmpccmr1;
 8004490:	619a      	str	r2, [r3, #24]
  tmpsmcr &= ~TIM_SMCR_TS;
 8004492:	2270      	movs	r2, #112	; 0x70
  tmpccer &= ~(TIM_CCER_CC1P | TIM_CCER_CC1NP);
 8004494:	43a1      	bics	r1, r4
  tmpccer |= TIM_ICPolarity;
 8004496:	4301      	orrs	r1, r0
  TIMx->CCER = tmpccer;
 8004498:	6219      	str	r1, [r3, #32]
  tmpsmcr = TIMx->SMCR;
 800449a:	6899      	ldr	r1, [r3, #8]
  tmpsmcr &= ~TIM_SMCR_TS;
 800449c:	4391      	bics	r1, r2
  tmpsmcr |= (InputTriggerSource | TIM_SLAVEMODE_EXTERNAL1);
 800449e:	3a29      	subs	r2, #41	; 0x29
 80044a0:	e7c0      	b.n	8004424 <HAL_TIM_ConfigClockSource+0xc0>
 80044a2:	46c0      	nop			; (mov r8, r8)
 80044a4:	ffff0088 	.word	0xffff0088
 80044a8:	ffff00ff 	.word	0xffff00ff
 80044ac:	ffff0fff 	.word	0xffff0fff

080044b0 <HAL_TIM_PWM_PulseFinishedCallback>:
 80044b0:	4770      	bx	lr

080044b2 <TIM_DMADelayPulseCplt>:
{
 80044b2:	b510      	push	{r4, lr}
  TIM_HandleTypeDef *htim = (TIM_HandleTypeDef *)((DMA_HandleTypeDef *)hdma)->Parent;
 80044b4:	6a84      	ldr	r4, [r0, #40]	; 0x28
  if (hdma == htim->hdma[TIM_DMA_ID_CC1])
 80044b6:	6a22      	ldr	r2, [r4, #32]
 80044b8:	4282      	cmp	r2, r0
 80044ba:	d10d      	bne.n	80044d8 <TIM_DMADelayPulseCplt+0x26>
    htim->Channel = HAL_TIM_ACTIVE_CHANNEL_1;
 80044bc:	2301      	movs	r3, #1
 80044be:	7623      	strb	r3, [r4, #24]
    if (hdma->Init.Mode == DMA_NORMAL)
 80044c0:	69d2      	ldr	r2, [r2, #28]
 80044c2:	2a00      	cmp	r2, #0
 80044c4:	d102      	bne.n	80044cc <TIM_DMADelayPulseCplt+0x1a>
      TIM_CHANNEL_STATE_SET(htim, TIM_CHANNEL_1, HAL_TIM_CHANNEL_STATE_READY);
 80044c6:	0022      	movs	r2, r4
 80044c8:	323a      	adds	r2, #58	; 0x3a
 80044ca:	7013      	strb	r3, [r2, #0]
  HAL_TIM_PWM_PulseFinishedCallback(htim);
 80044cc:	0020      	movs	r0, r4
 80044ce:	f7ff ffef 	bl	80044b0 <HAL_TIM_PWM_PulseFinishedCallback>
  htim->Channel = HAL_TIM_ACTIVE_CHANNEL_CLEARED;
 80044d2:	2300      	movs	r3, #0
 80044d4:	7623      	strb	r3, [r4, #24]
}
 80044d6:	bd10      	pop	{r4, pc}
  else if (hdma == htim->hdma[TIM_DMA_ID_CC2])
 80044d8:	6a63      	ldr	r3, [r4, #36]	; 0x24
 80044da:	4283      	cmp	r3, r0
 80044dc:	d109      	bne.n	80044f2 <TIM_DMADelayPulseCplt+0x40>
    htim->Channel = HAL_TIM_ACTIVE_CHANNEL_2;
 80044de:	2202      	movs	r2, #2
 80044e0:	7622      	strb	r2, [r4, #24]
    if (hdma->Init.Mode == DMA_NORMAL)
 80044e2:	69db      	ldr	r3, [r3, #28]
 80044e4:	2b00      	cmp	r3, #0
 80044e6:	d1f1      	bne.n	80044cc <TIM_DMADelayPulseCplt+0x1a>
      TIM_CHANNEL_STATE_SET(htim, TIM_CHANNEL_2, HAL_TIM_CHANNEL_STATE_READY);
 80044e8:	0023      	movs	r3, r4
 80044ea:	3a01      	subs	r2, #1
 80044ec:	333b      	adds	r3, #59	; 0x3b
      TIM_CHANNEL_STATE_SET(htim, TIM_CHANNEL_4, HAL_TIM_CHANNEL_STATE_READY);
 80044ee:	701a      	strb	r2, [r3, #0]
 80044f0:	e7ec      	b.n	80044cc <TIM_DMADelayPulseCplt+0x1a>
  else if (hdma == htim->hdma[TIM_DMA_ID_CC3])
 80044f2:	6aa3      	ldr	r3, [r4, #40]	; 0x28
 80044f4:	4283      	cmp	r3, r0
 80044f6:	d108      	bne.n	800450a <TIM_DMADelayPulseCplt+0x58>
    htim->Channel = HAL_TIM_ACTIVE_CHANNEL_3;
 80044f8:	2204      	movs	r2, #4
 80044fa:	7622      	strb	r2, [r4, #24]
    if (hdma->Init.Mode == DMA_NORMAL)
 80044fc:	69db      	ldr	r3, [r3, #28]
 80044fe:	2b00      	cmp	r3, #0
 8004500:	d1e4      	bne.n	80044cc <TIM_DMADelayPulseCplt+0x1a>
      TIM_CHANNEL_STATE_SET(htim, TIM_CHANNEL_3, HAL_TIM_CHANNEL_STATE_READY);
 8004502:	0023      	movs	r3, r4
 8004504:	3a03      	subs	r2, #3
 8004506:	333c      	adds	r3, #60	; 0x3c
 8004508:	e7f1      	b.n	80044ee <TIM_DMADelayPulseCplt+0x3c>
  else if (hdma == htim->hdma[TIM_DMA_ID_CC4])
 800450a:	6ae3      	ldr	r3, [r4, #44]	; 0x2c
 800450c:	4283      	cmp	r3, r0
 800450e:	d1dd      	bne.n	80044cc <TIM_DMADelayPulseCplt+0x1a>
    htim->Channel = HAL_TIM_ACTIVE_CHANNEL_4;
 8004510:	2208      	movs	r2, #8
 8004512:	7622      	strb	r2, [r4, #24]
    if (hdma->Init.Mode == DMA_NORMAL)
 8004514:	69db      	ldr	r3, [r3, #28]
 8004516:	2b00      	cmp	r3, #0
 8004518:	d1d8      	bne.n	80044cc <TIM_DMADelayPulseCplt+0x1a>
      TIM_CHANNEL_STATE_SET(htim, TIM_CHANNEL_4, HAL_TIM_CHANNEL_STATE_READY);
 800451a:	0023      	movs	r3, r4
 800451c:	3a07      	subs	r2, #7
 800451e:	333d      	adds	r3, #61	; 0x3d
 8004520:	e7e5      	b.n	80044ee <TIM_DMADelayPulseCplt+0x3c>

08004522 <HAL_TIM_PWM_PulseFinishedHalfCpltCallback>:
 8004522:	4770      	bx	lr

08004524 <TIM_DMADelayPulseHalfCplt>:
{
 8004524:	b510      	push	{r4, lr}
  TIM_HandleTypeDef *htim = (TIM_HandleTypeDef *)((DMA_HandleTypeDef *)hdma)->Parent;
 8004526:	6a84      	ldr	r4, [r0, #40]	; 0x28
  if (hdma == htim->hdma[TIM_DMA_ID_CC1])
 8004528:	6a23      	ldr	r3, [r4, #32]
 800452a:	4283      	cmp	r3, r0
 800452c:	d107      	bne.n	800453e <TIM_DMADelayPulseHalfCplt+0x1a>
    htim->Channel = HAL_TIM_ACTIVE_CHANNEL_1;
 800452e:	2301      	movs	r3, #1
    htim->Channel = HAL_TIM_ACTIVE_CHANNEL_4;
 8004530:	7623      	strb	r3, [r4, #24]
  HAL_TIM_PWM_PulseFinishedHalfCpltCallback(htim);
 8004532:	0020      	movs	r0, r4
 8004534:	f7ff fff5 	bl	8004522 <HAL_TIM_PWM_PulseFinishedHalfCpltCallback>
  htim->Channel = HAL_TIM_ACTIVE_CHANNEL_CLEARED;
 8004538:	2300      	movs	r3, #0
 800453a:	7623      	strb	r3, [r4, #24]
}
 800453c:	bd10      	pop	{r4, pc}
  else if (hdma == htim->hdma[TIM_DMA_ID_CC2])
 800453e:	6a63      	ldr	r3, [r4, #36]	; 0x24
 8004540:	4283      	cmp	r3, r0
 8004542:	d101      	bne.n	8004548 <TIM_DMADelayPulseHalfCplt+0x24>
    htim->Channel = HAL_TIM_ACTIVE_CHANNEL_2;
 8004544:	2302      	movs	r3, #2
 8004546:	e7f3      	b.n	8004530 <TIM_DMADelayPulseHalfCplt+0xc>
  else if (hdma == htim->hdma[TIM_DMA_ID_CC3])
 8004548:	6aa3      	ldr	r3, [r4, #40]	; 0x28
 800454a:	4283      	cmp	r3, r0
 800454c:	d101      	bne.n	8004552 <TIM_DMADelayPulseHalfCplt+0x2e>
    htim->Channel = HAL_TIM_ACTIVE_CHANNEL_3;
 800454e:	2304      	movs	r3, #4
 8004550:	e7ee      	b.n	8004530 <TIM_DMADelayPulseHalfCplt+0xc>
  else if (hdma == htim->hdma[TIM_DMA_ID_CC4])
 8004552:	6ae3      	ldr	r3, [r4, #44]	; 0x2c
 8004554:	4283      	cmp	r3, r0
 8004556:	d1ec      	bne.n	8004532 <TIM_DMADelayPulseHalfCplt+0xe>
    htim->Channel = HAL_TIM_ACTIVE_CHANNEL_4;
 8004558:	2308      	movs	r3, #8
 800455a:	e7e9      	b.n	8004530 <TIM_DMADelayPulseHalfCplt+0xc>

0800455c <HAL_TIM_ErrorCallback>:
 800455c:	4770      	bx	lr

0800455e <TIM_DMAError>:
{
 800455e:	b510      	push	{r4, lr}
  TIM_HandleTypeDef *htim = (TIM_HandleTypeDef *)((DMA_HandleTypeDef *)hdma)->Parent;
 8004560:	6a84      	ldr	r4, [r0, #40]	; 0x28
  if (hdma == htim->hdma[TIM_DMA_ID_CC1])
 8004562:	6a23      	ldr	r3, [r4, #32]
 8004564:	4283      	cmp	r3, r0
 8004566:	d105      	bne.n	8004574 <TIM_DMAError+0x16>
    htim->Channel = HAL_TIM_ACTIVE_CHANNEL_1;
 8004568:	2301      	movs	r3, #1
    TIM_CHANNEL_STATE_SET(htim, TIM_CHANNEL_1, HAL_TIM_CHANNEL_STATE_READY);
 800456a:	0022      	movs	r2, r4
    htim->Channel = HAL_TIM_ACTIVE_CHANNEL_1;
 800456c:	7623      	strb	r3, [r4, #24]
    TIM_CHANNEL_STATE_SET(htim, TIM_CHANNEL_1, HAL_TIM_CHANNEL_STATE_READY);
 800456e:	323a      	adds	r2, #58	; 0x3a
    htim->State = HAL_TIM_STATE_READY;
 8004570:	7013      	strb	r3, [r2, #0]
 8004572:	e008      	b.n	8004586 <TIM_DMAError+0x28>
  else if (hdma == htim->hdma[TIM_DMA_ID_CC2])
 8004574:	6a63      	ldr	r3, [r4, #36]	; 0x24
 8004576:	4283      	cmp	r3, r0
 8004578:	d10b      	bne.n	8004592 <TIM_DMAError+0x34>
    htim->Channel = HAL_TIM_ACTIVE_CHANNEL_2;
 800457a:	2302      	movs	r3, #2
 800457c:	7623      	strb	r3, [r4, #24]
    TIM_CHANNEL_STATE_SET(htim, TIM_CHANNEL_2, HAL_TIM_CHANNEL_STATE_READY);
 800457e:	0023      	movs	r3, r4
 8004580:	2201      	movs	r2, #1
 8004582:	333b      	adds	r3, #59	; 0x3b
 8004584:	701a      	strb	r2, [r3, #0]
  HAL_TIM_ErrorCallback(htim);
 8004586:	0020      	movs	r0, r4
 8004588:	f7ff ffe8 	bl	800455c <HAL_TIM_ErrorCallback>
  htim->Channel = HAL_TIM_ACTIVE_CHANNEL_CLEARED;
 800458c:	2300      	movs	r3, #0
 800458e:	7623      	strb	r3, [r4, #24]
}
 8004590:	bd10      	pop	{r4, pc}
  else if (hdma == htim->hdma[TIM_DMA_ID_CC3])
 8004592:	6aa2      	ldr	r2, [r4, #40]	; 0x28
 8004594:	2301      	movs	r3, #1
 8004596:	4282      	cmp	r2, r0
 8004598:	d104      	bne.n	80045a4 <TIM_DMAError+0x46>
    htim->Channel = HAL_TIM_ACTIVE_CHANNEL_3;
 800459a:	2204      	movs	r2, #4
 800459c:	7622      	strb	r2, [r4, #24]
    TIM_CHANNEL_STATE_SET(htim, TIM_CHANNEL_3, HAL_TIM_CHANNEL_STATE_READY);
 800459e:	0022      	movs	r2, r4
 80045a0:	323c      	adds	r2, #60	; 0x3c
 80045a2:	e7e5      	b.n	8004570 <TIM_DMAError+0x12>
  else if (hdma == htim->hdma[TIM_DMA_ID_CC4])
 80045a4:	6ae2      	ldr	r2, [r4, #44]	; 0x2c
 80045a6:	4282      	cmp	r2, r0
 80045a8:	d104      	bne.n	80045b4 <TIM_DMAError+0x56>
    htim->Channel = HAL_TIM_ACTIVE_CHANNEL_4;
 80045aa:	2208      	movs	r2, #8
 80045ac:	7622      	strb	r2, [r4, #24]
    TIM_CHANNEL_STATE_SET(htim, TIM_CHANNEL_4, HAL_TIM_CHANNEL_STATE_READY);
 80045ae:	0022      	movs	r2, r4
 80045b0:	323d      	adds	r2, #61	; 0x3d
 80045b2:	e7dd      	b.n	8004570 <TIM_DMAError+0x12>
    htim->State = HAL_TIM_STATE_READY;
 80045b4:	0022      	movs	r2, r4
 80045b6:	3239      	adds	r2, #57	; 0x39
 80045b8:	e7da      	b.n	8004570 <TIM_DMAError+0x12>
	...

080045bc <HAL_TIMEx_MasterConfigSynchronization>:
  *         mode.
  * @retval HAL status
  */
HAL_StatusTypeDef HAL_TIMEx_MasterConfigSynchronization(TIM_HandleTypeDef *htim,
                                                        TIM_MasterConfigTypeDef *sMasterConfig)
{
 80045bc:	b570      	push	{r4, r5, r6, lr}
  assert_param(IS_TIM_MASTER_INSTANCE(htim->Instance));
  assert_param(IS_TIM_TRGO_SOURCE(sMasterConfig->MasterOutputTrigger));
  assert_param(IS_TIM_MSM_STATE(sMasterConfig->MasterSlaveMode));

  /* Check input state */
  __HAL_LOCK(htim);
 80045be:	0004      	movs	r4, r0
 80045c0:	2202      	movs	r2, #2
 80045c2:	3438      	adds	r4, #56	; 0x38
 80045c4:	7825      	ldrb	r5, [r4, #0]
{
 80045c6:	0003      	movs	r3, r0
  __HAL_LOCK(htim);
 80045c8:	0010      	movs	r0, r2
 80045ca:	2d01      	cmp	r5, #1
 80045cc:	d020      	beq.n	8004610 <HAL_TIMEx_MasterConfigSynchronization+0x54>

  /* Change the handler state */
  htim->State = HAL_TIM_STATE_BUSY;
 80045ce:	001d      	movs	r5, r3

  /* Get the TIMx SMCR register value */
  tmpsmcr = htim->Instance->SMCR;

  /* Reset the MMS Bits */
  tmpcr2 &= ~TIM_CR2_MMS;
 80045d0:	2670      	movs	r6, #112	; 0x70
  htim->State = HAL_TIM_STATE_BUSY;
 80045d2:	3539      	adds	r5, #57	; 0x39
 80045d4:	702a      	strb	r2, [r5, #0]
  tmpcr2 = htim->Instance->CR2;
 80045d6:	681b      	ldr	r3, [r3, #0]
 80045d8:	6858      	ldr	r0, [r3, #4]
  tmpsmcr = htim->Instance->SMCR;
 80045da:	689a      	ldr	r2, [r3, #8]
  tmpcr2 &= ~TIM_CR2_MMS;
 80045dc:	43b0      	bics	r0, r6
  /* Select the TRGO source */
  tmpcr2 |=  sMasterConfig->MasterOutputTrigger;
 80045de:	680e      	ldr	r6, [r1, #0]
 80045e0:	4330      	orrs	r0, r6

  /* Update TIMx CR2 */
  htim->Instance->CR2 = tmpcr2;
 80045e2:	6058      	str	r0, [r3, #4]

  if (IS_TIM_SLAVE_INSTANCE(htim->Instance))
 80045e4:	2080      	movs	r0, #128	; 0x80
 80045e6:	05c0      	lsls	r0, r0, #23
 80045e8:	4283      	cmp	r3, r0
 80045ea:	d008      	beq.n	80045fe <HAL_TIMEx_MasterConfigSynchronization+0x42>
 80045ec:	4809      	ldr	r0, [pc, #36]	; (8004614 <HAL_TIMEx_MasterConfigSynchronization+0x58>)
 80045ee:	4283      	cmp	r3, r0
 80045f0:	d005      	beq.n	80045fe <HAL_TIMEx_MasterConfigSynchronization+0x42>
 80045f2:	4809      	ldr	r0, [pc, #36]	; (8004618 <HAL_TIMEx_MasterConfigSynchronization+0x5c>)
 80045f4:	4283      	cmp	r3, r0
 80045f6:	d002      	beq.n	80045fe <HAL_TIMEx_MasterConfigSynchronization+0x42>
 80045f8:	4808      	ldr	r0, [pc, #32]	; (800461c <HAL_TIMEx_MasterConfigSynchronization+0x60>)
 80045fa:	4283      	cmp	r3, r0
 80045fc:	d104      	bne.n	8004608 <HAL_TIMEx_MasterConfigSynchronization+0x4c>
  {
    /* Reset the MSM Bit */
    tmpsmcr &= ~TIM_SMCR_MSM;
 80045fe:	2080      	movs	r0, #128	; 0x80
    /* Set master mode */
    tmpsmcr |= sMasterConfig->MasterSlaveMode;
 8004600:	6849      	ldr	r1, [r1, #4]
    tmpsmcr &= ~TIM_SMCR_MSM;
 8004602:	4382      	bics	r2, r0
    tmpsmcr |= sMasterConfig->MasterSlaveMode;
 8004604:	430a      	orrs	r2, r1

    /* Update TIMx SMCR */
    htim->Instance->SMCR = tmpsmcr;
 8004606:	609a      	str	r2, [r3, #8]
  }

  /* Change the htim state */
  htim->State = HAL_TIM_STATE_READY;
 8004608:	2301      	movs	r3, #1

  __HAL_UNLOCK(htim);
 800460a:	2000      	movs	r0, #0
  htim->State = HAL_TIM_STATE_READY;
 800460c:	702b      	strb	r3, [r5, #0]
  __HAL_UNLOCK(htim);
 800460e:	7020      	strb	r0, [r4, #0]

  return HAL_OK;
}
 8004610:	bd70      	pop	{r4, r5, r6, pc}
 8004612:	46c0      	nop			; (mov r8, r8)
 8004614:	40000400 	.word	0x40000400
 8004618:	40010800 	.word	0x40010800
 800461c:	40011400 	.word	0x40011400

08004620 <disk_status>:

DSTATUS disk_status (
	BYTE pdrv		/* Physical drive nmuber to identify the drive */
)
{
	if (SD_ff_hw.initialized)
 8004620:	4b02      	ldr	r3, [pc, #8]	; (800462c <disk_status+0xc>)
 8004622:	6818      	ldr	r0, [r3, #0]
 8004624:	4243      	negs	r3, r0
 8004626:	4158      	adcs	r0, r3
		return 0;

	return STA_NOINIT;
}
 8004628:	b2c0      	uxtb	r0, r0
 800462a:	4770      	bx	lr
 800462c:	20000c94 	.word	0x20000c94

08004630 <disk_initialize>:
/*-----------------------------------------------------------------------*/

DSTATUS disk_initialize (
	BYTE pdrv				/* Physical drive nmuber to identify the drive */
)
{
 8004630:	b510      	push	{r4, lr}
	if (hwif_init(&SD_ff_hw) == 0)
 8004632:	4803      	ldr	r0, [pc, #12]	; (8004640 <disk_initialize+0x10>)
 8004634:	f000 fa7c 	bl	8004b30 <hwif_init>
 8004638:	1e43      	subs	r3, r0, #1
 800463a:	4198      	sbcs	r0, r3
		return 0;

	return STA_NOINIT;
}
 800463c:	b2c0      	uxtb	r0, r0
 800463e:	bd10      	pop	{r4, pc}
 8004640:	20000c94 	.word	0x20000c94

08004644 <disk_read>:
	BYTE pdrv,		/* Physical drive nmuber to identify the drive */
	BYTE *buff,		/* Data buffer to store read data */
	DWORD sector,	/* Sector address in LBA */
	UINT count		/* Number of sectors to read */
)
{
 8004644:	b570      	push	{r4, r5, r6, lr}
 8004646:	0014      	movs	r4, r2
 8004648:	000d      	movs	r5, r1
 800464a:	189e      	adds	r6, r3, r2
	int i;

	for (i=0; i<count; i++)
 800464c:	42b4      	cmp	r4, r6
 800464e:	d101      	bne.n	8004654 <disk_read+0x10>
		if (sd_read(&SD_ff_hw, sector+i, buff+512*i) != 0)
			return RES_ERROR;

	return RES_OK;
 8004650:	2000      	movs	r0, #0
}
 8004652:	bd70      	pop	{r4, r5, r6, pc}
		if (sd_read(&SD_ff_hw, sector+i, buff+512*i) != 0)
 8004654:	002a      	movs	r2, r5
 8004656:	0021      	movs	r1, r4
 8004658:	4805      	ldr	r0, [pc, #20]	; (8004670 <disk_read+0x2c>)
 800465a:	f000 fb13 	bl	8004c84 <sd_read>
 800465e:	2380      	movs	r3, #128	; 0x80
 8004660:	009b      	lsls	r3, r3, #2
 8004662:	3401      	adds	r4, #1
 8004664:	18ed      	adds	r5, r5, r3
 8004666:	2800      	cmp	r0, #0
 8004668:	d0f0      	beq.n	800464c <disk_read+0x8>
			return RES_ERROR;
 800466a:	2001      	movs	r0, #1
 800466c:	e7f1      	b.n	8004652 <disk_read+0xe>
 800466e:	46c0      	nop			; (mov r8, r8)
 8004670:	20000c94 	.word	0x20000c94

08004674 <crc7_one>:
	int i;
	const uint8_t g = 0x89;
	t ^= data;
	for (i=0; i<8; i++) {
		if (t & 0x80)
			t ^= g;
 8004674:	2277      	movs	r2, #119	; 0x77
	t ^= data;
 8004676:	2308      	movs	r3, #8
 8004678:	4048      	eors	r0, r1
			t ^= g;
 800467a:	4252      	negs	r2, r2
		if (t & 0x80)
 800467c:	b241      	sxtb	r1, r0
 800467e:	2900      	cmp	r1, #0
 8004680:	da01      	bge.n	8004686 <crc7_one+0x12>
			t ^= g;
 8004682:	4050      	eors	r0, r2
 8004684:	b2c0      	uxtb	r0, r0
		t <<= 1;
 8004686:	0040      	lsls	r0, r0, #1
	for (i=0; i<8; i++) {
 8004688:	3b01      	subs	r3, #1
		t <<= 1;
 800468a:	b2c0      	uxtb	r0, r0
	for (i=0; i<8; i++) {
 800468c:	2b00      	cmp	r3, #0
 800468e:	d1f5      	bne.n	800467c <crc7_one+0x8>
	}
	return t;
}
 8004690:	4770      	bx	lr
	...

08004694 <spi_txrx>:
{
 8004694:	b57f      	push	{r0, r1, r2, r3, r4, r5, r6, lr}
	uint8_t out = 0;
 8004696:	2300      	movs	r3, #0
 8004698:	466a      	mov	r2, sp
{
 800469a:	210f      	movs	r1, #15
	uint8_t out = 0;
 800469c:	75d3      	strb	r3, [r2, #23]
	HAL_SPI_TransmitReceive(&FAT_SD_SPI, &data, &out, sizeof(data), HAL_MAX_DELAY);
 800469e:	2217      	movs	r2, #23
{
 80046a0:	4469      	add	r1, sp
	HAL_SPI_TransmitReceive(&FAT_SD_SPI, &data, &out, sizeof(data), HAL_MAX_DELAY);
 80046a2:	3b01      	subs	r3, #1
{
 80046a4:	7008      	strb	r0, [r1, #0]
	HAL_SPI_TransmitReceive(&FAT_SD_SPI, &data, &out, sizeof(data), HAL_MAX_DELAY);
 80046a6:	446a      	add	r2, sp
 80046a8:	9300      	str	r3, [sp, #0]
 80046aa:	4804      	ldr	r0, [pc, #16]	; (80046bc <spi_txrx+0x28>)
 80046ac:	3302      	adds	r3, #2
 80046ae:	f7ff f9a5 	bl	80039fc <HAL_SPI_TransmitReceive>
	return out;
 80046b2:	466b      	mov	r3, sp
 80046b4:	7dd8      	ldrb	r0, [r3, #23]
}
 80046b6:	b007      	add	sp, #28
 80046b8:	bd00      	pop	{pc}
 80046ba:	46c0      	nop			; (mov r8, r8)
 80046bc:	20000190 	.word	0x20000190

080046c0 <sd_cmd>:


/*** sd functions - on top of spi code ***/

static void sd_cmd(uint8_t cmd, uint32_t arg)
{
 80046c0:	b570      	push	{r4, r5, r6, lr}
	uint8_t crc = 0;
	spi_txrx(0x40 | cmd);
 80046c2:	2540      	movs	r5, #64	; 0x40
 80046c4:	4305      	orrs	r5, r0
 80046c6:	0028      	movs	r0, r5
{
 80046c8:	000c      	movs	r4, r1
	spi_txrx(0x40 | cmd);
 80046ca:	f7ff ffe3 	bl	8004694 <spi_txrx>
	crc = crc7_one(crc, 0x40 | cmd);
 80046ce:	0029      	movs	r1, r5
 80046d0:	2000      	movs	r0, #0
 80046d2:	f7ff ffcf 	bl	8004674 <crc7_one>
 80046d6:	0005      	movs	r5, r0
	spi_txrx(arg >> 24);
 80046d8:	0e26      	lsrs	r6, r4, #24
 80046da:	0030      	movs	r0, r6
 80046dc:	f7ff ffda 	bl	8004694 <spi_txrx>
	crc = crc7_one(crc, arg >> 24);
 80046e0:	0031      	movs	r1, r6
 80046e2:	0028      	movs	r0, r5
 80046e4:	f7ff ffc6 	bl	8004674 <crc7_one>
 80046e8:	0006      	movs	r6, r0
	spi_txrx(arg >> 16);
 80046ea:	0c25      	lsrs	r5, r4, #16
 80046ec:	b2ed      	uxtb	r5, r5
 80046ee:	0028      	movs	r0, r5
 80046f0:	f7ff ffd0 	bl	8004694 <spi_txrx>
	crc = crc7_one(crc, arg >> 16);
 80046f4:	0029      	movs	r1, r5
 80046f6:	0030      	movs	r0, r6
 80046f8:	f7ff ffbc 	bl	8004674 <crc7_one>
 80046fc:	0006      	movs	r6, r0
	spi_txrx(arg >> 8);
 80046fe:	0a25      	lsrs	r5, r4, #8
 8004700:	b2ed      	uxtb	r5, r5
 8004702:	0028      	movs	r0, r5
 8004704:	f7ff ffc6 	bl	8004694 <spi_txrx>
	crc = crc7_one(crc, arg >> 8);
 8004708:	0029      	movs	r1, r5
 800470a:	0030      	movs	r0, r6
 800470c:	f7ff ffb2 	bl	8004674 <crc7_one>
 8004710:	0005      	movs	r5, r0
	spi_txrx(arg);
 8004712:	b2e4      	uxtb	r4, r4
 8004714:	0020      	movs	r0, r4
 8004716:	f7ff ffbd 	bl	8004694 <spi_txrx>
	crc = crc7_one(crc, arg);
 800471a:	0021      	movs	r1, r4
 800471c:	0028      	movs	r0, r5
 800471e:	f7ff ffa9 	bl	8004674 <crc7_one>
	//spi_txrx(0x95);
	spi_txrx(crc | 0x1);	/* crc7, for cmd0 */
 8004722:	2301      	movs	r3, #1
 8004724:	4318      	orrs	r0, r3
 8004726:	b2c0      	uxtb	r0, r0
 8004728:	f7ff ffb4 	bl	8004694 <spi_txrx>
}
 800472c:	bd70      	pop	{r4, r5, r6, pc}
	...

08004730 <sd_get_r1>:

static uint8_t sd_get_r1()
{
 8004730:	b510      	push	{r4, lr}
	int tries = 1000;
	uint8_t r;

	while (tries--) {
 8004732:	4c05      	ldr	r4, [pc, #20]	; (8004748 <sd_get_r1+0x18>)
 8004734:	3c01      	subs	r4, #1
		r = spi_txrx(0xff);
 8004736:	20ff      	movs	r0, #255	; 0xff
	while (tries--) {
 8004738:	2c00      	cmp	r4, #0
 800473a:	d003      	beq.n	8004744 <sd_get_r1+0x14>
		r = spi_txrx(0xff);
 800473c:	f7ff ffaa 	bl	8004694 <spi_txrx>
		if ((r & 0x80) == 0)
 8004740:	0603      	lsls	r3, r0, #24
 8004742:	d4f7      	bmi.n	8004734 <sd_get_r1+0x4>
			return r;
	}
	return 0xff;
}
 8004744:	bd10      	pop	{r4, pc}
 8004746:	46c0      	nop			; (mov r8, r8)
 8004748:	000003e9 	.word	0x000003e9

0800474c <sd_nec>:


/* Nec (=Ncr? which is limited to [0,8]) dummy bytes before lowering CS,
 * as described in sandisk doc, 5.4. */
static void sd_nec()
{
 800474c:	b510      	push	{r4, lr}
 800474e:	2408      	movs	r4, #8
	int i;
	for (i=0; i<8; i++)
		spi_txrx(0xff);
 8004750:	20ff      	movs	r0, #255	; 0xff
	for (i=0; i<8; i++)
 8004752:	3c01      	subs	r4, #1
		spi_txrx(0xff);
 8004754:	f7ff ff9e 	bl	8004694 <spi_txrx>
	for (i=0; i<8; i++)
 8004758:	2c00      	cmp	r4, #0
 800475a:	d1f9      	bne.n	8004750 <sd_nec+0x4>
}
 800475c:	bd10      	pop	{r4, pc}

0800475e <sd_get_r7>:
{
 800475e:	b570      	push	{r4, r5, r6, lr}
 8004760:	0006      	movs	r6, r0
	r = sd_get_r1();
 8004762:	f7ff ffe5 	bl	8004730 <sd_get_r1>
 8004766:	0005      	movs	r5, r0
	if (r != 0x01)
 8004768:	2801      	cmp	r0, #1
 800476a:	d113      	bne.n	8004794 <sd_get_r7+0x36>
	r = spi_txrx(0xff) << 24;
 800476c:	20ff      	movs	r0, #255	; 0xff
 800476e:	f7ff ff91 	bl	8004694 <spi_txrx>
 8004772:	0004      	movs	r4, r0
	r |= spi_txrx(0xff) << 16;
 8004774:	20ff      	movs	r0, #255	; 0xff
 8004776:	f7ff ff8d 	bl	8004694 <spi_txrx>
	r = spi_txrx(0xff) << 24;
 800477a:	0624      	lsls	r4, r4, #24
	r |= spi_txrx(0xff) << 16;
 800477c:	0400      	lsls	r0, r0, #16
 800477e:	4304      	orrs	r4, r0
	r |= spi_txrx(0xff) << 8;
 8004780:	20ff      	movs	r0, #255	; 0xff
 8004782:	f7ff ff87 	bl	8004694 <spi_txrx>
 8004786:	0200      	lsls	r0, r0, #8
 8004788:	4304      	orrs	r4, r0
	r |= spi_txrx(0xff);
 800478a:	20ff      	movs	r0, #255	; 0xff
 800478c:	f7ff ff82 	bl	8004694 <spi_txrx>
 8004790:	4320      	orrs	r0, r4
	*r7 = r;
 8004792:	6030      	str	r0, [r6, #0]
}
 8004794:	0028      	movs	r0, r5
 8004796:	bd70      	pop	{r4, r5, r6, pc}

08004798 <sd_get_data.constprop.0>:

	return 0;
}

/* 0xfe marks data start, then len bytes of data and crc16 */
static int sd_get_data(hwif *hw, uint8_t *buf, int len)
 8004798:	b570      	push	{r4, r5, r6, lr}
 800479a:	0006      	movs	r6, r0
 800479c:	000c      	movs	r4, r1
 800479e:	4d0c      	ldr	r5, [pc, #48]	; (80047d0 <sd_get_data.constprop.0+0x38>)
	uint8_t r;
	uint16_t _crc16;
	uint16_t calc_crc;
	int i;

	while (tries--) {
 80047a0:	3d01      	subs	r5, #1
 80047a2:	2d00      	cmp	r5, #0
 80047a4:	d102      	bne.n	80047ac <sd_get_data.constprop.0+0x14>
		r = spi_txrx(0xff);
		if (r == 0xfe)
			break;
	}
	if (tries < 0)
		return -1;
 80047a6:	2001      	movs	r0, #1
 80047a8:	4240      	negs	r0, r0
	//if (_crc16 != calc_crc) {
	//	return -1;
	//}

	return 0;
}
 80047aa:	bd70      	pop	{r4, r5, r6, pc}
		r = spi_txrx(0xff);
 80047ac:	20ff      	movs	r0, #255	; 0xff
 80047ae:	f7ff ff71 	bl	8004694 <spi_txrx>
		if (r == 0xfe)
 80047b2:	28fe      	cmp	r0, #254	; 0xfe
 80047b4:	d1f4      	bne.n	80047a0 <sd_get_data.constprop.0+0x8>
	dma_complete = 0;
 80047b6:	2300      	movs	r3, #0
 80047b8:	4d06      	ldr	r5, [pc, #24]	; (80047d4 <sd_get_data.constprop.0+0x3c>)
	HAL_SPI_Receive_DMA(&FAT_SD_SPI, buf, len);
 80047ba:	0031      	movs	r1, r6
 80047bc:	4806      	ldr	r0, [pc, #24]	; (80047d8 <sd_get_data.constprop.0+0x40>)
 80047be:	b2a2      	uxth	r2, r4
	dma_complete = 0;
 80047c0:	702b      	strb	r3, [r5, #0]
	HAL_SPI_Receive_DMA(&FAT_SD_SPI, buf, len);
 80047c2:	f7ff fa99 	bl	8003cf8 <HAL_SPI_Receive_DMA>
	while (dma_complete == 0);
 80047c6:	782b      	ldrb	r3, [r5, #0]
 80047c8:	2b00      	cmp	r3, #0
 80047ca:	d0fc      	beq.n	80047c6 <sd_get_data.constprop.0+0x2e>
 80047cc:	2000      	movs	r0, #0
 80047ce:	e7ec      	b.n	80047aa <sd_get_data.constprop.0+0x12>
 80047d0:	00004e21 	.word	0x00004e21
 80047d4:	20000ca4 	.word	0x20000ca4
 80047d8:	20000190 	.word	0x20000190

080047dc <sd_readsector>:
	return 0;
}


static int sd_readsector(hwif *hw, uint32_t address, uint8_t *buf)
{
 80047dc:	b570      	push	{r4, r5, r6, lr}
 80047de:	0005      	movs	r5, r0
 80047e0:	000c      	movs	r4, r1
	int r;

	spi_cs_low();
 80047e2:	20a0      	movs	r0, #160	; 0xa0
 80047e4:	2180      	movs	r1, #128	; 0x80
{
 80047e6:	0016      	movs	r6, r2
	spi_cs_low();
 80047e8:	0209      	lsls	r1, r1, #8
 80047ea:	2200      	movs	r2, #0
 80047ec:	05c0      	lsls	r0, r0, #23
 80047ee:	f7fe fbcd 	bl	8002f8c <HAL_GPIO_WritePin>
	if (hw->capabilities & CAP_SDHC)
 80047f2:	68eb      	ldr	r3, [r5, #12]
		sd_cmd(17, address); /* read single block */
 80047f4:	0021      	movs	r1, r4
	if (hw->capabilities & CAP_SDHC)
 80047f6:	079b      	lsls	r3, r3, #30
 80047f8:	d400      	bmi.n	80047fc <sd_readsector+0x20>
	else
		sd_cmd(17, address*512); /* read single block */
 80047fa:	0261      	lsls	r1, r4, #9
 80047fc:	2011      	movs	r0, #17
 80047fe:	f7ff ff5f 	bl	80046c0 <sd_cmd>

	r = sd_get_r1();
 8004802:	f7ff ff95 	bl	8004730 <sd_get_r1>
	if (r == 0xff) {
 8004806:	28ff      	cmp	r0, #255	; 0xff
 8004808:	d109      	bne.n	800481e <sd_readsector+0x42>
		spi_cs_high();
 800480a:	2180      	movs	r1, #128	; 0x80
 800480c:	20a0      	movs	r0, #160	; 0xa0
 800480e:	2201      	movs	r2, #1
 8004810:	05c0      	lsls	r0, r0, #23
 8004812:	0209      	lsls	r1, r1, #8
 8004814:	f7fe fbba 	bl	8002f8c <HAL_GPIO_WritePin>
		r = -1;
 8004818:	2001      	movs	r0, #1

	r = sd_get_data(hw, buf, 512);
	sd_nec();
	spi_cs_high();
	if (r == -1) {
		r = -3;
 800481a:	4240      	negs	r0, r0
	}

	return 0;
 fail:
	return r;
}
 800481c:	bd70      	pop	{r4, r5, r6, pc}
	if (r & 0xfe) {
 800481e:	2501      	movs	r5, #1
 8004820:	43a8      	bics	r0, r5
 8004822:	b2c4      	uxtb	r4, r0
 8004824:	2c00      	cmp	r4, #0
 8004826:	d008      	beq.n	800483a <sd_readsector+0x5e>
		spi_cs_high();
 8004828:	2180      	movs	r1, #128	; 0x80
 800482a:	20a0      	movs	r0, #160	; 0xa0
 800482c:	002a      	movs	r2, r5
 800482e:	05c0      	lsls	r0, r0, #23
 8004830:	0209      	lsls	r1, r1, #8
 8004832:	f7fe fbab 	bl	8002f8c <HAL_GPIO_WritePin>
		r = -2;
 8004836:	2002      	movs	r0, #2
 8004838:	e7ef      	b.n	800481a <sd_readsector+0x3e>
	r = sd_get_data(hw, buf, 512);
 800483a:	2180      	movs	r1, #128	; 0x80
 800483c:	0030      	movs	r0, r6
 800483e:	0089      	lsls	r1, r1, #2
 8004840:	f7ff ffaa 	bl	8004798 <sd_get_data.constprop.0>
 8004844:	0006      	movs	r6, r0
	sd_nec();
 8004846:	f7ff ff81 	bl	800474c <sd_nec>
	spi_cs_high();
 800484a:	2180      	movs	r1, #128	; 0x80
 800484c:	20a0      	movs	r0, #160	; 0xa0
 800484e:	002a      	movs	r2, r5
 8004850:	05c0      	lsls	r0, r0, #23
 8004852:	0209      	lsls	r1, r1, #8
 8004854:	f7fe fb9a 	bl	8002f8c <HAL_GPIO_WritePin>
	return 0;
 8004858:	0020      	movs	r0, r4
	if (r == -1) {
 800485a:	3601      	adds	r6, #1
 800485c:	d1de      	bne.n	800481c <sd_readsector+0x40>
		r = -3;
 800485e:	2003      	movs	r0, #3
 8004860:	e7db      	b.n	800481a <sd_readsector+0x3e>
	...

08004864 <sd_read_status.constprop.0.isra.0>:
	spi_cs_low();
 8004864:	2180      	movs	r1, #128	; 0x80
 8004866:	20a0      	movs	r0, #160	; 0xa0
static int sd_read_status(hwif *hw)
 8004868:	b510      	push	{r4, lr}
	spi_cs_low();
 800486a:	2200      	movs	r2, #0
 800486c:	0209      	lsls	r1, r1, #8
 800486e:	05c0      	lsls	r0, r0, #23
 8004870:	f7fe fb8c 	bl	8002f8c <HAL_GPIO_WritePin>
	sd_cmd(13, 0);
 8004874:	2100      	movs	r1, #0
 8004876:	200d      	movs	r0, #13
 8004878:	f7ff ff22 	bl	80046c0 <sd_cmd>
 800487c:	4c0b      	ldr	r4, [pc, #44]	; (80048ac <sd_read_status.constprop.0.isra.0+0x48>)
	while (tries--) {
 800487e:	3c01      	subs	r4, #1
 8004880:	2c00      	cmp	r4, #0
 8004882:	d109      	bne.n	8004898 <sd_read_status.constprop.0.isra.0+0x34>
	sd_nec();
 8004884:	f7ff ff62 	bl	800474c <sd_nec>
	spi_cs_high();
 8004888:	2180      	movs	r1, #128	; 0x80
 800488a:	20a0      	movs	r0, #160	; 0xa0
 800488c:	2201      	movs	r2, #1
 800488e:	0209      	lsls	r1, r1, #8
 8004890:	05c0      	lsls	r0, r0, #23
 8004892:	f7fe fb7b 	bl	8002f8c <HAL_GPIO_WritePin>
}
 8004896:	bd10      	pop	{r4, pc}
		r = spi_txrx(0xff);
 8004898:	20ff      	movs	r0, #255	; 0xff
 800489a:	f7ff fefb 	bl	8004694 <spi_txrx>
		if ((r & 0x80) == 0)
 800489e:	0600      	lsls	r0, r0, #24
 80048a0:	d4ed      	bmi.n	800487e <sd_read_status.constprop.0.isra.0+0x1a>
	r = r<<8 | spi_txrx(0xff);
 80048a2:	20ff      	movs	r0, #255	; 0xff
 80048a4:	f7ff fef6 	bl	8004694 <spi_txrx>
	return r;
 80048a8:	e7ec      	b.n	8004884 <sd_read_status.constprop.0.isra.0+0x20>
 80048aa:	46c0      	nop			; (mov r8, r8)
 80048ac:	000003e9 	.word	0x000003e9

080048b0 <sd_init>:
	hw->capabilities = 0;
 80048b0:	2300      	movs	r3, #0
{
 80048b2:	b5f0      	push	{r4, r5, r6, r7, lr}
	hw->capabilities = 0;
 80048b4:	60c3      	str	r3, [r0, #12]
{
 80048b6:	0004      	movs	r4, r0
	FAT_SD_SPI.Init.BaudRatePrescaler = prescaler;
 80048b8:	489b      	ldr	r0, [pc, #620]	; (8004b28 <sd_init+0x278>)
 80048ba:	3320      	adds	r3, #32
{
 80048bc:	b085      	sub	sp, #20
	FAT_SD_SPI.Init.BaudRatePrescaler = prescaler;
 80048be:	61c3      	str	r3, [r0, #28]
	HAL_SPI_Init(&FAT_SD_SPI);
 80048c0:	f7ff f83a 	bl	8003938 <HAL_SPI_Init>
	spi_cs_high();
 80048c4:	2180      	movs	r1, #128	; 0x80
 80048c6:	20a0      	movs	r0, #160	; 0xa0
 80048c8:	2201      	movs	r2, #1
 80048ca:	0209      	lsls	r1, r1, #8
 80048cc:	05c0      	lsls	r0, r0, #23
 80048ce:	f7fe fb5d 	bl	8002f8c <HAL_GPIO_WritePin>
 80048d2:	260a      	movs	r6, #10
		spi_txrx(0xff);
 80048d4:	20ff      	movs	r0, #255	; 0xff
	for (i=0; i<10; i++)
 80048d6:	3e01      	subs	r6, #1
		spi_txrx(0xff);
 80048d8:	f7ff fedc 	bl	8004694 <spi_txrx>
	for (i=0; i<10; i++)
 80048dc:	2e00      	cmp	r6, #0
 80048de:	d1f9      	bne.n	80048d4 <sd_init+0x24>
	spi_cs_low();
 80048e0:	2180      	movs	r1, #128	; 0x80
 80048e2:	20a0      	movs	r0, #160	; 0xa0
 80048e4:	0032      	movs	r2, r6
 80048e6:	0209      	lsls	r1, r1, #8
 80048e8:	05c0      	lsls	r0, r0, #23
 80048ea:	f7fe fb4f 	bl	8002f8c <HAL_GPIO_WritePin>
	sd_cmd(0, 0);
 80048ee:	0031      	movs	r1, r6
 80048f0:	0030      	movs	r0, r6
 80048f2:	f7ff fee5 	bl	80046c0 <sd_cmd>
	r = sd_get_r1();
 80048f6:	f7ff ff1b 	bl	8004730 <sd_get_r1>
 80048fa:	0005      	movs	r5, r0
	sd_nec();
 80048fc:	f7ff ff26 	bl	800474c <sd_nec>
	spi_cs_high();
 8004900:	2180      	movs	r1, #128	; 0x80
 8004902:	20a0      	movs	r0, #160	; 0xa0
 8004904:	2201      	movs	r2, #1
 8004906:	0209      	lsls	r1, r1, #8
 8004908:	05c0      	lsls	r0, r0, #23
 800490a:	f7fe fb3f 	bl	8002f8c <HAL_GPIO_WritePin>
	if (r == 0xff)
 800490e:	2dff      	cmp	r5, #255	; 0xff
 8004910:	d104      	bne.n	800491c <sd_init+0x6c>
	return -1;
 8004912:	2501      	movs	r5, #1
	return -2;
 8004914:	426d      	negs	r5, r5
}
 8004916:	0028      	movs	r0, r5
 8004918:	b005      	add	sp, #20
 800491a:	bdf0      	pop	{r4, r5, r6, r7, pc}
	if (r != 0x01) {
 800491c:	2d01      	cmp	r5, #1
 800491e:	d001      	beq.n	8004924 <sd_init+0x74>
	return -2;
 8004920:	2502      	movs	r5, #2
 8004922:	e7f7      	b.n	8004914 <sd_init+0x64>
	spi_cs_low();
 8004924:	2180      	movs	r1, #128	; 0x80
 8004926:	20a0      	movs	r0, #160	; 0xa0
 8004928:	0032      	movs	r2, r6
 800492a:	0209      	lsls	r1, r1, #8
 800492c:	05c0      	lsls	r0, r0, #23
 800492e:	f7fe fb2d 	bl	8002f8c <HAL_GPIO_WritePin>
	sd_cmd(8, 0x1aa /* VHS = 1 */);
 8004932:	21d5      	movs	r1, #213	; 0xd5
 8004934:	2008      	movs	r0, #8
 8004936:	0049      	lsls	r1, r1, #1
 8004938:	f7ff fec2 	bl	80046c0 <sd_cmd>
	r = sd_get_r7(&r7);
 800493c:	a802      	add	r0, sp, #8
 800493e:	f7ff ff0e 	bl	800475e <sd_get_r7>
 8004942:	0006      	movs	r6, r0
	sd_nec();
 8004944:	f7ff ff02 	bl	800474c <sd_nec>
	spi_cs_high();
 8004948:	2180      	movs	r1, #128	; 0x80
 800494a:	20a0      	movs	r0, #160	; 0xa0
 800494c:	002a      	movs	r2, r5
 800494e:	0209      	lsls	r1, r1, #8
 8004950:	05c0      	lsls	r0, r0, #23
 8004952:	f7fe fb1b 	bl	8002f8c <HAL_GPIO_WritePin>
	hw->capabilities |= CAP_VER2_00;
 8004956:	002a      	movs	r2, r5
 8004958:	68e3      	ldr	r3, [r4, #12]
 800495a:	431a      	orrs	r2, r3
 800495c:	60e2      	str	r2, [r4, #12]
	if (r == 0xff)
 800495e:	2eff      	cmp	r6, #255	; 0xff
 8004960:	d0d7      	beq.n	8004912 <sd_init+0x62>
	if (r == 0x01)
 8004962:	2e01      	cmp	r6, #1
 8004964:	d003      	beq.n	800496e <sd_init+0xbe>
	else if (r & 0x4) {
 8004966:	0776      	lsls	r6, r6, #29
 8004968:	d5da      	bpl.n	8004920 <sd_init+0x70>
		hw->capabilities &= ~CAP_VER2_00;
 800496a:	43ab      	bics	r3, r5
 800496c:	60e3      	str	r3, [r4, #12]
	spi_cs_low();
 800496e:	2180      	movs	r1, #128	; 0x80
 8004970:	20a0      	movs	r0, #160	; 0xa0
 8004972:	2200      	movs	r2, #0
 8004974:	0209      	lsls	r1, r1, #8
 8004976:	05c0      	lsls	r0, r0, #23
 8004978:	f7fe fb08 	bl	8002f8c <HAL_GPIO_WritePin>
	sd_cmd(58, 0);
 800497c:	2100      	movs	r1, #0
 800497e:	203a      	movs	r0, #58	; 0x3a
 8004980:	f7ff fe9e 	bl	80046c0 <sd_cmd>
	r = sd_get_r3(&r3);
 8004984:	a803      	add	r0, sp, #12
 8004986:	f7ff feea 	bl	800475e <sd_get_r7>
 800498a:	0005      	movs	r5, r0
	sd_nec();
 800498c:	f7ff fede 	bl	800474c <sd_nec>
	spi_cs_high();
 8004990:	2180      	movs	r1, #128	; 0x80
 8004992:	20a0      	movs	r0, #160	; 0xa0
 8004994:	2201      	movs	r2, #1
 8004996:	0209      	lsls	r1, r1, #8
 8004998:	05c0      	lsls	r0, r0, #23
 800499a:	f7fe faf7 	bl	8002f8c <HAL_GPIO_WritePin>
	if (r == 0xff)
 800499e:	2dff      	cmp	r5, #255	; 0xff
 80049a0:	d0b7      	beq.n	8004912 <sd_init+0x62>
	if (r != 0x01 && !(r & 0x4)) { /* allow it to not be implemented - old cards */
 80049a2:	2d01      	cmp	r5, #1
 80049a4:	d001      	beq.n	80049aa <sd_init+0xfa>
 80049a6:	076d      	lsls	r5, r5, #29
 80049a8:	d5ba      	bpl.n	8004920 <sd_init+0x70>
	if (hw->capabilities & CAP_VER2_00)
 80049aa:	2280      	movs	r2, #128	; 0x80
		spi_cs_low();
 80049ac:	27a0      	movs	r7, #160	; 0xa0
	if (hw->capabilities & CAP_VER2_00)
 80049ae:	68e3      	ldr	r3, [r4, #12]
 80049b0:	05d2      	lsls	r2, r2, #23
 80049b2:	079b      	lsls	r3, r3, #30
 80049b4:	4013      	ands	r3, r2
 80049b6:	9301      	str	r3, [sp, #4]
 80049b8:	4b5c      	ldr	r3, [pc, #368]	; (8004b2c <sd_init+0x27c>)
		spi_cs_low();
 80049ba:	05ff      	lsls	r7, r7, #23
	if (hw->capabilities & CAP_VER2_00)
 80049bc:	9300      	str	r3, [sp, #0]
		spi_cs_low();
 80049be:	2180      	movs	r1, #128	; 0x80
 80049c0:	2200      	movs	r2, #0
 80049c2:	0038      	movs	r0, r7
 80049c4:	0209      	lsls	r1, r1, #8
 80049c6:	f7fe fae1 	bl	8002f8c <HAL_GPIO_WritePin>
		sd_cmd(55, 0);
 80049ca:	2100      	movs	r1, #0
 80049cc:	2037      	movs	r0, #55	; 0x37
 80049ce:	f7ff fe77 	bl	80046c0 <sd_cmd>
		r = sd_get_r1();
 80049d2:	f7ff fead 	bl	8004730 <sd_get_r1>
 80049d6:	0005      	movs	r5, r0
		sd_nec();
 80049d8:	f7ff feb8 	bl	800474c <sd_nec>
		spi_cs_high();
 80049dc:	2180      	movs	r1, #128	; 0x80
 80049de:	2201      	movs	r2, #1
 80049e0:	0038      	movs	r0, r7
 80049e2:	0209      	lsls	r1, r1, #8
 80049e4:	f7fe fad2 	bl	8002f8c <HAL_GPIO_WritePin>
		if (r == 0xff)
 80049e8:	2dff      	cmp	r5, #255	; 0xff
 80049ea:	d100      	bne.n	80049ee <sd_init+0x13e>
 80049ec:	e791      	b.n	8004912 <sd_init+0x62>
		if (r & 0xfe) {
 80049ee:	2601      	movs	r6, #1
 80049f0:	43b5      	bics	r5, r6
 80049f2:	b2ea      	uxtb	r2, r5
 80049f4:	2a00      	cmp	r2, #0
 80049f6:	d193      	bne.n	8004920 <sd_init+0x70>
		spi_cs_low();
 80049f8:	2180      	movs	r1, #128	; 0x80
 80049fa:	0038      	movs	r0, r7
 80049fc:	0209      	lsls	r1, r1, #8
 80049fe:	f7fe fac5 	bl	8002f8c <HAL_GPIO_WritePin>
		sd_cmd(41, hcs);
 8004a02:	9901      	ldr	r1, [sp, #4]
 8004a04:	2029      	movs	r0, #41	; 0x29
 8004a06:	f7ff fe5b 	bl	80046c0 <sd_cmd>
		r = sd_get_r1();
 8004a0a:	f7ff fe91 	bl	8004730 <sd_get_r1>
 8004a0e:	0005      	movs	r5, r0
		sd_nec();
 8004a10:	f7ff fe9c 	bl	800474c <sd_nec>
		spi_cs_high();
 8004a14:	2180      	movs	r1, #128	; 0x80
 8004a16:	0032      	movs	r2, r6
 8004a18:	0038      	movs	r0, r7
 8004a1a:	0209      	lsls	r1, r1, #8
 8004a1c:	f7fe fab6 	bl	8002f8c <HAL_GPIO_WritePin>
		if (r == 0xff)
 8004a20:	2dff      	cmp	r5, #255	; 0xff
 8004a22:	d100      	bne.n	8004a26 <sd_init+0x176>
 8004a24:	e775      	b.n	8004912 <sd_init+0x62>
		if (r & 0xfe) {
 8004a26:	002b      	movs	r3, r5
 8004a28:	43b3      	bics	r3, r6
 8004a2a:	b2db      	uxtb	r3, r3
 8004a2c:	2b00      	cmp	r3, #0
 8004a2e:	d000      	beq.n	8004a32 <sd_init+0x182>
 8004a30:	e776      	b.n	8004920 <sd_init+0x70>
	} while (r != 0 && tries--);
 8004a32:	2d00      	cmp	r5, #0
 8004a34:	d023      	beq.n	8004a7e <sd_init+0x1ce>
 8004a36:	9b00      	ldr	r3, [sp, #0]
 8004a38:	3b01      	subs	r3, #1
 8004a3a:	9300      	str	r3, [sp, #0]
 8004a3c:	2b00      	cmp	r3, #0
 8004a3e:	d1be      	bne.n	80049be <sd_init+0x10e>
 8004a40:	e76e      	b.n	8004920 <sd_init+0x70>
		spi_cs_low();
 8004a42:	2180      	movs	r1, #128	; 0x80
 8004a44:	20a0      	movs	r0, #160	; 0xa0
 8004a46:	0209      	lsls	r1, r1, #8
 8004a48:	05c0      	lsls	r0, r0, #23
 8004a4a:	f7fe fa9f 	bl	8002f8c <HAL_GPIO_WritePin>
		sd_cmd(16, 512);
 8004a4e:	2180      	movs	r1, #128	; 0x80
 8004a50:	2010      	movs	r0, #16
 8004a52:	0089      	lsls	r1, r1, #2
 8004a54:	f7ff fe34 	bl	80046c0 <sd_cmd>
		r = sd_get_r1();
 8004a58:	f7ff fe6a 	bl	8004730 <sd_get_r1>
 8004a5c:	0004      	movs	r4, r0
		sd_nec();
 8004a5e:	f7ff fe75 	bl	800474c <sd_nec>
		spi_cs_high();
 8004a62:	2180      	movs	r1, #128	; 0x80
 8004a64:	20a0      	movs	r0, #160	; 0xa0
 8004a66:	2201      	movs	r2, #1
 8004a68:	0209      	lsls	r1, r1, #8
 8004a6a:	05c0      	lsls	r0, r0, #23
 8004a6c:	f7fe fa8e 	bl	8002f8c <HAL_GPIO_WritePin>
		if (r == 0xff)
 8004a70:	2cff      	cmp	r4, #255	; 0xff
 8004a72:	d100      	bne.n	8004a76 <sd_init+0x1c6>
 8004a74:	e74d      	b.n	8004912 <sd_init+0x62>
		if (r & 0xfe) {
 8004a76:	23fe      	movs	r3, #254	; 0xfe
 8004a78:	421c      	tst	r4, r3
 8004a7a:	d030      	beq.n	8004ade <sd_init+0x22e>
 8004a7c:	e750      	b.n	8004920 <sd_init+0x70>
	if (hw->capabilities & CAP_VER2_00) {
 8004a7e:	68e3      	ldr	r3, [r4, #12]
 8004a80:	4233      	tst	r3, r6
 8004a82:	d026      	beq.n	8004ad2 <sd_init+0x222>
		spi_cs_low();
 8004a84:	2180      	movs	r1, #128	; 0x80
 8004a86:	20a0      	movs	r0, #160	; 0xa0
 8004a88:	002a      	movs	r2, r5
 8004a8a:	0209      	lsls	r1, r1, #8
 8004a8c:	05c0      	lsls	r0, r0, #23
 8004a8e:	f7fe fa7d 	bl	8002f8c <HAL_GPIO_WritePin>
		sd_cmd(58, 0);
 8004a92:	0029      	movs	r1, r5
 8004a94:	203a      	movs	r0, #58	; 0x3a
 8004a96:	f7ff fe13 	bl	80046c0 <sd_cmd>
		r = sd_get_r3(&r3);
 8004a9a:	a803      	add	r0, sp, #12
 8004a9c:	f7ff fe5f 	bl	800475e <sd_get_r7>
 8004aa0:	0007      	movs	r7, r0
		sd_nec();
 8004aa2:	f7ff fe53 	bl	800474c <sd_nec>
		spi_cs_high();
 8004aa6:	2180      	movs	r1, #128	; 0x80
 8004aa8:	20a0      	movs	r0, #160	; 0xa0
 8004aaa:	0032      	movs	r2, r6
 8004aac:	0209      	lsls	r1, r1, #8
 8004aae:	05c0      	lsls	r0, r0, #23
 8004ab0:	f7fe fa6c 	bl	8002f8c <HAL_GPIO_WritePin>
		if (r == 0xff)
 8004ab4:	2fff      	cmp	r7, #255	; 0xff
 8004ab6:	d100      	bne.n	8004aba <sd_init+0x20a>
 8004ab8:	e72b      	b.n	8004912 <sd_init+0x62>
		if (r & 0xfe) {
 8004aba:	43b7      	bics	r7, r6
 8004abc:	b2ff      	uxtb	r7, r7
 8004abe:	2f00      	cmp	r7, #0
 8004ac0:	d000      	beq.n	8004ac4 <sd_init+0x214>
 8004ac2:	e72d      	b.n	8004920 <sd_init+0x70>
			if (r3>>30 & 1) {
 8004ac4:	9b03      	ldr	r3, [sp, #12]
				hw->capabilities |= CAP_SDHC;
 8004ac6:	68e2      	ldr	r2, [r4, #12]
			if (r3>>30 & 1) {
 8004ac8:	005b      	lsls	r3, r3, #1
 8004aca:	d502      	bpl.n	8004ad2 <sd_init+0x222>
				hw->capabilities |= CAP_SDHC;
 8004acc:	2302      	movs	r3, #2
 8004ace:	4313      	orrs	r3, r2
 8004ad0:	60e3      	str	r3, [r4, #12]
	if ((hw->capabilities & CAP_SDHC) == 0) {
 8004ad2:	68e1      	ldr	r1, [r4, #12]
 8004ad4:	2302      	movs	r3, #2
 8004ad6:	000a      	movs	r2, r1
 8004ad8:	401a      	ands	r2, r3
 8004ada:	4219      	tst	r1, r3
 8004adc:	d0b1      	beq.n	8004a42 <sd_init+0x192>
	spi_cs_low();
 8004ade:	2180      	movs	r1, #128	; 0x80
 8004ae0:	20a0      	movs	r0, #160	; 0xa0
 8004ae2:	2200      	movs	r2, #0
 8004ae4:	0209      	lsls	r1, r1, #8
 8004ae6:	05c0      	lsls	r0, r0, #23
 8004ae8:	f7fe fa50 	bl	8002f8c <HAL_GPIO_WritePin>
	sd_cmd(59, 0);
 8004aec:	2100      	movs	r1, #0
 8004aee:	203b      	movs	r0, #59	; 0x3b
 8004af0:	f7ff fde6 	bl	80046c0 <sd_cmd>
	r = sd_get_r1();
 8004af4:	f7ff fe1c 	bl	8004730 <sd_get_r1>
 8004af8:	0004      	movs	r4, r0
	sd_nec();
 8004afa:	f7ff fe27 	bl	800474c <sd_nec>
	spi_cs_high();
 8004afe:	2180      	movs	r1, #128	; 0x80
 8004b00:	20a0      	movs	r0, #160	; 0xa0
 8004b02:	2201      	movs	r2, #1
 8004b04:	0209      	lsls	r1, r1, #8
 8004b06:	05c0      	lsls	r0, r0, #23
 8004b08:	f7fe fa40 	bl	8002f8c <HAL_GPIO_WritePin>
	if (r == 0xff)
 8004b0c:	2cff      	cmp	r4, #255	; 0xff
 8004b0e:	d100      	bne.n	8004b12 <sd_init+0x262>
 8004b10:	e6ff      	b.n	8004912 <sd_init+0x62>
	if (r & 0xfe) {
 8004b12:	23fe      	movs	r3, #254	; 0xfe
 8004b14:	0022      	movs	r2, r4
 8004b16:	401a      	ands	r2, r3
 8004b18:	421c      	tst	r4, r3
 8004b1a:	d000      	beq.n	8004b1e <sd_init+0x26e>
 8004b1c:	e700      	b.n	8004920 <sd_init+0x70>
	FAT_SD_SPI.Init.BaudRatePrescaler = prescaler;
 8004b1e:	4802      	ldr	r0, [pc, #8]	; (8004b28 <sd_init+0x278>)
 8004b20:	61c2      	str	r2, [r0, #28]
	HAL_SPI_Init(&FAT_SD_SPI);
 8004b22:	f7fe ff09 	bl	8003938 <HAL_SPI_Init>
}
 8004b26:	e6f6      	b.n	8004916 <sd_init+0x66>
 8004b28:	20000190 	.word	0x20000190
 8004b2c:	000003e9 	.word	0x000003e9

08004b30 <hwif_init>:


/*** public API - on top of sd/spi code ***/

int hwif_init(hwif* hw)
{
 8004b30:	b57f      	push	{r0, r1, r2, r3, r4, r5, r6, lr}
	int tries = 10;

	if (hw->initialized)
		return 0;
 8004b32:	2500      	movs	r5, #0
	if (hw->initialized)
 8004b34:	6803      	ldr	r3, [r0, #0]
{
 8004b36:	0004      	movs	r4, r0
	if (hw->initialized)
 8004b38:	42ab      	cmp	r3, r5
 8004b3a:	d10a      	bne.n	8004b52 <hwif_init+0x22>
	FAT_SD_SPI.Init.BaudRatePrescaler = prescaler;
 8004b3c:	2320      	movs	r3, #32
 8004b3e:	4850      	ldr	r0, [pc, #320]	; (8004c80 <hwif_init+0x150>)
}
 8004b40:	260b      	movs	r6, #11
	FAT_SD_SPI.Init.BaudRatePrescaler = prescaler;
 8004b42:	61c3      	str	r3, [r0, #28]
	HAL_SPI_Init(&FAT_SD_SPI);
 8004b44:	f7fe fef8 	bl	8003938 <HAL_SPI_Init>

	spi_init();

	while (tries--) {
 8004b48:	3e01      	subs	r6, #1
 8004b4a:	2e00      	cmp	r6, #0
 8004b4c:	d104      	bne.n	8004b58 <hwif_init+0x28>
	/* read status register */
	sd_read_status(hw);

	sd_read_cid(hw);
	if (sd_read_csd(hw) != 0)
		return -1;
 8004b4e:	2501      	movs	r5, #1
 8004b50:	426d      	negs	r5, r5

	hw->initialized = 1;
	return 0;
}
 8004b52:	0028      	movs	r0, r5
 8004b54:	b004      	add	sp, #16
 8004b56:	bd70      	pop	{r4, r5, r6, pc}
		if (sd_init(hw) == 0)
 8004b58:	0020      	movs	r0, r4
 8004b5a:	f7ff fea9 	bl	80048b0 <sd_init>
 8004b5e:	1e05      	subs	r5, r0, #0
 8004b60:	d1f2      	bne.n	8004b48 <hwif_init+0x18>
	sd_read_status(hw);
 8004b62:	f7ff fe7f 	bl	8004864 <sd_read_status.constprop.0.isra.0>
	spi_cs_low();
 8004b66:	2180      	movs	r1, #128	; 0x80
 8004b68:	20a0      	movs	r0, #160	; 0xa0
 8004b6a:	002a      	movs	r2, r5
 8004b6c:	0209      	lsls	r1, r1, #8
 8004b6e:	05c0      	lsls	r0, r0, #23
 8004b70:	f7fe fa0c 	bl	8002f8c <HAL_GPIO_WritePin>
	sd_cmd(10, 0);
 8004b74:	0029      	movs	r1, r5
 8004b76:	200a      	movs	r0, #10
 8004b78:	f7ff fda2 	bl	80046c0 <sd_cmd>
	r = sd_get_r1();
 8004b7c:	f7ff fdd8 	bl	8004730 <sd_get_r1>
	if (r == 0xff) {
 8004b80:	28ff      	cmp	r0, #255	; 0xff
 8004b82:	d11d      	bne.n	8004bc0 <hwif_init+0x90>
		spi_cs_high();
 8004b84:	2201      	movs	r2, #1
	spi_cs_high();
 8004b86:	2180      	movs	r1, #128	; 0x80
 8004b88:	20a0      	movs	r0, #160	; 0xa0
 8004b8a:	0209      	lsls	r1, r1, #8
 8004b8c:	05c0      	lsls	r0, r0, #23
 8004b8e:	f7fe f9fd 	bl	8002f8c <HAL_GPIO_WritePin>
	spi_cs_low();
 8004b92:	2180      	movs	r1, #128	; 0x80
 8004b94:	20a0      	movs	r0, #160	; 0xa0
 8004b96:	2200      	movs	r2, #0
 8004b98:	0209      	lsls	r1, r1, #8
 8004b9a:	05c0      	lsls	r0, r0, #23
 8004b9c:	f7fe f9f6 	bl	8002f8c <HAL_GPIO_WritePin>
	sd_cmd(9, 0);
 8004ba0:	2100      	movs	r1, #0
 8004ba2:	2009      	movs	r0, #9
 8004ba4:	f7ff fd8c 	bl	80046c0 <sd_cmd>
	r = sd_get_r1();
 8004ba8:	f7ff fdc2 	bl	8004730 <sd_get_r1>
	if (r == 0xff) {
 8004bac:	28ff      	cmp	r0, #255	; 0xff
 8004bae:	d114      	bne.n	8004bda <hwif_init+0xaa>
		spi_cs_high();
 8004bb0:	2180      	movs	r1, #128	; 0x80
 8004bb2:	20a0      	movs	r0, #160	; 0xa0
 8004bb4:	2201      	movs	r2, #1
 8004bb6:	0209      	lsls	r1, r1, #8
 8004bb8:	05c0      	lsls	r0, r0, #23
 8004bba:	f7fe f9e7 	bl	8002f8c <HAL_GPIO_WritePin>
 8004bbe:	e7c6      	b.n	8004b4e <hwif_init+0x1e>
	if (r & 0xfe) {
 8004bc0:	2501      	movs	r5, #1
 8004bc2:	43a8      	bics	r0, r5
 8004bc4:	b2c0      	uxtb	r0, r0
 8004bc6:	2800      	cmp	r0, #0
 8004bc8:	d1dc      	bne.n	8004b84 <hwif_init+0x54>
	r = sd_get_data(hw, buf, 16);
 8004bca:	2110      	movs	r1, #16
 8004bcc:	4668      	mov	r0, sp
 8004bce:	f7ff fde3 	bl	8004798 <sd_get_data.constprop.0>
	sd_nec();
 8004bd2:	f7ff fdbb 	bl	800474c <sd_nec>
	spi_cs_high();
 8004bd6:	002a      	movs	r2, r5
 8004bd8:	e7d5      	b.n	8004b86 <hwif_init+0x56>
	if (r & 0xfe) {
 8004bda:	2601      	movs	r6, #1
 8004bdc:	43b0      	bics	r0, r6
 8004bde:	b2c0      	uxtb	r0, r0
 8004be0:	2800      	cmp	r0, #0
 8004be2:	d1e5      	bne.n	8004bb0 <hwif_init+0x80>
	r = sd_get_data(hw, buf, 16);
 8004be4:	2110      	movs	r1, #16
 8004be6:	4668      	mov	r0, sp
 8004be8:	f7ff fdd6 	bl	8004798 <sd_get_data.constprop.0>
 8004bec:	0005      	movs	r5, r0
	sd_nec();
 8004bee:	f7ff fdad 	bl	800474c <sd_nec>
	spi_cs_high();
 8004bf2:	2180      	movs	r1, #128	; 0x80
 8004bf4:	20a0      	movs	r0, #160	; 0xa0
 8004bf6:	0032      	movs	r2, r6
 8004bf8:	0209      	lsls	r1, r1, #8
 8004bfa:	05c0      	lsls	r0, r0, #23
 8004bfc:	f7fe f9c6 	bl	8002f8c <HAL_GPIO_WritePin>
	if (r == -1) {
 8004c00:	1c6b      	adds	r3, r5, #1
 8004c02:	d0a6      	beq.n	8004b52 <hwif_init+0x22>
	capacity = (((buf[6]&0x3)<<10 | buf[7]<<2 | buf[8]>>6)+1) << (2+(((buf[9]&3) << 1) | buf[10]>>7)) << ((buf[5] & 0xf) - 9);
 8004c04:	466b      	mov	r3, sp
 8004c06:	7a99      	ldrb	r1, [r3, #10]
 8004c08:	79da      	ldrb	r2, [r3, #7]
 8004c0a:	7a1e      	ldrb	r6, [r3, #8]
 8004c0c:	7a58      	ldrb	r0, [r3, #9]
	if ((buf[0] >> 6) + 1 == 1) {
 8004c0e:	781b      	ldrb	r3, [r3, #0]
 8004c10:	099b      	lsrs	r3, r3, #6
 8004c12:	d12a      	bne.n	8004c6a <hwif_init+0x13a>
	capacity = (((buf[6]&0x3)<<10 | buf[7]<<2 | buf[8]>>6)+1) << (2+(((buf[9]&3) << 1) | buf[10]>>7)) << ((buf[5] & 0xf) - 9);
 8004c14:	466b      	mov	r3, sp
 8004c16:	799d      	ldrb	r5, [r3, #6]
 8004c18:	23c0      	movs	r3, #192	; 0xc0
 8004c1a:	02ad      	lsls	r5, r5, #10
 8004c1c:	011b      	lsls	r3, r3, #4
 8004c1e:	0092      	lsls	r2, r2, #2
 8004c20:	09b6      	lsrs	r6, r6, #6
 8004c22:	401d      	ands	r5, r3
 8004c24:	4332      	orrs	r2, r6
 8004c26:	432a      	orrs	r2, r5
 8004c28:	1c53      	adds	r3, r2, #1
 8004c2a:	2206      	movs	r2, #6
 8004c2c:	0040      	lsls	r0, r0, #1
 8004c2e:	4010      	ands	r0, r2
 8004c30:	09ca      	lsrs	r2, r1, #7
 8004c32:	4310      	orrs	r0, r2
 8004c34:	466a      	mov	r2, sp
 8004c36:	3002      	adds	r0, #2
 8004c38:	4083      	lsls	r3, r0
 8004c3a:	200f      	movs	r0, #15
 8004c3c:	7952      	ldrb	r2, [r2, #5]
 8004c3e:	4002      	ands	r2, r0
 8004c40:	3a09      	subs	r2, #9
 8004c42:	4093      	lsls	r3, r2
	hw->sectors = capacity;
 8004c44:	6063      	str	r3, [r4, #4]
	hw->erase_sectors = 1;
 8004c46:	2301      	movs	r3, #1
	if (((buf[10]>>6)&1) == 0)
 8004c48:	098a      	lsrs	r2, r1, #6
	hw->erase_sectors = 1;
 8004c4a:	60a3      	str	r3, [r4, #8]
	if (((buf[10]>>6)&1) == 0)
 8004c4c:	421a      	tst	r2, r3
 8004c4e:	d108      	bne.n	8004c62 <hwif_init+0x132>
		hw->erase_sectors = ((buf[10]&0x3f)<<1 | buf[11]>>7) + 1;
 8004c50:	4099      	lsls	r1, r3
 8004c52:	337d      	adds	r3, #125	; 0x7d
 8004c54:	4019      	ands	r1, r3
 8004c56:	466b      	mov	r3, sp
 8004c58:	7adb      	ldrb	r3, [r3, #11]
 8004c5a:	09db      	lsrs	r3, r3, #7
 8004c5c:	4319      	orrs	r1, r3
 8004c5e:	3101      	adds	r1, #1
 8004c60:	60a1      	str	r1, [r4, #8]
	hw->initialized = 1;
 8004c62:	2301      	movs	r3, #1
	return 0;
 8004c64:	2500      	movs	r5, #0
	hw->initialized = 1;
 8004c66:	6023      	str	r3, [r4, #0]
	return 0;
 8004c68:	e773      	b.n	8004b52 <hwif_init+0x22>
		hw->capabilities |= CAP_SDHC;
 8004c6a:	2302      	movs	r3, #2
 8004c6c:	68e5      	ldr	r5, [r4, #12]
	capacity = buf[7]<<16 | buf[8]<<8 | buf[9]; /* in 512 kB */
 8004c6e:	0236      	lsls	r6, r6, #8
		hw->capabilities |= CAP_SDHC;
 8004c70:	432b      	orrs	r3, r5
 8004c72:	60e3      	str	r3, [r4, #12]
	capacity = buf[7]<<16 | buf[8]<<8 | buf[9]; /* in 512 kB */
 8004c74:	0413      	lsls	r3, r2, #16
 8004c76:	4333      	orrs	r3, r6
 8004c78:	4303      	orrs	r3, r0
	capacity *= 1024; /* in 512 B sectors */
 8004c7a:	029b      	lsls	r3, r3, #10
 8004c7c:	e7e2      	b.n	8004c44 <hwif_init+0x114>
 8004c7e:	46c0      	nop			; (mov r8, r8)
 8004c80:	20000190 	.word	0x20000190

08004c84 <sd_read>:

int sd_read(hwif* hw, uint32_t address, uint8_t *buf)
{
 8004c84:	b5f7      	push	{r0, r1, r2, r4, r5, r6, r7, lr}
 8004c86:	0005      	movs	r5, r0
 8004c88:	000e      	movs	r6, r1
 8004c8a:	0017      	movs	r7, r2
	int r;
	int tries = 10;

	r = sd_readsector(hw, address, buf);
 8004c8c:	f7ff fda6 	bl	80047dc <sd_readsector>

	while (r < 0 && tries--) {
 8004c90:	230b      	movs	r3, #11
	r = sd_readsector(hw, address, buf);
 8004c92:	0004      	movs	r4, r0
	while (r < 0 && tries--) {
 8004c94:	9301      	str	r3, [sp, #4]
 8004c96:	2c00      	cmp	r4, #0
 8004c98:	da04      	bge.n	8004ca4 <sd_read+0x20>
 8004c9a:	9b01      	ldr	r3, [sp, #4]
 8004c9c:	3b01      	subs	r3, #1
 8004c9e:	9301      	str	r3, [sp, #4]
 8004ca0:	2b00      	cmp	r3, #0
 8004ca2:	d101      	bne.n	8004ca8 <sd_read+0x24>
		r = sd_readsector(hw, address, buf);
	}
	if (tries == -1)

	return r;
}
 8004ca4:	0020      	movs	r0, r4
 8004ca6:	bdfe      	pop	{r1, r2, r3, r4, r5, r6, r7, pc}
		if (sd_init(hw) != 0)
 8004ca8:	0028      	movs	r0, r5
 8004caa:	f7ff fe01 	bl	80048b0 <sd_init>
 8004cae:	2800      	cmp	r0, #0
 8004cb0:	d1f1      	bne.n	8004c96 <sd_read+0x12>
		sd_read_status(hw);
 8004cb2:	f7ff fdd7 	bl	8004864 <sd_read_status.constprop.0.isra.0>
		r = sd_readsector(hw, address, buf);
 8004cb6:	003a      	movs	r2, r7
 8004cb8:	0031      	movs	r1, r6
 8004cba:	0028      	movs	r0, r5
 8004cbc:	f7ff fd8e 	bl	80047dc <sd_readsector>
 8004cc0:	0004      	movs	r4, r0
 8004cc2:	e7e8      	b.n	8004c96 <sd_read+0x12>

08004cc4 <HAL_SPI_RxCpltCallback>:

	return r;
}

void HAL_SPI_RxCpltCallback(SPI_HandleTypeDef* hspi) {
    dma_complete = 1;
 8004cc4:	2201      	movs	r2, #1
 8004cc6:	4b01      	ldr	r3, [pc, #4]	; (8004ccc <HAL_SPI_RxCpltCallback+0x8>)
 8004cc8:	701a      	strb	r2, [r3, #0]
	return;
}
 8004cca:	4770      	bx	lr
 8004ccc:	20000ca4 	.word	0x20000ca4

08004cd0 <get_ldnumber>:
	char c;
	TCHAR tc;
#endif


	if (*path) {	/* If the pointer is not a null */
 8004cd0:	6802      	ldr	r2, [r0, #0]
 8004cd2:	1e13      	subs	r3, r2, #0
 8004cd4:	d103      	bne.n	8004cde <get_ldnumber+0xe>
	int vol = -1;
 8004cd6:	2001      	movs	r0, #1
 8004cd8:	4240      	negs	r0, r0
 8004cda:	e00e      	b.n	8004cfa <get_ldnumber+0x2a>
		for (tt = *path; (UINT)*tt >= (_USE_LFN ? ' ' : '!') && *tt != ':'; tt++) ;	/* Find ':' in the path */
 8004cdc:	3301      	adds	r3, #1
 8004cde:	7819      	ldrb	r1, [r3, #0]
 8004ce0:	291f      	cmp	r1, #31
 8004ce2:	d909      	bls.n	8004cf8 <get_ldnumber+0x28>
 8004ce4:	293a      	cmp	r1, #58	; 0x3a
 8004ce6:	d1f9      	bne.n	8004cdc <get_ldnumber+0xc>
		if (*tt == ':') {	/* If a ':' is exist in the path name */
			tp = *path;
			i = *tp++ - '0'; 
 8004ce8:	1c51      	adds	r1, r2, #1
			if (i < 10 && tp == tt) {	/* Is there a numeric drive id? */
 8004cea:	428b      	cmp	r3, r1
 8004cec:	d1f3      	bne.n	8004cd6 <get_ldnumber+0x6>
				if (i < _VOLUMES) {	/* If a drive id is found, get the value and strip it */
 8004cee:	7812      	ldrb	r2, [r2, #0]
 8004cf0:	2a30      	cmp	r2, #48	; 0x30
 8004cf2:	d1f0      	bne.n	8004cd6 <get_ldnumber+0x6>
					vol = (int)i;
					*path = ++tt;
 8004cf4:	3301      	adds	r3, #1
 8004cf6:	6003      	str	r3, [r0, #0]
			return vol;
		}
#if _FS_RPATH && _VOLUMES >= 2
		vol = CurrVol;	/* Current drive */
#else
		vol = 0;		/* Drive 0 */
 8004cf8:	2000      	movs	r0, #0
#endif
	}
	return vol;
}
 8004cfa:	4770      	bx	lr

08004cfc <move_window>:
	if (sector != fs->winsect) {	/* Window offset changed? */
 8004cfc:	6a43      	ldr	r3, [r0, #36]	; 0x24
{
 8004cfe:	b570      	push	{r4, r5, r6, lr}
 8004d00:	0004      	movs	r4, r0
 8004d02:	000d      	movs	r5, r1
	FRESULT res = FR_OK;
 8004d04:	2000      	movs	r0, #0
	if (sector != fs->winsect) {	/* Window offset changed? */
 8004d06:	428b      	cmp	r3, r1
 8004d08:	d00c      	beq.n	8004d24 <move_window+0x28>
			if (disk_read(fs->drv, fs->win, sector, 1) != RES_OK) {
 8004d0a:	000a      	movs	r2, r1
 8004d0c:	0021      	movs	r1, r4
 8004d0e:	2301      	movs	r3, #1
 8004d10:	7860      	ldrb	r0, [r4, #1]
 8004d12:	3128      	adds	r1, #40	; 0x28
 8004d14:	f7ff fc96 	bl	8004644 <disk_read>
 8004d18:	2800      	cmp	r0, #0
 8004d1a:	d002      	beq.n	8004d22 <move_window+0x26>
				sector = 0xFFFFFFFF;	/* Invalidate window if data is not reliable */
 8004d1c:	2501      	movs	r5, #1
				res = FR_DISK_ERR;
 8004d1e:	2001      	movs	r0, #1
				sector = 0xFFFFFFFF;	/* Invalidate window if data is not reliable */
 8004d20:	426d      	negs	r5, r5
			fs->winsect = sector;
 8004d22:	6265      	str	r5, [r4, #36]	; 0x24
}
 8004d24:	bd70      	pop	{r4, r5, r6, pc}
	...

08004d28 <check_fs>:
BYTE check_fs (	/* 0:Valid FAT-BS, 1:Valid BS but not FAT, 2:Not a BS, 3:Disk error */
	FATFS* fs,	/* File system object */
	DWORD sect	/* Sector# (lba) to check if it is an FAT boot record or not */
)
{
	fs->wflag = 0; fs->winsect = 0xFFFFFFFF;	/* Invaidate window */
 8004d28:	2300      	movs	r3, #0
{
 8004d2a:	b510      	push	{r4, lr}
	fs->wflag = 0; fs->winsect = 0xFFFFFFFF;	/* Invaidate window */
 8004d2c:	7103      	strb	r3, [r0, #4]
 8004d2e:	3b01      	subs	r3, #1
 8004d30:	6243      	str	r3, [r0, #36]	; 0x24
{
 8004d32:	0004      	movs	r4, r0
	if (move_window(fs, sect) != FR_OK)			/* Load boot record */
 8004d34:	f7ff ffe2 	bl	8004cfc <move_window>
 8004d38:	2800      	cmp	r0, #0
 8004d3a:	d11c      	bne.n	8004d76 <check_fs+0x4e>
		return 3;

	if (LD_WORD(&fs->win[BS_55AA]) != 0xAA55)	/* Check boot record signature (always placed at offset 510 even if the sector size is >512) */
 8004d3c:	4b10      	ldr	r3, [pc, #64]	; (8004d80 <check_fs+0x58>)
 8004d3e:	5ae2      	ldrh	r2, [r4, r3]
 8004d40:	4b10      	ldr	r3, [pc, #64]	; (8004d84 <check_fs+0x5c>)
 8004d42:	429a      	cmp	r2, r3
 8004d44:	d119      	bne.n	8004d7a <check_fs+0x52>
		return 2;

	if ((LD_DWORD(&fs->win[BS_FilSysType]) & 0xFFFFFF) == 0x544146)		/* Check "FAT" string */
 8004d46:	0023      	movs	r3, r4
 8004d48:	335e      	adds	r3, #94	; 0x5e
 8004d4a:	881a      	ldrh	r2, [r3, #0]
 8004d4c:	885b      	ldrh	r3, [r3, #2]
 8004d4e:	041b      	lsls	r3, r3, #16
 8004d50:	4313      	orrs	r3, r2
 8004d52:	4a0d      	ldr	r2, [pc, #52]	; (8004d88 <check_fs+0x60>)
 8004d54:	021b      	lsls	r3, r3, #8
 8004d56:	0a1b      	lsrs	r3, r3, #8
 8004d58:	4293      	cmp	r3, r2
 8004d5a:	d00b      	beq.n	8004d74 <check_fs+0x4c>
		return 0;
	if ((LD_DWORD(&fs->win[BS_FilSysType32]) & 0xFFFFFF) == 0x544146)	/* Check "FAT" string */
 8004d5c:	347a      	adds	r4, #122	; 0x7a
 8004d5e:	8860      	ldrh	r0, [r4, #2]
 8004d60:	8823      	ldrh	r3, [r4, #0]
 8004d62:	0400      	lsls	r0, r0, #16
 8004d64:	4318      	orrs	r0, r3
 8004d66:	0200      	lsls	r0, r0, #8
 8004d68:	4b08      	ldr	r3, [pc, #32]	; (8004d8c <check_fs+0x64>)
 8004d6a:	0a00      	lsrs	r0, r0, #8
 8004d6c:	18c0      	adds	r0, r0, r3
 8004d6e:	1e43      	subs	r3, r0, #1
 8004d70:	4198      	sbcs	r0, r3
		return 3;
 8004d72:	b2c0      	uxtb	r0, r0
		return 0;

	return 1;
}
 8004d74:	bd10      	pop	{r4, pc}
		return 3;
 8004d76:	2003      	movs	r0, #3
 8004d78:	e7fc      	b.n	8004d74 <check_fs+0x4c>
		return 2;
 8004d7a:	2002      	movs	r0, #2
 8004d7c:	e7fa      	b.n	8004d74 <check_fs+0x4c>
 8004d7e:	46c0      	nop			; (mov r8, r8)
 8004d80:	00000226 	.word	0x00000226
 8004d84:	0000aa55 	.word	0x0000aa55
 8004d88:	00544146 	.word	0x00544146
 8004d8c:	ffabbeba 	.word	0xffabbeba

08004d90 <find_volume.constprop.0>:
/*-----------------------------------------------------------------------*/
/* Find logical drive and check if the volume is mounted                 */
/*-----------------------------------------------------------------------*/

static
FRESULT find_volume (	/* FR_OK(0): successful, !=0: any error occurred */
 8004d90:	b5f0      	push	{r4, r5, r6, r7, lr}
	FATFS *fs;
	UINT i;


	/* Get logical drive number from the path name */
	*rfs = 0;
 8004d92:	2300      	movs	r3, #0
FRESULT find_volume (	/* FR_OK(0): successful, !=0: any error occurred */
 8004d94:	0007      	movs	r7, r0
 8004d96:	b08b      	sub	sp, #44	; 0x2c
 8004d98:	0008      	movs	r0, r1
	*rfs = 0;
 8004d9a:	603b      	str	r3, [r7, #0]
	vol = get_ldnumber(path);
 8004d9c:	f7ff ff98 	bl	8004cd0 <get_ldnumber>
	if (vol < 0) return FR_INVALID_DRIVE;
 8004da0:	250b      	movs	r5, #11
	vol = get_ldnumber(path);
 8004da2:	1e06      	subs	r6, r0, #0
	if (vol < 0) return FR_INVALID_DRIVE;
 8004da4:	db15      	blt.n	8004dd2 <find_volume.constprop.0+0x42>

	/* Check if the file system object is valid or not */
	fs = FatFs[vol];					/* Get pointer to the file system object */
 8004da6:	4b6f      	ldr	r3, [pc, #444]	; (8004f64 <find_volume.constprop.0+0x1d4>)
 8004da8:	0082      	lsls	r2, r0, #2
 8004daa:	58d4      	ldr	r4, [r2, r3]
	if (!fs) return FR_NOT_ENABLED;		/* Is the file system object available? */
 8004dac:	3501      	adds	r5, #1
 8004dae:	2c00      	cmp	r4, #0
 8004db0:	d00f      	beq.n	8004dd2 <find_volume.constprop.0+0x42>

	ENTER_FF(fs);						/* Lock the volume */
	*rfs = fs;							/* Return pointer to the file system object */

	if (fs->fs_type) {					/* If the volume has been mounted */
 8004db2:	7823      	ldrb	r3, [r4, #0]
	*rfs = fs;							/* Return pointer to the file system object */
 8004db4:	603c      	str	r4, [r7, #0]
	if (fs->fs_type) {					/* If the volume has been mounted */
 8004db6:	2b00      	cmp	r3, #0
 8004db8:	d10e      	bne.n	8004dd8 <find_volume.constprop.0+0x48>
	}

	/* The file system object is not valid. */
	/* Following code attempts to mount the volume. (analyze BPB and initialize the fs object) */

	fs->fs_type = 0;					/* Clear the file system object */
 8004dba:	2300      	movs	r3, #0
	fs->drv = LD2PD(vol);				/* Bind the logical drive and a physical drive */
 8004dbc:	b2f0      	uxtb	r0, r6
	fs->fs_type = 0;					/* Clear the file system object */
 8004dbe:	7023      	strb	r3, [r4, #0]
	fs->drv = LD2PD(vol);				/* Bind the logical drive and a physical drive */
 8004dc0:	7060      	strb	r0, [r4, #1]
	stat = disk_initialize(fs->drv);	/* Initialize the physical drive */
 8004dc2:	f7ff fc35 	bl	8004630 <disk_initialize>
	if (stat & STA_NOINIT)				/* Check if the initialization succeeded */
 8004dc6:	2601      	movs	r6, #1
 8004dc8:	0007      	movs	r7, r0
		return FR_NOT_READY;			/* Failed to initialize due to no medium or hard error */
 8004dca:	2503      	movs	r5, #3
 8004dcc:	4037      	ands	r7, r6
	if (stat & STA_NOINIT)				/* Check if the initialization succeeded */
 8004dce:	4230      	tst	r0, r6
 8004dd0:	d00b      	beq.n	8004dea <find_volume.constprop.0+0x5a>
#if _FS_LOCK			/* Clear file lock semaphores */
	clear_lock(fs);
#endif

	return FR_OK;
}
 8004dd2:	0028      	movs	r0, r5
 8004dd4:	b00b      	add	sp, #44	; 0x2c
 8004dd6:	bdf0      	pop	{r4, r5, r6, r7, pc}
		stat = disk_status(fs->drv);
 8004dd8:	7860      	ldrb	r0, [r4, #1]
 8004dda:	f7ff fc21 	bl	8004620 <disk_status>
		if (!(stat & STA_NOINIT)) {		/* and the physical drive is kept initialized */
 8004dde:	2301      	movs	r3, #1
 8004de0:	0005      	movs	r5, r0
 8004de2:	401d      	ands	r5, r3
 8004de4:	4218      	tst	r0, r3
 8004de6:	d1e8      	bne.n	8004dba <find_volume.constprop.0+0x2a>
 8004de8:	e7f3      	b.n	8004dd2 <find_volume.constprop.0+0x42>
	fmt = check_fs(fs, bsect);					/* Load sector 0 and check if it is an FAT boot sector as SFD */
 8004dea:	0039      	movs	r1, r7
 8004dec:	0020      	movs	r0, r4
 8004dee:	f7ff ff9b 	bl	8004d28 <check_fs>
 8004df2:	0005      	movs	r5, r0
	if (fmt == 1 || (!fmt && (LD2PT(vol)))) {	/* Not an FAT boot sector or forced partition number */
 8004df4:	2801      	cmp	r0, #1
 8004df6:	d12c      	bne.n	8004e52 <find_volume.constprop.0+0xc2>
 8004df8:	0023      	movs	r3, r4
 8004dfa:	4a5b      	ldr	r2, [pc, #364]	; (8004f68 <find_volume.constprop.0+0x1d8>)
 8004dfc:	33e7      	adds	r3, #231	; 0xe7
 8004dfe:	a906      	add	r1, sp, #24
 8004e00:	33ff      	adds	r3, #255	; 0xff
 8004e02:	18a0      	adds	r0, r4, r2
			br[i] = pt[4] ? LD_DWORD(&pt[8]) : 0;
 8004e04:	2200      	movs	r2, #0
 8004e06:	791e      	ldrb	r6, [r3, #4]
 8004e08:	4296      	cmp	r6, r2
 8004e0a:	d009      	beq.n	8004e20 <find_volume.constprop.0+0x90>
 8004e0c:	7a5a      	ldrb	r2, [r3, #9]
 8004e0e:	7a1e      	ldrb	r6, [r3, #8]
 8004e10:	0212      	lsls	r2, r2, #8
 8004e12:	4332      	orrs	r2, r6
 8004e14:	7a9e      	ldrb	r6, [r3, #10]
 8004e16:	0436      	lsls	r6, r6, #16
 8004e18:	4316      	orrs	r6, r2
 8004e1a:	7ada      	ldrb	r2, [r3, #11]
 8004e1c:	0612      	lsls	r2, r2, #24
 8004e1e:	4332      	orrs	r2, r6
		for (i = 0; i < 4; i++) {			/* Get partition offset */
 8004e20:	3310      	adds	r3, #16
			br[i] = pt[4] ? LD_DWORD(&pt[8]) : 0;
 8004e22:	c104      	stmia	r1!, {r2}
		for (i = 0; i < 4; i++) {			/* Get partition offset */
 8004e24:	4283      	cmp	r3, r0
 8004e26:	d1ed      	bne.n	8004e04 <find_volume.constprop.0+0x74>
 8004e28:	2600      	movs	r6, #0
			fmt = bsect ? check_fs(fs, bsect) : 2;	/* Check the partition */
 8004e2a:	2702      	movs	r7, #2
			bsect = br[i];
 8004e2c:	00b3      	lsls	r3, r6, #2
 8004e2e:	aa06      	add	r2, sp, #24
 8004e30:	58d3      	ldr	r3, [r2, r3]
			fmt = bsect ? check_fs(fs, bsect) : 2;	/* Check the partition */
 8004e32:	0038      	movs	r0, r7
			bsect = br[i];
 8004e34:	9301      	str	r3, [sp, #4]
			fmt = bsect ? check_fs(fs, bsect) : 2;	/* Check the partition */
 8004e36:	2b00      	cmp	r3, #0
 8004e38:	d005      	beq.n	8004e46 <find_volume.constprop.0+0xb6>
 8004e3a:	0019      	movs	r1, r3
 8004e3c:	0020      	movs	r0, r4
 8004e3e:	f7ff ff73 	bl	8004d28 <check_fs>
		} while (!LD2PT(vol) && fmt && ++i < 4);
 8004e42:	2800      	cmp	r0, #0
 8004e44:	d00d      	beq.n	8004e62 <find_volume.constprop.0+0xd2>
 8004e46:	3601      	adds	r6, #1
 8004e48:	2e04      	cmp	r6, #4
 8004e4a:	d1ef      	bne.n	8004e2c <find_volume.constprop.0+0x9c>
	if (fmt == 3) return FR_DISK_ERR;		/* An error occured in the disk I/O layer */
 8004e4c:	2803      	cmp	r0, #3
 8004e4e:	d106      	bne.n	8004e5e <find_volume.constprop.0+0xce>
 8004e50:	e7bf      	b.n	8004dd2 <find_volume.constprop.0+0x42>
 8004e52:	2803      	cmp	r0, #3
 8004e54:	d100      	bne.n	8004e58 <find_volume.constprop.0+0xc8>
 8004e56:	e083      	b.n	8004f60 <find_volume.constprop.0+0x1d0>
	bsect = 0;
 8004e58:	9701      	str	r7, [sp, #4]
	if (fmt) return FR_NO_FILESYSTEM;		/* No FAT volume is found */
 8004e5a:	2800      	cmp	r0, #0
 8004e5c:	d001      	beq.n	8004e62 <find_volume.constprop.0+0xd2>
 8004e5e:	250d      	movs	r5, #13
 8004e60:	e7b7      	b.n	8004dd2 <find_volume.constprop.0+0x42>
	if (LD_WORD(fs->win + BPB_BytsPerSec) != SS(fs))	/* (BPB_BytsPerSec must be equal to the physical sector size) */
 8004e62:	0023      	movs	r3, r4
 8004e64:	2280      	movs	r2, #128	; 0x80
 8004e66:	3333      	adds	r3, #51	; 0x33
 8004e68:	7819      	ldrb	r1, [r3, #0]
 8004e6a:	785b      	ldrb	r3, [r3, #1]
 8004e6c:	0092      	lsls	r2, r2, #2
 8004e6e:	021b      	lsls	r3, r3, #8
 8004e70:	430b      	orrs	r3, r1
 8004e72:	4293      	cmp	r3, r2
 8004e74:	d1f3      	bne.n	8004e5e <find_volume.constprop.0+0xce>
	fasize = LD_WORD(fs->win + BPB_FATSz16);			/* Number of sectors per FAT */
 8004e76:	8fe7      	ldrh	r7, [r4, #62]	; 0x3e
	if (!fasize) fasize = LD_DWORD(fs->win + BPB_FATSz32);
 8004e78:	2f00      	cmp	r7, #0
 8004e7a:	d100      	bne.n	8004e7e <find_volume.constprop.0+0xee>
 8004e7c:	6ce7      	ldr	r7, [r4, #76]	; 0x4c
	fs->n_fats = fs->win[BPB_NumFATs];					/* Number of FAT copies */
 8004e7e:	0023      	movs	r3, r4
	fs->fsize = fasize;
 8004e80:	6127      	str	r7, [r4, #16]
	fs->n_fats = fs->win[BPB_NumFATs];					/* Number of FAT copies */
 8004e82:	3338      	adds	r3, #56	; 0x38
 8004e84:	781a      	ldrb	r2, [r3, #0]
	if (fs->n_fats != 1 && fs->n_fats != 2)				/* (Must be 1 or 2) */
 8004e86:	1e53      	subs	r3, r2, #1
	fs->n_fats = fs->win[BPB_NumFATs];					/* Number of FAT copies */
 8004e88:	70e2      	strb	r2, [r4, #3]
	if (fs->n_fats != 1 && fs->n_fats != 2)				/* (Must be 1 or 2) */
 8004e8a:	2b01      	cmp	r3, #1
 8004e8c:	d8e7      	bhi.n	8004e5e <find_volume.constprop.0+0xce>
	fs->csize = fs->win[BPB_SecPerClus];				/* Number of sectors per cluster */
 8004e8e:	0023      	movs	r3, r4
 8004e90:	3335      	adds	r3, #53	; 0x35
 8004e92:	781e      	ldrb	r6, [r3, #0]
 8004e94:	70a6      	strb	r6, [r4, #2]
	if (!fs->csize || (fs->csize & (fs->csize - 1)))	/* (Must be power of 2) */
 8004e96:	2e00      	cmp	r6, #0
 8004e98:	d0e1      	beq.n	8004e5e <find_volume.constprop.0+0xce>
 8004e9a:	1e73      	subs	r3, r6, #1
 8004e9c:	421e      	tst	r6, r3
 8004e9e:	d1de      	bne.n	8004e5e <find_volume.constprop.0+0xce>
	fs->n_rootdir = LD_WORD(fs->win + BPB_RootEntCnt);	/* Number of root directory entries */
 8004ea0:	0023      	movs	r3, r4
 8004ea2:	3339      	adds	r3, #57	; 0x39
 8004ea4:	785d      	ldrb	r5, [r3, #1]
 8004ea6:	7819      	ldrb	r1, [r3, #0]
 8004ea8:	022d      	lsls	r5, r5, #8
 8004eaa:	430d      	orrs	r5, r1
 8004eac:	8125      	strh	r5, [r4, #8]
	if (fs->n_rootdir % (SS(fs) / SZ_DIRE))				/* (Must be sector aligned) */
 8004eae:	072b      	lsls	r3, r5, #28
 8004eb0:	d1d5      	bne.n	8004e5e <find_volume.constprop.0+0xce>
	tsect = LD_WORD(fs->win + BPB_TotSec16);			/* Number of sectors on the volume */
 8004eb2:	0023      	movs	r3, r4
 8004eb4:	333b      	adds	r3, #59	; 0x3b
 8004eb6:	7819      	ldrb	r1, [r3, #0]
 8004eb8:	785b      	ldrb	r3, [r3, #1]
 8004eba:	021b      	lsls	r3, r3, #8
 8004ebc:	430b      	orrs	r3, r1
	if (!tsect) tsect = LD_DWORD(fs->win + BPB_TotSec32);
 8004ebe:	d100      	bne.n	8004ec2 <find_volume.constprop.0+0x132>
 8004ec0:	6ca3      	ldr	r3, [r4, #72]	; 0x48
	nrsv = LD_WORD(fs->win + BPB_RsvdSecCnt);			/* Number of reserved sectors */
 8004ec2:	8ee1      	ldrh	r1, [r4, #54]	; 0x36
 8004ec4:	9102      	str	r1, [sp, #8]
	if (!nrsv) return FR_NO_FILESYSTEM;					/* (Must not be 0) */
 8004ec6:	2900      	cmp	r1, #0
 8004ec8:	d0c9      	beq.n	8004e5e <find_volume.constprop.0+0xce>
	fasize *= fs->n_fats;								/* Number of sectors for FAT area */
 8004eca:	437a      	muls	r2, r7
 8004ecc:	9204      	str	r2, [sp, #16]
	sysect = nrsv + fasize + fs->n_rootdir / (SS(fs) / SZ_DIRE);	/* RSV + FAT + DIR */
 8004ece:	092a      	lsrs	r2, r5, #4
 8004ed0:	1852      	adds	r2, r2, r1
 8004ed2:	9904      	ldr	r1, [sp, #16]
 8004ed4:	1852      	adds	r2, r2, r1
 8004ed6:	9203      	str	r2, [sp, #12]
	if (tsect < sysect) return FR_NO_FILESYSTEM;		/* (Invalid volume size) */
 8004ed8:	429a      	cmp	r2, r3
 8004eda:	d8c0      	bhi.n	8004e5e <find_volume.constprop.0+0xce>
	nclst = (tsect - sysect) / fs->csize;				/* Number of clusters */
 8004edc:	1a9b      	subs	r3, r3, r2
 8004ede:	0018      	movs	r0, r3
 8004ee0:	0031      	movs	r1, r6
 8004ee2:	9305      	str	r3, [sp, #20]
 8004ee4:	f7fb f910 	bl	8000108 <__udivsi3>
	if (!nclst) return FR_NO_FILESYSTEM;				/* (Invalid volume size) */
 8004ee8:	9b05      	ldr	r3, [sp, #20]
	nclst = (tsect - sysect) / fs->csize;				/* Number of clusters */
 8004eea:	0002      	movs	r2, r0
	if (!nclst) return FR_NO_FILESYSTEM;				/* (Invalid volume size) */
 8004eec:	42b3      	cmp	r3, r6
 8004eee:	d3b6      	bcc.n	8004e5e <find_volume.constprop.0+0xce>
	if (nclst >= MIN_FAT16) fmt = FS_FAT16;
 8004ef0:	491e      	ldr	r1, [pc, #120]	; (8004f6c <find_volume.constprop.0+0x1dc>)
	fmt = FS_FAT12;
 8004ef2:	2301      	movs	r3, #1
	if (nclst >= MIN_FAT16) fmt = FS_FAT16;
 8004ef4:	4288      	cmp	r0, r1
 8004ef6:	d904      	bls.n	8004f02 <find_volume.constprop.0+0x172>
	if (nclst >= MIN_FAT32) fmt = FS_FAT32;
 8004ef8:	4b1d      	ldr	r3, [pc, #116]	; (8004f70 <find_volume.constprop.0+0x1e0>)
 8004efa:	4283      	cmp	r3, r0
 8004efc:	419b      	sbcs	r3, r3
 8004efe:	425b      	negs	r3, r3
 8004f00:	3302      	adds	r3, #2
	fs->fatbase = bsect + nrsv; 						/* FAT start sector */
 8004f02:	9801      	ldr	r0, [sp, #4]
	fs->volbase = bsect;								/* Volume start sector */
 8004f04:	9901      	ldr	r1, [sp, #4]
	fs->fatbase = bsect + nrsv; 						/* FAT start sector */
 8004f06:	4684      	mov	ip, r0
	fs->volbase = bsect;								/* Volume start sector */
 8004f08:	6161      	str	r1, [r4, #20]
	fs->database = bsect + sysect;						/* Data start sector */
 8004f0a:	9803      	ldr	r0, [sp, #12]
	fs->fatbase = bsect + nrsv; 						/* FAT start sector */
 8004f0c:	9902      	ldr	r1, [sp, #8]
	fs->n_fatent = nclst + 2;							/* Number of FAT entries */
 8004f0e:	3202      	adds	r2, #2
	fs->fatbase = bsect + nrsv; 						/* FAT start sector */
 8004f10:	4461      	add	r1, ip
	fs->database = bsect + sysect;						/* Data start sector */
 8004f12:	4460      	add	r0, ip
	fs->n_fatent = nclst + 2;							/* Number of FAT entries */
 8004f14:	60e2      	str	r2, [r4, #12]
	fs->fatbase = bsect + nrsv; 						/* FAT start sector */
 8004f16:	61a1      	str	r1, [r4, #24]
	fs->database = bsect + sysect;						/* Data start sector */
 8004f18:	6220      	str	r0, [r4, #32]
	if (fmt == FS_FAT32) {
 8004f1a:	2b03      	cmp	r3, #3
 8004f1c:	d112      	bne.n	8004f44 <find_volume.constprop.0+0x1b4>
		if (fs->n_rootdir) return FR_NO_FILESYSTEM;		/* (BPB_RootEntCnt must be 0) */
 8004f1e:	2d00      	cmp	r5, #0
 8004f20:	d19d      	bne.n	8004e5e <find_volume.constprop.0+0xce>
		fs->dirbase = LD_DWORD(fs->win + BPB_RootClus);	/* Root directory start cluster */
 8004f22:	6d61      	ldr	r1, [r4, #84]	; 0x54
		szbfat = fs->n_fatent * 4;						/* (Needed FAT size) */
 8004f24:	0090      	lsls	r0, r2, #2
	if (fs->fsize < (szbfat + (SS(fs) - 1)) / SS(fs))	/* (BPB_FATSz must not be less than the size needed) */
 8004f26:	4a13      	ldr	r2, [pc, #76]	; (8004f74 <find_volume.constprop.0+0x1e4>)
		fs->dirbase = LD_DWORD(fs->win + BPB_RootClus);	/* Root directory start cluster */
 8004f28:	61e1      	str	r1, [r4, #28]
	if (fs->fsize < (szbfat + (SS(fs) - 1)) / SS(fs))	/* (BPB_FATSz must not be less than the size needed) */
 8004f2a:	1880      	adds	r0, r0, r2
 8004f2c:	0a40      	lsrs	r0, r0, #9
 8004f2e:	4287      	cmp	r7, r0
 8004f30:	d395      	bcc.n	8004e5e <find_volume.constprop.0+0xce>
	fs->id = ++Fsid;	/* File system mount ID */
 8004f32:	4a11      	ldr	r2, [pc, #68]	; (8004f78 <find_volume.constprop.0+0x1e8>)
	fs->fs_type = fmt;	/* FAT sub-type */
 8004f34:	7023      	strb	r3, [r4, #0]
	fs->id = ++Fsid;	/* File system mount ID */
 8004f36:	8813      	ldrh	r3, [r2, #0]
	return FR_OK;
 8004f38:	2500      	movs	r5, #0
	fs->id = ++Fsid;	/* File system mount ID */
 8004f3a:	3301      	adds	r3, #1
 8004f3c:	b29b      	uxth	r3, r3
 8004f3e:	8013      	strh	r3, [r2, #0]
 8004f40:	80e3      	strh	r3, [r4, #6]
	return FR_OK;
 8004f42:	e746      	b.n	8004dd2 <find_volume.constprop.0+0x42>
		if (!fs->n_rootdir)	return FR_NO_FILESYSTEM;	/* (BPB_RootEntCnt must not be 0) */
 8004f44:	2d00      	cmp	r5, #0
 8004f46:	d08a      	beq.n	8004e5e <find_volume.constprop.0+0xce>
		fs->dirbase = fs->fatbase + fasize;				/* Root directory start sector */
 8004f48:	9804      	ldr	r0, [sp, #16]
 8004f4a:	1841      	adds	r1, r0, r1
			fs->n_fatent * 2 : fs->n_fatent * 3 / 2 + (fs->n_fatent & 1);
 8004f4c:	0050      	lsls	r0, r2, #1
 8004f4e:	2b02      	cmp	r3, #2
 8004f50:	d0e9      	beq.n	8004f26 <find_volume.constprop.0+0x196>
 8004f52:	2003      	movs	r0, #3
 8004f54:	2501      	movs	r5, #1
 8004f56:	4350      	muls	r0, r2
 8004f58:	402a      	ands	r2, r5
 8004f5a:	0840      	lsrs	r0, r0, #1
 8004f5c:	1880      	adds	r0, r0, r2
 8004f5e:	e7e2      	b.n	8004f26 <find_volume.constprop.0+0x196>
	if (fmt == 3) return FR_DISK_ERR;		/* An error occured in the disk I/O layer */
 8004f60:	0035      	movs	r5, r6
 8004f62:	e736      	b.n	8004dd2 <find_volume.constprop.0+0x42>
 8004f64:	20000ca8 	.word	0x20000ca8
 8004f68:	00000226 	.word	0x00000226
 8004f6c:	00000ff5 	.word	0x00000ff5
 8004f70:	0000fff5 	.word	0x0000fff5
 8004f74:	000001ff 	.word	0x000001ff
 8004f78:	20000cac 	.word	0x20000cac

08004f7c <f_mount>:
FRESULT f_mount (
	FATFS* fs,			/* Pointer to the file system object (NULL:unmount)*/
	const TCHAR* path,	/* Logical drive number to be mounted/unmounted */
	BYTE opt			/* 0:Do not mount (delayed mount), 1:Mount immediately */
)
{
 8004f7c:	b51f      	push	{r0, r1, r2, r3, r4, lr}
 8004f7e:	9001      	str	r0, [sp, #4]
	int vol;
	FRESULT res;
	const TCHAR *rp = path;


	vol = get_ldnumber(&rp);
 8004f80:	a803      	add	r0, sp, #12
{
 8004f82:	0014      	movs	r4, r2
 8004f84:	9100      	str	r1, [sp, #0]
	const TCHAR *rp = path;
 8004f86:	9103      	str	r1, [sp, #12]
	vol = get_ldnumber(&rp);
 8004f88:	f7ff fea2 	bl	8004cd0 <get_ldnumber>
 8004f8c:	0003      	movs	r3, r0
	if (vol < 0) return FR_INVALID_DRIVE;
 8004f8e:	200b      	movs	r0, #11
 8004f90:	2b00      	cmp	r3, #0
 8004f92:	db15      	blt.n	8004fc0 <f_mount+0x44>
	cfs = FatFs[vol];					/* Pointer to fs object */
 8004f94:	490b      	ldr	r1, [pc, #44]	; (8004fc4 <f_mount+0x48>)
 8004f96:	009b      	lsls	r3, r3, #2
 8004f98:	585a      	ldr	r2, [r3, r1]

	if (cfs) {
 8004f9a:	2a00      	cmp	r2, #0
 8004f9c:	d001      	beq.n	8004fa2 <f_mount+0x26>
		clear_lock(cfs);
#endif
#if _FS_REENTRANT						/* Discard sync object of the current volume */
		if (!ff_del_syncobj(cfs->sobj)) return FR_INT_ERR;
#endif
		cfs->fs_type = 0;				/* Clear old fs object */
 8004f9e:	2000      	movs	r0, #0
 8004fa0:	7010      	strb	r0, [r2, #0]
	}

	if (fs) {
 8004fa2:	9a01      	ldr	r2, [sp, #4]
 8004fa4:	2a00      	cmp	r2, #0
 8004fa6:	d001      	beq.n	8004fac <f_mount+0x30>
		fs->fs_type = 0;				/* Clear new fs object */
 8004fa8:	2000      	movs	r0, #0
 8004faa:	7010      	strb	r0, [r2, #0]
		if (!ff_cre_syncobj((BYTE)vol, &fs->sobj)) return FR_INT_ERR;
#endif
	}
	FatFs[vol] = fs;					/* Register new fs object */

	if (!fs || opt != 1) return FR_OK;	/* Do not mount now, it will be mounted later */
 8004fac:	1e10      	subs	r0, r2, #0
	FatFs[vol] = fs;					/* Register new fs object */
 8004fae:	50ca      	str	r2, [r1, r3]
	if (!fs || opt != 1) return FR_OK;	/* Do not mount now, it will be mounted later */
 8004fb0:	d006      	beq.n	8004fc0 <f_mount+0x44>
 8004fb2:	2000      	movs	r0, #0
 8004fb4:	2c01      	cmp	r4, #1
 8004fb6:	d103      	bne.n	8004fc0 <f_mount+0x44>

	res = find_volume(&fs, &path, 0);	/* Force mounted the volume */
 8004fb8:	4669      	mov	r1, sp
 8004fba:	a801      	add	r0, sp, #4
 8004fbc:	f7ff fee8 	bl	8004d90 <find_volume.constprop.0>
	LEAVE_FF(fs, res);
}
 8004fc0:	b004      	add	sp, #16
 8004fc2:	bd10      	pop	{r4, pc}
 8004fc4:	20000ca8 	.word	0x20000ca8

08004fc8 <_ZdlPvj>:
 8004fc8:	b510      	push	{r4, lr}
 8004fca:	f000 f81c 	bl	8005006 <_ZdlPv>
 8004fce:	bd10      	pop	{r4, pc}

08004fd0 <_Znwj>:
 8004fd0:	b510      	push	{r4, lr}
 8004fd2:	1e04      	subs	r4, r0, #0
 8004fd4:	d100      	bne.n	8004fd8 <_Znwj+0x8>
 8004fd6:	3401      	adds	r4, #1
 8004fd8:	0020      	movs	r0, r4
 8004fda:	f000 f827 	bl	800502c <malloc>
 8004fde:	2800      	cmp	r0, #0
 8004fe0:	d000      	beq.n	8004fe4 <_Znwj+0x14>
 8004fe2:	bd10      	pop	{r4, pc}
 8004fe4:	f000 f814 	bl	8005010 <_ZSt15get_new_handlerv>
 8004fe8:	2800      	cmp	r0, #0
 8004fea:	d101      	bne.n	8004ff0 <_Znwj+0x20>
 8004fec:	f000 f816 	bl	800501c <abort>
 8004ff0:	4780      	blx	r0
 8004ff2:	e7f1      	b.n	8004fd8 <_Znwj+0x8>

08004ff4 <_ZSt17__throw_bad_allocv>:
 8004ff4:	b510      	push	{r4, lr}
 8004ff6:	f000 f811 	bl	800501c <abort>

08004ffa <_ZSt28__throw_bad_array_new_lengthv>:
 8004ffa:	b510      	push	{r4, lr}
 8004ffc:	f000 f80e 	bl	800501c <abort>

08005000 <_ZSt20__throw_length_errorPKc>:
 8005000:	b510      	push	{r4, lr}
 8005002:	f000 f80b 	bl	800501c <abort>

08005006 <_ZdlPv>:
 8005006:	b510      	push	{r4, lr}
 8005008:	f000 f81a 	bl	8005040 <free>
 800500c:	bd10      	pop	{r4, pc}
	...

08005010 <_ZSt15get_new_handlerv>:
 8005010:	4b01      	ldr	r3, [pc, #4]	; (8005018 <_ZSt15get_new_handlerv+0x8>)
 8005012:	6818      	ldr	r0, [r3, #0]
 8005014:	4770      	bx	lr
 8005016:	46c0      	nop			; (mov r8, r8)
 8005018:	20000cb0 	.word	0x20000cb0

0800501c <abort>:
 800501c:	2006      	movs	r0, #6
 800501e:	b510      	push	{r4, lr}
 8005020:	f000 f912 	bl	8005248 <raise>
 8005024:	2001      	movs	r0, #1
 8005026:	f7fd fce7 	bl	80029f8 <_exit>
	...

0800502c <malloc>:
 800502c:	b510      	push	{r4, lr}
 800502e:	4b03      	ldr	r3, [pc, #12]	; (800503c <malloc+0x10>)
 8005030:	0001      	movs	r1, r0
 8005032:	6818      	ldr	r0, [r3, #0]
 8005034:	f000 f830 	bl	8005098 <_malloc_r>
 8005038:	bd10      	pop	{r4, pc}
 800503a:	46c0      	nop			; (mov r8, r8)
 800503c:	200000ec 	.word	0x200000ec

08005040 <free>:
 8005040:	b510      	push	{r4, lr}
 8005042:	4b03      	ldr	r3, [pc, #12]	; (8005050 <free+0x10>)
 8005044:	0001      	movs	r1, r0
 8005046:	6818      	ldr	r0, [r3, #0]
 8005048:	f000 f966 	bl	8005318 <_free_r>
 800504c:	bd10      	pop	{r4, pc}
 800504e:	46c0      	nop			; (mov r8, r8)
 8005050:	200000ec 	.word	0x200000ec

08005054 <sbrk_aligned>:
 8005054:	b570      	push	{r4, r5, r6, lr}
 8005056:	4e0f      	ldr	r6, [pc, #60]	; (8005094 <sbrk_aligned+0x40>)
 8005058:	000d      	movs	r5, r1
 800505a:	6831      	ldr	r1, [r6, #0]
 800505c:	0004      	movs	r4, r0
 800505e:	2900      	cmp	r1, #0
 8005060:	d102      	bne.n	8005068 <sbrk_aligned+0x14>
 8005062:	f000 f911 	bl	8005288 <_sbrk_r>
 8005066:	6030      	str	r0, [r6, #0]
 8005068:	0029      	movs	r1, r5
 800506a:	0020      	movs	r0, r4
 800506c:	f000 f90c 	bl	8005288 <_sbrk_r>
 8005070:	1c43      	adds	r3, r0, #1
 8005072:	d00a      	beq.n	800508a <sbrk_aligned+0x36>
 8005074:	2303      	movs	r3, #3
 8005076:	1cc5      	adds	r5, r0, #3
 8005078:	439d      	bics	r5, r3
 800507a:	42a8      	cmp	r0, r5
 800507c:	d007      	beq.n	800508e <sbrk_aligned+0x3a>
 800507e:	1a29      	subs	r1, r5, r0
 8005080:	0020      	movs	r0, r4
 8005082:	f000 f901 	bl	8005288 <_sbrk_r>
 8005086:	3001      	adds	r0, #1
 8005088:	d101      	bne.n	800508e <sbrk_aligned+0x3a>
 800508a:	2501      	movs	r5, #1
 800508c:	426d      	negs	r5, r5
 800508e:	0028      	movs	r0, r5
 8005090:	bd70      	pop	{r4, r5, r6, pc}
 8005092:	46c0      	nop			; (mov r8, r8)
 8005094:	20000cb8 	.word	0x20000cb8

08005098 <_malloc_r>:
 8005098:	b5f7      	push	{r0, r1, r2, r4, r5, r6, r7, lr}
 800509a:	2203      	movs	r2, #3
 800509c:	1ccb      	adds	r3, r1, #3
 800509e:	4393      	bics	r3, r2
 80050a0:	3308      	adds	r3, #8
 80050a2:	0006      	movs	r6, r0
 80050a4:	001f      	movs	r7, r3
 80050a6:	2b0c      	cmp	r3, #12
 80050a8:	d238      	bcs.n	800511c <_malloc_r+0x84>
 80050aa:	270c      	movs	r7, #12
 80050ac:	42b9      	cmp	r1, r7
 80050ae:	d837      	bhi.n	8005120 <_malloc_r+0x88>
 80050b0:	0030      	movs	r0, r6
 80050b2:	f000 f873 	bl	800519c <__malloc_lock>
 80050b6:	4b38      	ldr	r3, [pc, #224]	; (8005198 <_malloc_r+0x100>)
 80050b8:	9300      	str	r3, [sp, #0]
 80050ba:	681b      	ldr	r3, [r3, #0]
 80050bc:	001c      	movs	r4, r3
 80050be:	2c00      	cmp	r4, #0
 80050c0:	d133      	bne.n	800512a <_malloc_r+0x92>
 80050c2:	0039      	movs	r1, r7
 80050c4:	0030      	movs	r0, r6
 80050c6:	f7ff ffc5 	bl	8005054 <sbrk_aligned>
 80050ca:	0004      	movs	r4, r0
 80050cc:	1c43      	adds	r3, r0, #1
 80050ce:	d15e      	bne.n	800518e <_malloc_r+0xf6>
 80050d0:	9b00      	ldr	r3, [sp, #0]
 80050d2:	681c      	ldr	r4, [r3, #0]
 80050d4:	0025      	movs	r5, r4
 80050d6:	2d00      	cmp	r5, #0
 80050d8:	d14e      	bne.n	8005178 <_malloc_r+0xe0>
 80050da:	2c00      	cmp	r4, #0
 80050dc:	d051      	beq.n	8005182 <_malloc_r+0xea>
 80050de:	6823      	ldr	r3, [r4, #0]
 80050e0:	0029      	movs	r1, r5
 80050e2:	18e3      	adds	r3, r4, r3
 80050e4:	0030      	movs	r0, r6
 80050e6:	9301      	str	r3, [sp, #4]
 80050e8:	f000 f8ce 	bl	8005288 <_sbrk_r>
 80050ec:	9b01      	ldr	r3, [sp, #4]
 80050ee:	4283      	cmp	r3, r0
 80050f0:	d147      	bne.n	8005182 <_malloc_r+0xea>
 80050f2:	6823      	ldr	r3, [r4, #0]
 80050f4:	0030      	movs	r0, r6
 80050f6:	1aff      	subs	r7, r7, r3
 80050f8:	0039      	movs	r1, r7
 80050fa:	f7ff ffab 	bl	8005054 <sbrk_aligned>
 80050fe:	3001      	adds	r0, #1
 8005100:	d03f      	beq.n	8005182 <_malloc_r+0xea>
 8005102:	6823      	ldr	r3, [r4, #0]
 8005104:	19db      	adds	r3, r3, r7
 8005106:	6023      	str	r3, [r4, #0]
 8005108:	9b00      	ldr	r3, [sp, #0]
 800510a:	681b      	ldr	r3, [r3, #0]
 800510c:	2b00      	cmp	r3, #0
 800510e:	d040      	beq.n	8005192 <_malloc_r+0xfa>
 8005110:	685a      	ldr	r2, [r3, #4]
 8005112:	42a2      	cmp	r2, r4
 8005114:	d133      	bne.n	800517e <_malloc_r+0xe6>
 8005116:	2200      	movs	r2, #0
 8005118:	605a      	str	r2, [r3, #4]
 800511a:	e014      	b.n	8005146 <_malloc_r+0xae>
 800511c:	2b00      	cmp	r3, #0
 800511e:	dac5      	bge.n	80050ac <_malloc_r+0x14>
 8005120:	230c      	movs	r3, #12
 8005122:	2500      	movs	r5, #0
 8005124:	6033      	str	r3, [r6, #0]
 8005126:	0028      	movs	r0, r5
 8005128:	bdfe      	pop	{r1, r2, r3, r4, r5, r6, r7, pc}
 800512a:	6821      	ldr	r1, [r4, #0]
 800512c:	1bc9      	subs	r1, r1, r7
 800512e:	d420      	bmi.n	8005172 <_malloc_r+0xda>
 8005130:	290b      	cmp	r1, #11
 8005132:	d918      	bls.n	8005166 <_malloc_r+0xce>
 8005134:	19e2      	adds	r2, r4, r7
 8005136:	6027      	str	r7, [r4, #0]
 8005138:	42a3      	cmp	r3, r4
 800513a:	d112      	bne.n	8005162 <_malloc_r+0xca>
 800513c:	9b00      	ldr	r3, [sp, #0]
 800513e:	601a      	str	r2, [r3, #0]
 8005140:	6863      	ldr	r3, [r4, #4]
 8005142:	6011      	str	r1, [r2, #0]
 8005144:	6053      	str	r3, [r2, #4]
 8005146:	0030      	movs	r0, r6
 8005148:	0025      	movs	r5, r4
 800514a:	f000 f82f 	bl	80051ac <__malloc_unlock>
 800514e:	2207      	movs	r2, #7
 8005150:	350b      	adds	r5, #11
 8005152:	1d23      	adds	r3, r4, #4
 8005154:	4395      	bics	r5, r2
 8005156:	1aea      	subs	r2, r5, r3
 8005158:	429d      	cmp	r5, r3
 800515a:	d0e4      	beq.n	8005126 <_malloc_r+0x8e>
 800515c:	1b5b      	subs	r3, r3, r5
 800515e:	50a3      	str	r3, [r4, r2]
 8005160:	e7e1      	b.n	8005126 <_malloc_r+0x8e>
 8005162:	605a      	str	r2, [r3, #4]
 8005164:	e7ec      	b.n	8005140 <_malloc_r+0xa8>
 8005166:	6862      	ldr	r2, [r4, #4]
 8005168:	42a3      	cmp	r3, r4
 800516a:	d1d5      	bne.n	8005118 <_malloc_r+0x80>
 800516c:	9b00      	ldr	r3, [sp, #0]
 800516e:	601a      	str	r2, [r3, #0]
 8005170:	e7e9      	b.n	8005146 <_malloc_r+0xae>
 8005172:	0023      	movs	r3, r4
 8005174:	6864      	ldr	r4, [r4, #4]
 8005176:	e7a2      	b.n	80050be <_malloc_r+0x26>
 8005178:	002c      	movs	r4, r5
 800517a:	686d      	ldr	r5, [r5, #4]
 800517c:	e7ab      	b.n	80050d6 <_malloc_r+0x3e>
 800517e:	0013      	movs	r3, r2
 8005180:	e7c4      	b.n	800510c <_malloc_r+0x74>
 8005182:	230c      	movs	r3, #12
 8005184:	0030      	movs	r0, r6
 8005186:	6033      	str	r3, [r6, #0]
 8005188:	f000 f810 	bl	80051ac <__malloc_unlock>
 800518c:	e7cb      	b.n	8005126 <_malloc_r+0x8e>
 800518e:	6027      	str	r7, [r4, #0]
 8005190:	e7d9      	b.n	8005146 <_malloc_r+0xae>
 8005192:	605b      	str	r3, [r3, #4]
 8005194:	deff      	udf	#255	; 0xff
 8005196:	46c0      	nop			; (mov r8, r8)
 8005198:	20000cb4 	.word	0x20000cb4

0800519c <__malloc_lock>:
 800519c:	b510      	push	{r4, lr}
 800519e:	4802      	ldr	r0, [pc, #8]	; (80051a8 <__malloc_lock+0xc>)
 80051a0:	f000 f8ae 	bl	8005300 <__retarget_lock_acquire_recursive>
 80051a4:	bd10      	pop	{r4, pc}
 80051a6:	46c0      	nop			; (mov r8, r8)
 80051a8:	20000df8 	.word	0x20000df8

080051ac <__malloc_unlock>:
 80051ac:	b510      	push	{r4, lr}
 80051ae:	4802      	ldr	r0, [pc, #8]	; (80051b8 <__malloc_unlock+0xc>)
 80051b0:	f000 f8a7 	bl	8005302 <__retarget_lock_release_recursive>
 80051b4:	bd10      	pop	{r4, pc}
 80051b6:	46c0      	nop			; (mov r8, r8)
 80051b8:	20000df8 	.word	0x20000df8

080051bc <memmove>:
 80051bc:	b510      	push	{r4, lr}
 80051be:	4288      	cmp	r0, r1
 80051c0:	d902      	bls.n	80051c8 <memmove+0xc>
 80051c2:	188b      	adds	r3, r1, r2
 80051c4:	4298      	cmp	r0, r3
 80051c6:	d303      	bcc.n	80051d0 <memmove+0x14>
 80051c8:	2300      	movs	r3, #0
 80051ca:	e007      	b.n	80051dc <memmove+0x20>
 80051cc:	5c8b      	ldrb	r3, [r1, r2]
 80051ce:	5483      	strb	r3, [r0, r2]
 80051d0:	3a01      	subs	r2, #1
 80051d2:	d2fb      	bcs.n	80051cc <memmove+0x10>
 80051d4:	bd10      	pop	{r4, pc}
 80051d6:	5ccc      	ldrb	r4, [r1, r3]
 80051d8:	54c4      	strb	r4, [r0, r3]
 80051da:	3301      	adds	r3, #1
 80051dc:	429a      	cmp	r2, r3
 80051de:	d1fa      	bne.n	80051d6 <memmove+0x1a>
 80051e0:	e7f8      	b.n	80051d4 <memmove+0x18>

080051e2 <memset>:
 80051e2:	0003      	movs	r3, r0
 80051e4:	1882      	adds	r2, r0, r2
 80051e6:	4293      	cmp	r3, r2
 80051e8:	d100      	bne.n	80051ec <memset+0xa>
 80051ea:	4770      	bx	lr
 80051ec:	7019      	strb	r1, [r3, #0]
 80051ee:	3301      	adds	r3, #1
 80051f0:	e7f9      	b.n	80051e6 <memset+0x4>

080051f2 <_raise_r>:
 80051f2:	b570      	push	{r4, r5, r6, lr}
 80051f4:	0004      	movs	r4, r0
 80051f6:	000d      	movs	r5, r1
 80051f8:	291f      	cmp	r1, #31
 80051fa:	d904      	bls.n	8005206 <_raise_r+0x14>
 80051fc:	2316      	movs	r3, #22
 80051fe:	6003      	str	r3, [r0, #0]
 8005200:	2001      	movs	r0, #1
 8005202:	4240      	negs	r0, r0
 8005204:	bd70      	pop	{r4, r5, r6, pc}
 8005206:	6bc3      	ldr	r3, [r0, #60]	; 0x3c
 8005208:	2b00      	cmp	r3, #0
 800520a:	d004      	beq.n	8005216 <_raise_r+0x24>
 800520c:	008a      	lsls	r2, r1, #2
 800520e:	189b      	adds	r3, r3, r2
 8005210:	681a      	ldr	r2, [r3, #0]
 8005212:	2a00      	cmp	r2, #0
 8005214:	d108      	bne.n	8005228 <_raise_r+0x36>
 8005216:	0020      	movs	r0, r4
 8005218:	f000 f832 	bl	8005280 <_getpid_r>
 800521c:	002a      	movs	r2, r5
 800521e:	0001      	movs	r1, r0
 8005220:	0020      	movs	r0, r4
 8005222:	f000 f81b 	bl	800525c <_kill_r>
 8005226:	e7ed      	b.n	8005204 <_raise_r+0x12>
 8005228:	2000      	movs	r0, #0
 800522a:	2a01      	cmp	r2, #1
 800522c:	d0ea      	beq.n	8005204 <_raise_r+0x12>
 800522e:	1c51      	adds	r1, r2, #1
 8005230:	d103      	bne.n	800523a <_raise_r+0x48>
 8005232:	2316      	movs	r3, #22
 8005234:	3001      	adds	r0, #1
 8005236:	6023      	str	r3, [r4, #0]
 8005238:	e7e4      	b.n	8005204 <_raise_r+0x12>
 800523a:	2400      	movs	r4, #0
 800523c:	0028      	movs	r0, r5
 800523e:	601c      	str	r4, [r3, #0]
 8005240:	4790      	blx	r2
 8005242:	0020      	movs	r0, r4
 8005244:	e7de      	b.n	8005204 <_raise_r+0x12>
	...

08005248 <raise>:
 8005248:	b510      	push	{r4, lr}
 800524a:	4b03      	ldr	r3, [pc, #12]	; (8005258 <raise+0x10>)
 800524c:	0001      	movs	r1, r0
 800524e:	6818      	ldr	r0, [r3, #0]
 8005250:	f7ff ffcf 	bl	80051f2 <_raise_r>
 8005254:	bd10      	pop	{r4, pc}
 8005256:	46c0      	nop			; (mov r8, r8)
 8005258:	200000ec 	.word	0x200000ec

0800525c <_kill_r>:
 800525c:	2300      	movs	r3, #0
 800525e:	b570      	push	{r4, r5, r6, lr}
 8005260:	4d06      	ldr	r5, [pc, #24]	; (800527c <_kill_r+0x20>)
 8005262:	0004      	movs	r4, r0
 8005264:	0008      	movs	r0, r1
 8005266:	0011      	movs	r1, r2
 8005268:	602b      	str	r3, [r5, #0]
 800526a:	f7fd fbbd 	bl	80029e8 <_kill>
 800526e:	1c43      	adds	r3, r0, #1
 8005270:	d103      	bne.n	800527a <_kill_r+0x1e>
 8005272:	682b      	ldr	r3, [r5, #0]
 8005274:	2b00      	cmp	r3, #0
 8005276:	d000      	beq.n	800527a <_kill_r+0x1e>
 8005278:	6023      	str	r3, [r4, #0]
 800527a:	bd70      	pop	{r4, r5, r6, pc}
 800527c:	20000df4 	.word	0x20000df4

08005280 <_getpid_r>:
 8005280:	b510      	push	{r4, lr}
 8005282:	f7fd fbaf 	bl	80029e4 <_getpid>
 8005286:	bd10      	pop	{r4, pc}

08005288 <_sbrk_r>:
 8005288:	2300      	movs	r3, #0
 800528a:	b570      	push	{r4, r5, r6, lr}
 800528c:	4d06      	ldr	r5, [pc, #24]	; (80052a8 <_sbrk_r+0x20>)
 800528e:	0004      	movs	r4, r0
 8005290:	0008      	movs	r0, r1
 8005292:	602b      	str	r3, [r5, #0]
 8005294:	f7fd fbb6 	bl	8002a04 <_sbrk>
 8005298:	1c43      	adds	r3, r0, #1
 800529a:	d103      	bne.n	80052a4 <_sbrk_r+0x1c>
 800529c:	682b      	ldr	r3, [r5, #0]
 800529e:	2b00      	cmp	r3, #0
 80052a0:	d000      	beq.n	80052a4 <_sbrk_r+0x1c>
 80052a2:	6023      	str	r3, [r4, #0]
 80052a4:	bd70      	pop	{r4, r5, r6, pc}
 80052a6:	46c0      	nop			; (mov r8, r8)
 80052a8:	20000df4 	.word	0x20000df4

080052ac <__errno>:
 80052ac:	4b01      	ldr	r3, [pc, #4]	; (80052b4 <__errno+0x8>)
 80052ae:	6818      	ldr	r0, [r3, #0]
 80052b0:	4770      	bx	lr
 80052b2:	46c0      	nop			; (mov r8, r8)
 80052b4:	200000ec 	.word	0x200000ec

080052b8 <__libc_init_array>:
 80052b8:	b570      	push	{r4, r5, r6, lr}
 80052ba:	2600      	movs	r6, #0
 80052bc:	4c0c      	ldr	r4, [pc, #48]	; (80052f0 <__libc_init_array+0x38>)
 80052be:	4d0d      	ldr	r5, [pc, #52]	; (80052f4 <__libc_init_array+0x3c>)
 80052c0:	1b64      	subs	r4, r4, r5
 80052c2:	10a4      	asrs	r4, r4, #2
 80052c4:	42a6      	cmp	r6, r4
 80052c6:	d109      	bne.n	80052dc <__libc_init_array+0x24>
 80052c8:	2600      	movs	r6, #0
 80052ca:	f000 f86f 	bl	80053ac <_init>
 80052ce:	4c0a      	ldr	r4, [pc, #40]	; (80052f8 <__libc_init_array+0x40>)
 80052d0:	4d0a      	ldr	r5, [pc, #40]	; (80052fc <__libc_init_array+0x44>)
 80052d2:	1b64      	subs	r4, r4, r5
 80052d4:	10a4      	asrs	r4, r4, #2
 80052d6:	42a6      	cmp	r6, r4
 80052d8:	d105      	bne.n	80052e6 <__libc_init_array+0x2e>
 80052da:	bd70      	pop	{r4, r5, r6, pc}
 80052dc:	00b3      	lsls	r3, r6, #2
 80052de:	58eb      	ldr	r3, [r5, r3]
 80052e0:	4798      	blx	r3
 80052e2:	3601      	adds	r6, #1
 80052e4:	e7ee      	b.n	80052c4 <__libc_init_array+0xc>
 80052e6:	00b3      	lsls	r3, r6, #2
 80052e8:	58eb      	ldr	r3, [r5, r3]
 80052ea:	4798      	blx	r3
 80052ec:	3601      	adds	r6, #1
 80052ee:	e7f2      	b.n	80052d6 <__libc_init_array+0x1e>
 80052f0:	08005450 	.word	0x08005450
 80052f4:	08005450 	.word	0x08005450
 80052f8:	08005458 	.word	0x08005458
 80052fc:	08005450 	.word	0x08005450

08005300 <__retarget_lock_acquire_recursive>:
 8005300:	4770      	bx	lr

08005302 <__retarget_lock_release_recursive>:
 8005302:	4770      	bx	lr

08005304 <memcpy>:
 8005304:	2300      	movs	r3, #0
 8005306:	b510      	push	{r4, lr}
 8005308:	429a      	cmp	r2, r3
 800530a:	d100      	bne.n	800530e <memcpy+0xa>
 800530c:	bd10      	pop	{r4, pc}
 800530e:	5ccc      	ldrb	r4, [r1, r3]
 8005310:	54c4      	strb	r4, [r0, r3]
 8005312:	3301      	adds	r3, #1
 8005314:	e7f8      	b.n	8005308 <memcpy+0x4>
	...

08005318 <_free_r>:
 8005318:	b570      	push	{r4, r5, r6, lr}
 800531a:	0005      	movs	r5, r0
 800531c:	2900      	cmp	r1, #0
 800531e:	d010      	beq.n	8005342 <_free_r+0x2a>
 8005320:	1f0c      	subs	r4, r1, #4
 8005322:	6823      	ldr	r3, [r4, #0]
 8005324:	2b00      	cmp	r3, #0
 8005326:	da00      	bge.n	800532a <_free_r+0x12>
 8005328:	18e4      	adds	r4, r4, r3
 800532a:	0028      	movs	r0, r5
 800532c:	f7ff ff36 	bl	800519c <__malloc_lock>
 8005330:	4a1d      	ldr	r2, [pc, #116]	; (80053a8 <_free_r+0x90>)
 8005332:	6813      	ldr	r3, [r2, #0]
 8005334:	2b00      	cmp	r3, #0
 8005336:	d105      	bne.n	8005344 <_free_r+0x2c>
 8005338:	6063      	str	r3, [r4, #4]
 800533a:	6014      	str	r4, [r2, #0]
 800533c:	0028      	movs	r0, r5
 800533e:	f7ff ff35 	bl	80051ac <__malloc_unlock>
 8005342:	bd70      	pop	{r4, r5, r6, pc}
 8005344:	42a3      	cmp	r3, r4
 8005346:	d908      	bls.n	800535a <_free_r+0x42>
 8005348:	6820      	ldr	r0, [r4, #0]
 800534a:	1821      	adds	r1, r4, r0
 800534c:	428b      	cmp	r3, r1
 800534e:	d1f3      	bne.n	8005338 <_free_r+0x20>
 8005350:	6819      	ldr	r1, [r3, #0]
 8005352:	685b      	ldr	r3, [r3, #4]
 8005354:	1809      	adds	r1, r1, r0
 8005356:	6021      	str	r1, [r4, #0]
 8005358:	e7ee      	b.n	8005338 <_free_r+0x20>
 800535a:	001a      	movs	r2, r3
 800535c:	685b      	ldr	r3, [r3, #4]
 800535e:	2b00      	cmp	r3, #0
 8005360:	d001      	beq.n	8005366 <_free_r+0x4e>
 8005362:	42a3      	cmp	r3, r4
 8005364:	d9f9      	bls.n	800535a <_free_r+0x42>
 8005366:	6811      	ldr	r1, [r2, #0]
 8005368:	1850      	adds	r0, r2, r1
 800536a:	42a0      	cmp	r0, r4
 800536c:	d10b      	bne.n	8005386 <_free_r+0x6e>
 800536e:	6820      	ldr	r0, [r4, #0]
 8005370:	1809      	adds	r1, r1, r0
 8005372:	1850      	adds	r0, r2, r1
 8005374:	6011      	str	r1, [r2, #0]
 8005376:	4283      	cmp	r3, r0
 8005378:	d1e0      	bne.n	800533c <_free_r+0x24>
 800537a:	6818      	ldr	r0, [r3, #0]
 800537c:	685b      	ldr	r3, [r3, #4]
 800537e:	1841      	adds	r1, r0, r1
 8005380:	6011      	str	r1, [r2, #0]
 8005382:	6053      	str	r3, [r2, #4]
 8005384:	e7da      	b.n	800533c <_free_r+0x24>
 8005386:	42a0      	cmp	r0, r4
 8005388:	d902      	bls.n	8005390 <_free_r+0x78>
 800538a:	230c      	movs	r3, #12
 800538c:	602b      	str	r3, [r5, #0]
 800538e:	e7d5      	b.n	800533c <_free_r+0x24>
 8005390:	6820      	ldr	r0, [r4, #0]
 8005392:	1821      	adds	r1, r4, r0
 8005394:	428b      	cmp	r3, r1
 8005396:	d103      	bne.n	80053a0 <_free_r+0x88>
 8005398:	6819      	ldr	r1, [r3, #0]
 800539a:	685b      	ldr	r3, [r3, #4]
 800539c:	1809      	adds	r1, r1, r0
 800539e:	6021      	str	r1, [r4, #0]
 80053a0:	6063      	str	r3, [r4, #4]
 80053a2:	6054      	str	r4, [r2, #4]
 80053a4:	e7ca      	b.n	800533c <_free_r+0x24>
 80053a6:	46c0      	nop			; (mov r8, r8)
 80053a8:	20000cb4 	.word	0x20000cb4

080053ac <_init>:
 80053ac:	b5f8      	push	{r3, r4, r5, r6, r7, lr}
 80053ae:	46c0      	nop			; (mov r8, r8)
 80053b0:	bcf8      	pop	{r3, r4, r5, r6, r7}
 80053b2:	bc08      	pop	{r3}
 80053b4:	469e      	mov	lr, r3
 80053b6:	4770      	bx	lr

080053b8 <_fini>:
 80053b8:	b5f8      	push	{r3, r4, r5, r6, r7, lr}
 80053ba:	46c0      	nop			; (mov r8, r8)
 80053bc:	bcf8      	pop	{r3, r4, r5, r6, r7}
 80053be:	bc08      	pop	{r3}
 80053c0:	469e      	mov	lr, r3
 80053c2:	4770      	bx	lr
